(dp1
S'output'
p2
S"<type 'exceptions.IOError'> [Errno socket error] [Errno 10061] No connection could be made because the target machine actively refused it"
p3
sS'layer'
p4
S'D:\\Work\\webRTC\\web2py\\applications\\welcome\\controllers/webrtc.py'
p5
sS'code'
p6
S'# coding: utf8\n# try something like\ndef index():\n    response.files.append(URL(\'static\',\'js/adapter.js\')) \n    response.files.append(URL(\'static\',\'js/rtc.js\')) \n    isCaller = (request.args and "false") or "true"\n    return dict(isCaller=isCaller)\ndef connect():\n    from gluon.contrib import simplejson as json\n    from gluon.contrib.websocket_messaging import websocket_send\n    db.rtc.insert(dest = request.vars.sdp)\n    websocket_send(\n                \'http://127.0.0.1:8888\',json.dumps(dict(sdp = request.vars.sdp)),\'rct\',\'rtc\')\n    return response.json(request.vars.sdp)\ndef get_connect():\n    rtc_db = db(db.rtc.id>0).select().last()\n    if rtc_db:\n        rtc = rtc_db.dest\n    else :\n        rtc = 0\n    return dict(sdp=rtc)\n\nresponse._vars=response._caller(connect)\n'
p7
sS'snapshot'
p8
(dp9
S'exception'
p10
(dp11
S'__getslice__'
p12
S"<method-wrapper '__getslice__' of exceptions.IOError object>"
p13
sS'__str__'
p14
S"<method-wrapper '__str__' of exceptions.IOError object>"
p15
sS'__reduce__'
p16
S'<built-in method __reduce__ of exceptions.IOError object>'
p17
sS'__dict__'
p18
S'{}'
p19
sS'__sizeof__'
p20
S'<built-in method __sizeof__ of exceptions.IOError object>'
p21
sS'__init__'
p22
S"<method-wrapper '__init__' of exceptions.IOError object>"
p23
sS'__setattr__'
p24
S"<method-wrapper '__setattr__' of exceptions.IOError object>"
p25
sS'__reduce_ex__'
p26
S'<built-in method __reduce_ex__ of exceptions.IOError object>'
p27
sS'__new__'
p28
S'<built-in method __new__ of type object>'
p29
sS'errno'
p30
S"'socket error'"
p31
sS'__format__'
p32
S'<built-in method __format__ of exceptions.IOError object>'
p33
sS'__class__'
p34
S"<type 'exceptions.IOError'>"
p35
sS'filename'
p36
S'None'
p37
sS'__doc__'
p38
S"'I/O operation failed.'"
p39
sS'__getitem__'
p40
S"<method-wrapper '__getitem__' of exceptions.IOError object>"
p41
sS'__setstate__'
p42
S'<built-in method __setstate__ of exceptions.IOError object>'
p43
sS'__getattribute__'
p44
S"<method-wrapper '__getattribute__' of exceptions.IOError object>"
p45
sS'args'
p46
S"('socket error', error(10061, 'No connection could be made because the target machine actively refused it'))"
p47
sS'__subclasshook__'
p48
S'<built-in method __subclasshook__ of type object>'
p49
sS'__unicode__'
p50
S'<built-in method __unicode__ of exceptions.IOError object>'
p51
sS'strerror'
p52
S"error(10061, 'No connection could be made because the target machine actively refused it')"
p53
sS'__delattr__'
p54
S"<method-wrapper '__delattr__' of exceptions.IOError object>"
p55
sS'__repr__'
p56
S"<method-wrapper '__repr__' of exceptions.IOError object>"
p57
sS'__hash__'
p58
S"<method-wrapper '__hash__' of exceptions.IOError object>"
p59
ssS'evalue'
p60
S'[Errno socket error] [Errno 10061] No connection could be made because the target machine actively refused it'
p61
sS'request'
p62
ccopy_reg
_reconstructor
p63
(cgluon.html
BEAUTIFY
p64
c__builtin__
object
p65
NtRp66
(dp67
S'attributes'
p68
(dp69
sS'components'
p70
(lp71
g63
(cgluon.html
TABLE
p72
g65
NtRp73
(dp74
g68
(dp75
S'level'
p76
I5
ssS'parent'
p77
Nsg70
(lp78
g63
(cgluon.html
TR
p79
g65
NtRp80
(dp81
g68
(dp82
sg77
g73
sg70
(lp83
g63
(cgluon.html
TD
p84
g65
NtRp85
(dp86
g68
(dp87
S'_style'
p88
S'font-weight:bold;vertical-align:top'
p89
ssg77
g80
sg70
(lp90
S'ajax'
p91
asbag63
(g84
g65
NtRp92
(dp93
g68
(dp94
S'_valign'
p95
S'top'
p96
ssg77
g80
sg70
(lp97
S':'
asbag63
(g84
g65
NtRp98
(dp99
g68
(dp100
sg77
g80
sg70
(lp101
g63
(g64
g65
NtRp102
(dp103
g68
(dp104
g76
I5
ssg77
g98
sg70
(lp105
S'True'
p106
asbasbasbag63
(g79
g65
NtRp107
(dp108
g68
(dp109
sg77
g73
sg70
(lp110
g63
(g84
g65
NtRp111
(dp112
g68
(dp113
g88
g89
ssg77
g107
sg70
(lp114
S'application'
p115
asbag63
(g84
g65
NtRp116
(dp117
g68
(dp118
g95
g96
ssg77
g107
sg70
(lp119
S':'
asbag63
(g84
g65
NtRp120
(dp121
g68
(dp122
sg77
g107
sg70
(lp123
g63
(g64
g65
NtRp124
(dp125
g68
(dp126
g76
I5
ssg77
g120
sg70
(lp127
S'welcome'
p128
asbasbasbag63
(g79
g65
NtRp129
(dp130
g68
(dp131
sg77
g73
sg70
(lp132
g63
(g84
g65
NtRp133
(dp134
g68
(dp135
g88
g89
ssg77
g129
sg70
(lp136
g46
asbag63
(g84
g65
NtRp137
(dp138
g68
(dp139
g95
g96
ssg77
g129
sg70
(lp140
S':'
asbag63
(g84
g65
NtRp141
(dp142
g68
(dp143
sg77
g129
sg70
(lp144
g63
(g64
g65
NtRp145
(dp146
g68
(dp147
g76
I5
ssg77
g141
sg70
(lp148
g63
(g72
g65
NtRp149
(dp150
g68
(dp151
g76
I4
ssg77
Nsg70
(lp152
sbasbasbasbag63
(g79
g65
NtRp153
(dp154
g68
(dp155
sg77
g73
sg70
(lp156
g63
(g84
g65
NtRp157
(dp158
g68
(dp159
g88
g89
ssg77
g153
sg70
(lp160
S'body'
p161
asbag63
(g84
g65
NtRp162
(dp163
g68
(dp164
g95
g96
ssg77
g153
sg70
(lp165
S':'
asbag63
(g84
g65
NtRp166
(dp167
g68
(dp168
sg77
g153
sg70
(lp169
g63
(g64
g65
NtRp170
(dp171
g68
(dp172
g76
I5
ssg77
g166
sg70
(lp173
S'<cStringIO.StringO object at 0x000000000377C1B8>'
p174
asbasbasbag63
(g79
g65
NtRp175
(dp176
g68
(dp177
sg77
g73
sg70
(lp178
g63
(g84
g65
NtRp179
(dp180
g68
(dp181
g88
g89
ssg77
g175
sg70
(lp182
S'cid'
p183
asbag63
(g84
g65
NtRp184
(dp185
g68
(dp186
g95
g96
ssg77
g175
sg70
(lp187
S':'
asbag63
(g84
g65
NtRp188
(dp189
g68
(dp190
sg77
g175
sg70
(lp191
g63
(g64
g65
NtRp192
(dp193
g68
(dp194
g76
I5
ssg77
g188
sg70
(lp195
S'None'
p196
asbasbasbag63
(g79
g65
NtRp197
(dp198
g68
(dp199
sg77
g73
sg70
(lp200
g63
(g84
g65
NtRp201
(dp202
g68
(dp203
g88
g89
ssg77
g197
sg70
(lp204
S'client'
p205
asbag63
(g84
g65
NtRp206
(dp207
g68
(dp208
g95
g96
ssg77
g197
sg70
(lp209
S':'
asbag63
(g84
g65
NtRp210
(dp211
g68
(dp212
sg77
g197
sg70
(lp213
g63
(g64
g65
NtRp214
(dp215
g68
(dp216
g76
I5
ssg77
g210
sg70
(lp217
S'127.0.0.1'
p218
asbasbasbag63
(g79
g65
NtRp219
(dp220
g68
(dp221
sg77
g73
sg70
(lp222
g63
(g84
g65
NtRp223
(dp224
g68
(dp225
g88
g89
ssg77
g219
sg70
(lp226
S'controller'
p227
asbag63
(g84
g65
NtRp228
(dp229
g68
(dp230
g95
g96
ssg77
g219
sg70
(lp231
S':'
asbag63
(g84
g65
NtRp232
(dp233
g68
(dp234
sg77
g219
sg70
(lp235
g63
(g64
g65
NtRp236
(dp237
g68
(dp238
g76
I5
ssg77
g232
sg70
(lp239
S'webrtc'
p240
asbasbasbag63
(g79
g65
NtRp241
(dp242
g68
(dp243
sg77
g73
sg70
(lp244
g63
(g84
g65
NtRp245
(dp246
g68
(dp247
g88
g89
ssg77
g241
sg70
(lp248
S'cookies'
p249
asbag63
(g84
g65
NtRp250
(dp251
g68
(dp252
g95
g96
ssg77
g241
sg70
(lp253
S':'
asbag63
(g84
g65
NtRp254
(dp255
g68
(dp256
sg77
g241
sg70
(lp257
g63
(g64
g65
NtRp258
(dp259
g68
(dp260
g76
I5
ssg77
g254
sg70
(lp261
g63
(g72
g65
NtRp262
(dp263
g68
(dp264
g76
I4
ssg77
Nsg70
(lp265
g63
(g79
g65
NtRp266
(dp267
g68
(dp268
sg77
g262
sg70
(lp269
g63
(g84
g65
NtRp270
(dp271
g68
(dp272
g88
g89
ssg77
g266
sg70
(lp273
S'session_id_admin'
p274
asbag63
(g84
g65
NtRp275
(dp276
g68
(dp277
g95
g96
ssg77
g266
sg70
(lp278
S':'
asbag63
(g84
g65
NtRp279
(dp280
g68
(dp281
sg77
g266
sg70
(lp282
g63
(g64
g65
NtRp283
(dp284
g68
(dp285
g76
I4
ssg77
g279
sg70
(lp286
S'127.0.0.1-961df8be-0dd5-433a-b289-a2172fcc90d7'
p287
ag63
(g72
g65
NtRp288
(dp289
g68
(dp290
g76
I3
ssg77
Nsg70
(lp291
g63
(g79
g65
NtRp292
(dp293
g68
(dp294
sg77
g288
sg70
(lp295
g63
(g84
g65
NtRp296
(dp297
g68
(dp298
g88
g89
ssg77
g292
sg70
(lp299
S'comment'
p300
asbag63
(g84
g65
NtRp301
(dp302
g68
(dp303
g95
g96
ssg77
g292
sg70
(lp304
S':'
asbag63
(g84
g65
NtRp305
(dp306
g68
(dp307
sg77
g292
sg70
(lp308
g63
(g64
g65
NtRp309
(dp310
g68
(dp311
g76
I3
ssg77
g305
sg70
(lp312
S''
asbasbasbag63
(g79
g65
NtRp313
(dp314
g68
(dp315
sg77
g288
sg70
(lp316
g63
(g84
g65
NtRp317
(dp318
g68
(dp319
g88
g89
ssg77
g313
sg70
(lp320
S'domain'
p321
asbag63
(g84
g65
NtRp322
(dp323
g68
(dp324
g95
g96
ssg77
g313
sg70
(lp325
S':'
asbag63
(g84
g65
NtRp326
(dp327
g68
(dp328
sg77
g313
sg70
(lp329
g63
(g64
g65
NtRp330
(dp331
g68
(dp332
g76
I3
ssg77
g326
sg70
(lp333
S''
asbasbasbag63
(g79
g65
NtRp334
(dp335
g68
(dp336
sg77
g288
sg70
(lp337
g63
(g84
g65
NtRp338
(dp339
g68
(dp340
g88
g89
ssg77
g334
sg70
(lp341
S'expires'
p342
asbag63
(g84
g65
NtRp343
(dp344
g68
(dp345
g95
g96
ssg77
g334
sg70
(lp346
S':'
asbag63
(g84
g65
NtRp347
(dp348
g68
(dp349
sg77
g334
sg70
(lp350
g63
(g64
g65
NtRp351
(dp352
g68
(dp353
g76
I3
ssg77
g347
sg70
(lp354
S''
asbasbasbag63
(g79
g65
NtRp355
(dp356
g68
(dp357
sg77
g288
sg70
(lp358
g63
(g84
g65
NtRp359
(dp360
g68
(dp361
g88
g89
ssg77
g355
sg70
(lp362
S'httponly'
p363
asbag63
(g84
g65
NtRp364
(dp365
g68
(dp366
g95
g96
ssg77
g355
sg70
(lp367
S':'
asbag63
(g84
g65
NtRp368
(dp369
g68
(dp370
sg77
g355
sg70
(lp371
g63
(g64
g65
NtRp372
(dp373
g68
(dp374
g76
I3
ssg77
g368
sg70
(lp375
S''
asbasbasbag63
(g79
g65
NtRp376
(dp377
g68
(dp378
sg77
g288
sg70
(lp379
g63
(g84
g65
NtRp380
(dp381
g68
(dp382
g88
g89
ssg77
g376
sg70
(lp383
S'max-age'
p384
asbag63
(g84
g65
NtRp385
(dp386
g68
(dp387
g95
g96
ssg77
g376
sg70
(lp388
S':'
asbag63
(g84
g65
NtRp389
(dp390
g68
(dp391
sg77
g376
sg70
(lp392
g63
(g64
g65
NtRp393
(dp394
g68
(dp395
g76
I3
ssg77
g389
sg70
(lp396
S''
asbasbasbag63
(g79
g65
NtRp397
(dp398
g68
(dp399
sg77
g288
sg70
(lp400
g63
(g84
g65
NtRp401
(dp402
g68
(dp403
g88
g89
ssg77
g397
sg70
(lp404
S'path'
p405
asbag63
(g84
g65
NtRp406
(dp407
g68
(dp408
g95
g96
ssg77
g397
sg70
(lp409
S':'
asbag63
(g84
g65
NtRp410
(dp411
g68
(dp412
sg77
g397
sg70
(lp413
g63
(g64
g65
NtRp414
(dp415
g68
(dp416
g76
I3
ssg77
g410
sg70
(lp417
S''
asbasbasbag63
(g79
g65
NtRp418
(dp419
g68
(dp420
sg77
g288
sg70
(lp421
g63
(g84
g65
NtRp422
(dp423
g68
(dp424
g88
g89
ssg77
g418
sg70
(lp425
S'secure'
p426
asbag63
(g84
g65
NtRp427
(dp428
g68
(dp429
g95
g96
ssg77
g418
sg70
(lp430
S':'
asbag63
(g84
g65
NtRp431
(dp432
g68
(dp433
sg77
g418
sg70
(lp434
g63
(g64
g65
NtRp435
(dp436
g68
(dp437
g76
I3
ssg77
g431
sg70
(lp438
S''
asbasbasbag63
(g79
g65
NtRp439
(dp440
g68
(dp441
sg77
g288
sg70
(lp442
g63
(g84
g65
NtRp443
(dp444
g68
(dp445
g88
g89
ssg77
g439
sg70
(lp446
S'version'
p447
asbag63
(g84
g65
NtRp448
(dp449
g68
(dp450
g95
g96
ssg77
g439
sg70
(lp451
S':'
asbag63
(g84
g65
NtRp452
(dp453
g68
(dp454
sg77
g439
sg70
(lp455
g63
(g64
g65
NtRp456
(dp457
g68
(dp458
g76
I3
ssg77
g452
sg70
(lp459
S''
asbasbasbasbasbasbasbag63
(g79
g65
NtRp460
(dp461
g68
(dp462
sg77
g262
sg70
(lp463
g63
(g84
g65
NtRp464
(dp465
g68
(dp466
g88
g89
ssg77
g460
sg70
(lp467
S'session_id_welcome'
p468
asbag63
(g84
g65
NtRp469
(dp470
g68
(dp471
g95
g96
ssg77
g460
sg70
(lp472
S':'
asbag63
(g84
g65
NtRp473
(dp474
g68
(dp475
sg77
g460
sg70
(lp476
g63
(g64
g65
NtRp477
(dp478
g68
(dp479
g76
I4
ssg77
g473
sg70
(lp480
S'127.0.0.1-dbfdfe15-329d-49b6-859c-22e2bf3300d9'
p481
ag63
(g72
g65
NtRp482
(dp483
g68
(dp484
g76
I3
ssg77
Nsg70
(lp485
g63
(g79
g65
NtRp486
(dp487
g68
(dp488
sg77
g482
sg70
(lp489
g63
(g84
g65
NtRp490
(dp491
g68
(dp492
g88
g89
ssg77
g486
sg70
(lp493
g300
asbag63
(g84
g65
NtRp494
(dp495
g68
(dp496
g95
g96
ssg77
g486
sg70
(lp497
S':'
asbag63
(g84
g65
NtRp498
(dp499
g68
(dp500
sg77
g486
sg70
(lp501
g63
(g64
g65
NtRp502
(dp503
g68
(dp504
g76
I3
ssg77
g498
sg70
(lp505
S''
asbasbasbag63
(g79
g65
NtRp506
(dp507
g68
(dp508
sg77
g482
sg70
(lp509
g63
(g84
g65
NtRp510
(dp511
g68
(dp512
g88
g89
ssg77
g506
sg70
(lp513
g321
asbag63
(g84
g65
NtRp514
(dp515
g68
(dp516
g95
g96
ssg77
g506
sg70
(lp517
S':'
asbag63
(g84
g65
NtRp518
(dp519
g68
(dp520
sg77
g506
sg70
(lp521
g63
(g64
g65
NtRp522
(dp523
g68
(dp524
g76
I3
ssg77
g518
sg70
(lp525
S''
asbasbasbag63
(g79
g65
NtRp526
(dp527
g68
(dp528
sg77
g482
sg70
(lp529
g63
(g84
g65
NtRp530
(dp531
g68
(dp532
g88
g89
ssg77
g526
sg70
(lp533
g342
asbag63
(g84
g65
NtRp534
(dp535
g68
(dp536
g95
g96
ssg77
g526
sg70
(lp537
S':'
asbag63
(g84
g65
NtRp538
(dp539
g68
(dp540
sg77
g526
sg70
(lp541
g63
(g64
g65
NtRp542
(dp543
g68
(dp544
g76
I3
ssg77
g538
sg70
(lp545
S''
asbasbasbag63
(g79
g65
NtRp546
(dp547
g68
(dp548
sg77
g482
sg70
(lp549
g63
(g84
g65
NtRp550
(dp551
g68
(dp552
g88
g89
ssg77
g546
sg70
(lp553
g363
asbag63
(g84
g65
NtRp554
(dp555
g68
(dp556
g95
g96
ssg77
g546
sg70
(lp557
S':'
asbag63
(g84
g65
NtRp558
(dp559
g68
(dp560
sg77
g546
sg70
(lp561
g63
(g64
g65
NtRp562
(dp563
g68
(dp564
g76
I3
ssg77
g558
sg70
(lp565
S''
asbasbasbag63
(g79
g65
NtRp566
(dp567
g68
(dp568
sg77
g482
sg70
(lp569
g63
(g84
g65
NtRp570
(dp571
g68
(dp572
g88
g89
ssg77
g566
sg70
(lp573
g384
asbag63
(g84
g65
NtRp574
(dp575
g68
(dp576
g95
g96
ssg77
g566
sg70
(lp577
S':'
asbag63
(g84
g65
NtRp578
(dp579
g68
(dp580
sg77
g566
sg70
(lp581
g63
(g64
g65
NtRp582
(dp583
g68
(dp584
g76
I3
ssg77
g578
sg70
(lp585
S''
asbasbasbag63
(g79
g65
NtRp586
(dp587
g68
(dp588
sg77
g482
sg70
(lp589
g63
(g84
g65
NtRp590
(dp591
g68
(dp592
g88
g89
ssg77
g586
sg70
(lp593
g405
asbag63
(g84
g65
NtRp594
(dp595
g68
(dp596
g95
g96
ssg77
g586
sg70
(lp597
S':'
asbag63
(g84
g65
NtRp598
(dp599
g68
(dp600
sg77
g586
sg70
(lp601
g63
(g64
g65
NtRp602
(dp603
g68
(dp604
g76
I3
ssg77
g598
sg70
(lp605
S''
asbasbasbag63
(g79
g65
NtRp606
(dp607
g68
(dp608
sg77
g482
sg70
(lp609
g63
(g84
g65
NtRp610
(dp611
g68
(dp612
g88
g89
ssg77
g606
sg70
(lp613
g426
asbag63
(g84
g65
NtRp614
(dp615
g68
(dp616
g95
g96
ssg77
g606
sg70
(lp617
S':'
asbag63
(g84
g65
NtRp618
(dp619
g68
(dp620
sg77
g606
sg70
(lp621
g63
(g64
g65
NtRp622
(dp623
g68
(dp624
g76
I3
ssg77
g618
sg70
(lp625
S''
asbasbasbag63
(g79
g65
NtRp626
(dp627
g68
(dp628
sg77
g482
sg70
(lp629
g63
(g84
g65
NtRp630
(dp631
g68
(dp632
g88
g89
ssg77
g626
sg70
(lp633
g447
asbag63
(g84
g65
NtRp634
(dp635
g68
(dp636
g95
g96
ssg77
g626
sg70
(lp637
S':'
asbag63
(g84
g65
NtRp638
(dp639
g68
(dp640
sg77
g626
sg70
(lp641
g63
(g64
g65
NtRp642
(dp643
g68
(dp644
g76
I3
ssg77
g638
sg70
(lp645
S''
asbasbasbasbasbasbasbasbasbasbasbag63
(g79
g65
NtRp646
(dp647
g68
(dp648
sg77
g73
sg70
(lp649
g63
(g84
g65
NtRp650
(dp651
g68
(dp652
g88
g89
ssg77
g646
sg70
(lp653
S'env'
p654
asbag63
(g84
g65
NtRp655
(dp656
g68
(dp657
g95
g96
ssg77
g646
sg70
(lp658
S':'
asbag63
(g84
g65
NtRp659
(dp660
g68
(dp661
sg77
g646
sg70
(lp662
g63
(g64
g65
NtRp663
(dp664
g68
(dp665
g76
I5
ssg77
g659
sg70
(lp666
g63
(g72
g65
NtRp667
(dp668
g68
(dp669
g76
I4
ssg77
Nsg70
(lp670
g63
(g79
g65
NtRp671
(dp672
g68
(dp673
sg77
g667
sg70
(lp674
g63
(g84
g65
NtRp675
(dp676
g68
(dp677
g88
g89
ssg77
g671
sg70
(lp678
S'app_folders'
p679
asbag63
(g84
g65
NtRp680
(dp681
g68
(dp682
g95
g96
ssg77
g671
sg70
(lp683
S':'
asbag63
(g84
g65
NtRp684
(dp685
g68
(dp686
sg77
g671
sg70
(lp687
g63
(g64
g65
NtRp688
(dp689
g68
(dp690
g76
I4
ssg77
g684
sg70
(lp691
S"set(['D:\\\\Work\\\\webRTC\\\\web2py\\\\applications\\\\welcome\\\\', 'D:\\\\Work\\\\webRTC\\\\web2py\\\\applications\\\\admin\\\\'])"
p692
asbasbasbag63
(g79
g65
NtRp693
(dp694
g68
(dp695
sg77
g667
sg70
(lp696
g63
(g84
g65
NtRp697
(dp698
g68
(dp699
g88
g89
ssg77
g693
sg70
(lp700
S'applications_parent'
p701
asbag63
(g84
g65
NtRp702
(dp703
g68
(dp704
g95
g96
ssg77
g693
sg70
(lp705
S':'
asbag63
(g84
g65
NtRp706
(dp707
g68
(dp708
sg77
g693
sg70
(lp709
g63
(g64
g65
NtRp710
(dp711
g68
(dp712
g76
I4
ssg77
g706
sg70
(lp713
S'D:\\Work\\webRTC\\web2py'
p714
asbasbasbag63
(g79
g65
NtRp715
(dp716
g68
(dp717
sg77
g667
sg70
(lp718
g63
(g84
g65
NtRp719
(dp720
g68
(dp721
g88
g89
ssg77
g715
sg70
(lp722
S'cmd_args'
p723
asbag63
(g84
g65
NtRp724
(dp725
g68
(dp726
g95
g96
ssg77
g715
sg70
(lp727
S':'
asbag63
(g84
g65
NtRp728
(dp729
g68
(dp730
sg77
g715
sg70
(lp731
g63
(g64
g65
NtRp732
(dp733
g68
(dp734
g76
I4
ssg77
g728
sg70
(lp735
g63
(g72
g65
NtRp736
(dp737
g68
(dp738
g76
I3
ssg77
Nsg70
(lp739
sbasbasbasbag63
(g79
g65
NtRp740
(dp741
g68
(dp742
sg77
g667
sg70
(lp743
g63
(g84
g65
NtRp744
(dp745
g68
(dp746
g88
g89
ssg77
g740
sg70
(lp747
S'cmd_options'
p748
asbag63
(g84
g65
NtRp749
(dp750
g68
(dp751
g95
g96
ssg77
g740
sg70
(lp752
S':'
asbag63
(g84
g65
NtRp753
(dp754
g68
(dp755
sg77
g740
sg70
(lp756
g63
(g64
g65
NtRp757
(dp758
g68
(dp759
g76
I4
ssg77
g753
sg70
(lp760
S"<Values at 0x3769cc8: {'verbose': False, 'ip': '127.0.0.1', 'with_scheduler': False, 'ips': ['2001:0:9d38:6ab8:3c49:1eb9:3f57:ff99', 'fe80::3c49:1eb9:3f57:ff99%14', '192.168.0.102', 'fe80::91ec:31f9:5083:69f3%15'], 'shutdown_timeout': 5, 'taskbar': False, 'port': 8000, 'maxthreads': None, 'softcron': False, 'server_name': 'SonTHN-Hoiio', 'bpython': False, 'nogui': False, 'pid_filename': 'httpserver.pid', 'extcron': False, 'runcron': False, 'run_system_tests': False, 'test': None, 'folder': 'D:\\\\Work\\\\webRTC\\\\web2py', 'config': '', 'import_models': False, 'winservice': '', 'shell': None, 'run': '', 'log_filename': 'httpserver.log', 'debuglevel': 30, 'args': [''], 'socket_timeout': 5, 'ssl_ca_certificate': None, 'scheduler': None, 'profiler_filename': None, 'ssl_private_key': '', 'scheduler_groups': None, 'password': '<ask>', 'request_queue_size': 5, 'ssl_certificate': '', 'cronjob': False, 'numthreads': None, 'quiet': False, 'interfaces': None, 'minthreads': None, 'timeout': 10, 'plain': False, 'nobanner': False}>"
p761
asbasbasbag63
(g79
g65
NtRp762
(dp763
g68
(dp764
sg77
g667
sg70
(lp765
g63
(g84
g65
NtRp766
(dp767
g68
(dp768
g88
g89
ssg77
g762
sg70
(lp769
S'db_sessions'
p770
asbag63
(g84
g65
NtRp771
(dp772
g68
(dp773
g95
g96
ssg77
g762
sg70
(lp774
S':'
asbag63
(g84
g65
NtRp775
(dp776
g68
(dp777
sg77
g762
sg70
(lp778
g63
(g64
g65
NtRp779
(dp780
g68
(dp781
g76
I4
ssg77
g775
sg70
(lp782
S'set([])'
p783
asbasbasbag63
(g79
g65
NtRp784
(dp785
g68
(dp786
sg77
g667
sg70
(lp787
g63
(g84
g65
NtRp788
(dp789
g68
(dp790
g88
g89
ssg77
g784
sg70
(lp791
S'debugging'
p792
asbag63
(g84
g65
NtRp793
(dp794
g68
(dp795
g95
g96
ssg77
g784
sg70
(lp796
S':'
asbag63
(g84
g65
NtRp797
(dp798
g68
(dp799
sg77
g784
sg70
(lp800
g63
(g64
g65
NtRp801
(dp802
g68
(dp803
g76
I4
ssg77
g797
sg70
(lp804
S'False'
p805
asbasbasbag63
(g79
g65
NtRp806
(dp807
g68
(dp808
sg77
g667
sg70
(lp809
g63
(g84
g65
NtRp810
(dp811
g68
(dp812
g88
g89
ssg77
g806
sg70
(lp813
S'gluon_parent'
p814
asbag63
(g84
g65
NtRp815
(dp816
g68
(dp817
g95
g96
ssg77
g806
sg70
(lp818
S':'
asbag63
(g84
g65
NtRp819
(dp820
g68
(dp821
sg77
g806
sg70
(lp822
g63
(g64
g65
NtRp823
(dp824
g68
(dp825
g76
I4
ssg77
g819
sg70
(lp826
S'D:\\Work\\webRTC\\web2py'
p827
asbasbasbag63
(g79
g65
NtRp828
(dp829
g68
(dp830
sg77
g667
sg70
(lp831
g63
(g84
g65
NtRp832
(dp833
g68
(dp834
g88
g89
ssg77
g828
sg70
(lp835
S'http_accept'
p836
asbag63
(g84
g65
NtRp837
(dp838
g68
(dp839
g95
g96
ssg77
g828
sg70
(lp840
S':'
asbag63
(g84
g65
NtRp841
(dp842
g68
(dp843
sg77
g828
sg70
(lp844
g63
(g64
g65
NtRp845
(dp846
g68
(dp847
g76
I4
ssg77
g841
sg70
(lp848
S'*/*'
p849
asbasbasbag63
(g79
g65
NtRp850
(dp851
g68
(dp852
sg77
g667
sg70
(lp853
g63
(g84
g65
NtRp854
(dp855
g68
(dp856
g88
g89
ssg77
g850
sg70
(lp857
S'http_accept_charset'
p858
asbag63
(g84
g65
NtRp859
(dp860
g68
(dp861
g95
g96
ssg77
g850
sg70
(lp862
S':'
asbag63
(g84
g65
NtRp863
(dp864
g68
(dp865
sg77
g850
sg70
(lp866
g63
(g64
g65
NtRp867
(dp868
g68
(dp869
g76
I4
ssg77
g863
sg70
(lp870
S'windows-1258,utf-8;q=0.7,*;q=0.3'
p871
asbasbasbag63
(g79
g65
NtRp872
(dp873
g68
(dp874
sg77
g667
sg70
(lp875
g63
(g84
g65
NtRp876
(dp877
g68
(dp878
g88
g89
ssg77
g872
sg70
(lp879
S'http_accept_encoding'
p880
asbag63
(g84
g65
NtRp881
(dp882
g68
(dp883
g95
g96
ssg77
g872
sg70
(lp884
S':'
asbag63
(g84
g65
NtRp885
(dp886
g68
(dp887
sg77
g872
sg70
(lp888
g63
(g64
g65
NtRp889
(dp890
g68
(dp891
g76
I4
ssg77
g885
sg70
(lp892
S'gzip,deflate,sdch'
p893
asbasbasbag63
(g79
g65
NtRp894
(dp895
g68
(dp896
sg77
g667
sg70
(lp897
g63
(g84
g65
NtRp898
(dp899
g68
(dp900
g88
g89
ssg77
g894
sg70
(lp901
S'http_accept_language'
p902
asbag63
(g84
g65
NtRp903
(dp904
g68
(dp905
g95
g96
ssg77
g894
sg70
(lp906
S':'
asbag63
(g84
g65
NtRp907
(dp908
g68
(dp909
sg77
g894
sg70
(lp910
g63
(g64
g65
NtRp911
(dp912
g68
(dp913
g76
I4
ssg77
g907
sg70
(lp914
S'en,vi;q=0.8,en-US;q=0.6'
p915
asbasbasbag63
(g79
g65
NtRp916
(dp917
g68
(dp918
sg77
g667
sg70
(lp919
g63
(g84
g65
NtRp920
(dp921
g68
(dp922
g88
g89
ssg77
g916
sg70
(lp923
S'http_connection'
p924
asbag63
(g84
g65
NtRp925
(dp926
g68
(dp927
g95
g96
ssg77
g916
sg70
(lp928
S':'
asbag63
(g84
g65
NtRp929
(dp930
g68
(dp931
sg77
g916
sg70
(lp932
g63
(g64
g65
NtRp933
(dp934
g68
(dp935
g76
I4
ssg77
g929
sg70
(lp936
S'keep-alive'
p937
asbasbasbag63
(g79
g65
NtRp938
(dp939
g68
(dp940
sg77
g667
sg70
(lp941
g63
(g84
g65
NtRp942
(dp943
g68
(dp944
g88
g89
ssg77
g938
sg70
(lp945
S'http_cookie'
p946
asbag63
(g84
g65
NtRp947
(dp948
g68
(dp949
g95
g96
ssg77
g938
sg70
(lp950
S':'
asbag63
(g84
g65
NtRp951
(dp952
g68
(dp953
sg77
g938
sg70
(lp954
g63
(g64
g65
NtRp955
(dp956
g68
(dp957
g76
I4
ssg77
g951
sg70
(lp958
S'session_id_admin=127.0.0.1-961df8be-0dd5-433a-b289-a2172fcc90d7; session_id_welcome=127.0.0.1-dbfdfe15-329d-49b6-859c-22e2bf3300d9'
p959
asbasbasbag63
(g79
g65
NtRp960
(dp961
g68
(dp962
sg77
g667
sg70
(lp963
g63
(g84
g65
NtRp964
(dp965
g68
(dp966
g88
g89
ssg77
g960
sg70
(lp967
S'http_host'
p968
asbag63
(g84
g65
NtRp969
(dp970
g68
(dp971
g95
g96
ssg77
g960
sg70
(lp972
S':'
asbag63
(g84
g65
NtRp973
(dp974
g68
(dp975
sg77
g960
sg70
(lp976
g63
(g64
g65
NtRp977
(dp978
g68
(dp979
g76
I4
ssg77
g973
sg70
(lp980
S'127.0.0.1:8000'
p981
asbasbasbag63
(g79
g65
NtRp982
(dp983
g68
(dp984
sg77
g667
sg70
(lp985
g63
(g84
g65
NtRp986
(dp987
g68
(dp988
g88
g89
ssg77
g982
sg70
(lp989
S'http_referer'
p990
asbag63
(g84
g65
NtRp991
(dp992
g68
(dp993
g95
g96
ssg77
g982
sg70
(lp994
S':'
asbag63
(g84
g65
NtRp995
(dp996
g68
(dp997
sg77
g982
sg70
(lp998
g63
(g64
g65
NtRp999
(dp1000
g68
(dp1001
g76
I4
ssg77
g995
sg70
(lp1002
S'http://127.0.0.1:8000/welcome/webrtc/index'
p1003
asbasbasbag63
(g79
g65
NtRp1004
(dp1005
g68
(dp1006
sg77
g667
sg70
(lp1007
g63
(g84
g65
NtRp1008
(dp1009
g68
(dp1010
g88
g89
ssg77
g1004
sg70
(lp1011
S'http_user_agent'
p1012
asbag63
(g84
g65
NtRp1013
(dp1014
g68
(dp1015
g95
g96
ssg77
g1004
sg70
(lp1016
S':'
asbag63
(g84
g65
NtRp1017
(dp1018
g68
(dp1019
sg77
g1004
sg70
(lp1020
g63
(g64
g65
NtRp1021
(dp1022
g68
(dp1023
g76
I4
ssg77
g1017
sg70
(lp1024
S'Mozilla/5.0 (Windows NT 6.1; WOW64) AppleWebKit/537.27 (KHTML, like Gecko) Chrome/26.0.1386.0 Safari/537.27'
p1025
asbasbasbag63
(g79
g65
NtRp1026
(dp1027
g68
(dp1028
sg77
g667
sg70
(lp1029
g63
(g84
g65
NtRp1030
(dp1031
g68
(dp1032
g88
g89
ssg77
g1026
sg70
(lp1033
S'http_x_requested_with'
p1034
asbag63
(g84
g65
NtRp1035
(dp1036
g68
(dp1037
g95
g96
ssg77
g1026
sg70
(lp1038
S':'
asbag63
(g84
g65
NtRp1039
(dp1040
g68
(dp1041
sg77
g1026
sg70
(lp1042
g63
(g64
g65
NtRp1043
(dp1044
g68
(dp1045
g76
I4
ssg77
g1039
sg70
(lp1046
S'XMLHttpRequest'
p1047
asbasbasbag63
(g79
g65
NtRp1048
(dp1049
g68
(dp1050
sg77
g667
sg70
(lp1051
g63
(g84
g65
NtRp1052
(dp1053
g68
(dp1054
g88
g89
ssg77
g1048
sg70
(lp1055
S'is_jython'
p1056
asbag63
(g84
g65
NtRp1057
(dp1058
g68
(dp1059
g95
g96
ssg77
g1048
sg70
(lp1060
S':'
asbag63
(g84
g65
NtRp1061
(dp1062
g68
(dp1063
sg77
g1048
sg70
(lp1064
g63
(g64
g65
NtRp1065
(dp1066
g68
(dp1067
g76
I4
ssg77
g1061
sg70
(lp1068
g805
asbasbasbag63
(g79
g65
NtRp1069
(dp1070
g68
(dp1071
sg77
g667
sg70
(lp1072
g63
(g84
g65
NtRp1073
(dp1074
g68
(dp1075
g88
g89
ssg77
g1069
sg70
(lp1076
S'is_pypy'
p1077
asbag63
(g84
g65
NtRp1078
(dp1079
g68
(dp1080
g95
g96
ssg77
g1069
sg70
(lp1081
S':'
asbag63
(g84
g65
NtRp1082
(dp1083
g68
(dp1084
sg77
g1069
sg70
(lp1085
g63
(g64
g65
NtRp1086
(dp1087
g68
(dp1088
g76
I4
ssg77
g1082
sg70
(lp1089
g805
asbasbasbag63
(g79
g65
NtRp1090
(dp1091
g68
(dp1092
sg77
g667
sg70
(lp1093
g63
(g84
g65
NtRp1094
(dp1095
g68
(dp1096
g88
g89
ssg77
g1090
sg70
(lp1097
S'local_hosts'
p1098
asbag63
(g84
g65
NtRp1099
(dp1100
g68
(dp1101
g95
g96
ssg77
g1090
sg70
(lp1102
S':'
asbag63
(g84
g65
NtRp1103
(dp1104
g68
(dp1105
sg77
g1090
sg70
(lp1106
g63
(g64
g65
NtRp1107
(dp1108
g68
(dp1109
g76
I4
ssg77
g1103
sg70
(lp1110
g63
(g72
g65
NtRp1111
(dp1112
g68
(dp1113
g76
I3
ssg77
Nsg70
(lp1114
g63
(g79
g65
NtRp1115
(dp1116
g68
(dp1117
sg77
g1111
sg70
(lp1118
g63
(g84
g65
NtRp1119
(dp1120
g68
(dp1121
sg77
g1115
sg70
(lp1122
g63
(g64
g65
NtRp1123
(dp1124
g68
(dp1125
g76
I3
ssg77
g1119
sg70
(lp1126
S'fe80::3c49:1eb9:3f57:ff99%14'
p1127
asbasbasbag63
(g79
g65
NtRp1128
(dp1129
g68
(dp1130
sg77
g1111
sg70
(lp1131
g63
(g84
g65
NtRp1132
(dp1133
g68
(dp1134
sg77
g1128
sg70
(lp1135
g63
(g64
g65
NtRp1136
(dp1137
g68
(dp1138
g76
I3
ssg77
g1132
sg70
(lp1139
S'SonTHN-Hoiio'
p1140
asbasbasbag63
(g79
g65
NtRp1141
(dp1142
g68
(dp1143
sg77
g1111
sg70
(lp1144
g63
(g84
g65
NtRp1145
(dp1146
g68
(dp1147
sg77
g1141
sg70
(lp1148
g63
(g64
g65
NtRp1149
(dp1150
g68
(dp1151
g76
I3
ssg77
g1145
sg70
(lp1152
S'fe80::91ec:31f9:5083:69f3%15'
p1153
asbasbasbag63
(g79
g65
NtRp1154
(dp1155
g68
(dp1156
sg77
g1111
sg70
(lp1157
g63
(g84
g65
NtRp1158
(dp1159
g68
(dp1160
sg77
g1154
sg70
(lp1161
g63
(g64
g65
NtRp1162
(dp1163
g68
(dp1164
g76
I3
ssg77
g1158
sg70
(lp1165
S'2001:0:9d38:6ab8:3c49:1eb9:3f57:ff99'
p1166
asbasbasbag63
(g79
g65
NtRp1167
(dp1168
g68
(dp1169
sg77
g1111
sg70
(lp1170
g63
(g84
g65
NtRp1171
(dp1172
g68
(dp1173
sg77
g1167
sg70
(lp1174
g63
(g64
g65
NtRp1175
(dp1176
g68
(dp1177
g76
I3
ssg77
g1171
sg70
(lp1178
S'::ffff:127.0.0.1'
p1179
asbasbasbag63
(g79
g65
NtRp1180
(dp1181
g68
(dp1182
sg77
g1111
sg70
(lp1183
g63
(g84
g65
NtRp1184
(dp1185
g68
(dp1186
sg77
g1180
sg70
(lp1187
g63
(g64
g65
NtRp1188
(dp1189
g68
(dp1190
g76
I3
ssg77
g1184
sg70
(lp1191
S'::1'
p1192
asbasbasbag63
(g79
g65
NtRp1193
(dp1194
g68
(dp1195
sg77
g1111
sg70
(lp1196
g63
(g84
g65
NtRp1197
(dp1198
g68
(dp1199
sg77
g1193
sg70
(lp1200
g63
(g64
g65
NtRp1201
(dp1202
g68
(dp1203
g76
I3
ssg77
g1197
sg70
(lp1204
S'192.168.0.102'
p1205
asbasbasbag63
(g79
g65
NtRp1206
(dp1207
g68
(dp1208
sg77
g1111
sg70
(lp1209
g63
(g84
g65
NtRp1210
(dp1211
g68
(dp1212
sg77
g1206
sg70
(lp1213
g63
(g64
g65
NtRp1214
(dp1215
g68
(dp1216
g76
I3
ssg77
g1210
sg70
(lp1217
S'127.0.0.1'
p1218
asbasbasbasbasbasbasbag63
(g79
g65
NtRp1219
(dp1220
g68
(dp1221
sg77
g667
sg70
(lp1222
g63
(g84
g65
NtRp1223
(dp1224
g68
(dp1225
g88
g89
ssg77
g1219
sg70
(lp1226
S'path_info'
p1227
asbag63
(g84
g65
NtRp1228
(dp1229
g68
(dp1230
g95
g96
ssg77
g1219
sg70
(lp1231
S':'
asbag63
(g84
g65
NtRp1232
(dp1233
g68
(dp1234
sg77
g1219
sg70
(lp1235
g63
(g64
g65
NtRp1236
(dp1237
g68
(dp1238
g76
I4
ssg77
g1232
sg70
(lp1239
S'/welcome/webrtc/connect'
p1240
asbasbasbag63
(g79
g65
NtRp1241
(dp1242
g68
(dp1243
sg77
g667
sg70
(lp1244
g63
(g84
g65
NtRp1245
(dp1246
g68
(dp1247
g88
g89
ssg77
g1241
sg70
(lp1248
S'query_string'
p1249
asbag63
(g84
g65
NtRp1250
(dp1251
g68
(dp1252
g95
g96
ssg77
g1241
sg70
(lp1253
S':'
asbag63
(g84
g65
NtRp1254
(dp1255
g68
(dp1256
sg77
g1241
sg70
(lp1257
g63
(g64
g65
NtRp1258
(dp1259
g68
(dp1260
g76
I4
ssg77
g1254
sg70
(lp1261
S'sdp=v%3D0%0D%0Ao%3D-+921794682+2+IN+IP4+127.0.0.1%0D%0As%3D-%0D%0At%3D0+0%0D%0Aa%3Dgroup%3ABUNDLE+audio+video%0D%0Aa%3Dmsid-semantic%3A+WMS+WlsS7A6WnyDZE0sTQTMXClE3rnjMPdEuvwAS%0D%0Am%3Daudio+1+RTP%2FSAVPF+103+104+111+0+8+107+106+105+13+126%0D%0Ac%3DIN+IP4+0.0.0.0%0D%0Aa%3Drtcp%3A1+IN+IP4+0.0.0.0%0D%0Aa%3Dice-ufrag%3ARete0kGCj04MMa65%0D%0Aa%3Dice-pwd%3ADbt3iYvxM0njcH21kwKUHLI%2B%0D%0Aa%3Dice-options%3Agoogle-ice%0D%0Aa%3Dsendrecv%0D%0Aa%3Dmid%3Aaudio%0D%0Aa%3Drtcp-mux%0D%0Aa%3Dcrypto%3A1+AES_CM_128_HMAC_SHA1_80+inline%3A8tQhwXzyAb9yqvqqy8XwLhBcVCuamBaUmUnE9AX2%0D%0Aa%3Drtpmap%3A103+ISAC%2F16000%0D%0Aa%3Drtpmap%3A104+ISAC%2F32000%0D%0Aa%3Drtpmap%3A111+opus%2F48000%2F2%0D%0Aa%3Drtpmap%3A0+PCMU%2F8000%0D%0Aa%3Drtpmap%3A8+PCMA%2F8000%0D%0Aa%3Drtpmap%3A107+CN%2F48000%0D%0Aa%3Drtpmap%3A106+CN%2F32000%0D%0Aa%3Drtpmap%3A105+CN%2F16000%0D%0Aa%3Drtpmap%3A13+CN%2F8000%0D%0Aa%3Drtpmap%3A126+telephone-event%2F8000%0D%0Aa%3Dssrc%3A2658589649+cname%3APzsADJl7yb7qiUUI%0D%0Aa%3Dssrc%3A2658589649+msid%3AWlsS7A6WnyDZE0sTQTMXClE3rnjMPdEuvwAS+WlsS7A6WnyDZE0sTQTMXClE3rnjMPdEuvwASa0%0D%0Aa%3Dssrc%3A2658589649+mslabel%3AWlsS7A6WnyDZE0sTQTMXClE3rnjMPdEuvwAS%0D%0Aa%3Dssrc%3A2658589649+label%3AWlsS7A6WnyDZE0sTQTMXClE3rnjMPdEuvwASa0%0D%0Am%3Dvideo+1+RTP%2FSAVPF+100+116+117%0D%0Ac%3DIN+IP4+0.0.0.0%0D%0Aa%3Drtcp%3A1+IN+IP4+0.0.0.0%0D%0Aa%3Dice-ufrag%3ARete0kGCj04MMa65%0D%0Aa%3Dice-pwd%3ADbt3iYvxM0njcH21kwKUHLI%2B%0D%0Aa%3Dice-options%3Agoogle-ice%0D%0Aa%3Dsendrecv%0D%0Aa%3Dmid%3Avideo%0D%0Aa%3Drtcp-mux%0D%0Aa%3Dcrypto%3A1+AES_CM_128_HMAC_SHA1_80+inline%3A8tQhwXzyAb9yqvqqy8XwLhBcVCuamBaUmUnE9AX2%0D%0Aa%3Drtpmap%3A100+VP8%2F90000%0D%0Aa%3Drtpmap%3A116+red%2F90000%0D%0Aa%3Drtpmap%3A117+ulpfec%2F90000%0D%0Aa%3Dssrc%3A2628710139+cname%3APzsADJl7yb7qiUUI%0D%0Aa%3Dssrc%3A2628710139+msid%3AWlsS7A6WnyDZE0sTQTMXClE3rnjMPdEuvwAS+WlsS7A6WnyDZE0sTQTMXClE3rnjMPdEuvwASv0%0D%0Aa%3Dssrc%3A2628710139+mslabel%3AWlsS7A6WnyDZE0sTQTMXClE3rnjMPdEuvwAS%0D%0Aa%3Dssrc%3A2628710139+label%3AWlsS7A6WnyDZE0sTQTMXClE3rnjMPdEuvwASv0%0D%0A'
p1262
asbasbasbag63
(g79
g65
NtRp1263
(dp1264
g68
(dp1265
sg77
g667
sg70
(lp1266
g63
(g84
g65
NtRp1267
(dp1268
g68
(dp1269
g88
g89
ssg77
g1263
sg70
(lp1270
S'remote_addr'
p1271
asbag63
(g84
g65
NtRp1272
(dp1273
g68
(dp1274
g95
g96
ssg77
g1263
sg70
(lp1275
S':'
asbag63
(g84
g65
NtRp1276
(dp1277
g68
(dp1278
sg77
g1263
sg70
(lp1279
g63
(g64
g65
NtRp1280
(dp1281
g68
(dp1282
g76
I4
ssg77
g1276
sg70
(lp1283
g218
asbasbasbag63
(g79
g65
NtRp1284
(dp1285
g68
(dp1286
sg77
g667
sg70
(lp1287
g63
(g84
g65
NtRp1288
(dp1289
g68
(dp1290
g88
g89
ssg77
g1284
sg70
(lp1291
S'remote_port'
p1292
asbag63
(g84
g65
NtRp1293
(dp1294
g68
(dp1295
g95
g96
ssg77
g1284
sg70
(lp1296
S':'
asbag63
(g84
g65
NtRp1297
(dp1298
g68
(dp1299
sg77
g1284
sg70
(lp1300
g63
(g64
g65
NtRp1301
(dp1302
g68
(dp1303
g76
I4
ssg77
g1297
sg70
(lp1304
S'49387'
p1305
asbasbasbag63
(g79
g65
NtRp1306
(dp1307
g68
(dp1308
sg77
g667
sg70
(lp1309
g63
(g84
g65
NtRp1310
(dp1311
g68
(dp1312
g88
g89
ssg77
g1306
sg70
(lp1313
S'request_method'
p1314
asbag63
(g84
g65
NtRp1315
(dp1316
g68
(dp1317
g95
g96
ssg77
g1306
sg70
(lp1318
S':'
asbag63
(g84
g65
NtRp1319
(dp1320
g68
(dp1321
sg77
g1306
sg70
(lp1322
g63
(g64
g65
NtRp1323
(dp1324
g68
(dp1325
g76
I4
ssg77
g1319
sg70
(lp1326
S'GET'
p1327
asbasbasbag63
(g79
g65
NtRp1328
(dp1329
g68
(dp1330
sg77
g667
sg70
(lp1331
g63
(g84
g65
NtRp1332
(dp1333
g68
(dp1334
g88
g89
ssg77
g1328
sg70
(lp1335
S'request_uri'
p1336
asbag63
(g84
g65
NtRp1337
(dp1338
g68
(dp1339
g95
g96
ssg77
g1328
sg70
(lp1340
S':'
asbag63
(g84
g65
NtRp1341
(dp1342
g68
(dp1343
sg77
g1328
sg70
(lp1344
g63
(g64
g65
NtRp1345
(dp1346
g68
(dp1347
g76
I4
ssg77
g1341
sg70
(lp1348
S'/welcome/webrtc/connect?sdp=v%3D0%0D%0Ao%3D-+921794682+2+IN+IP4+127.0.0.1%0D%0As%3D-%0D%0At%3D0+0%0D%0Aa%3Dgroup%3ABUNDLE+audio+video%0D%0Aa%3Dmsid-semantic%3A+WMS+WlsS7A6WnyDZE0sTQTMXClE3rnjMPdEuvwAS%0D%0Am%3Daudio+1+RTP%2FSAVPF+103+104+111+0+8+107+106+105+13+126%0D%0Ac%3DIN+IP4+0.0.0.0%0D%0Aa%3Drtcp%3A1+IN+IP4+0.0.0.0%0D%0Aa%3Dice-ufrag%3ARete0kGCj04MMa65%0D%0Aa%3Dice-pwd%3ADbt3iYvxM0njcH21kwKUHLI%2B%0D%0Aa%3Dice-options%3Agoogle-ice%0D%0Aa%3Dsendrecv%0D%0Aa%3Dmid%3Aaudio%0D%0Aa%3Drtcp-mux%0D%0Aa%3Dcrypto%3A1+AES_CM_128_HMAC_SHA1_80+inline%3A8tQhwXzyAb9yqvqqy8XwLhBcVCuamBaUmUnE9AX2%0D%0Aa%3Drtpmap%3A103+ISAC%2F16000%0D%0Aa%3Drtpmap%3A104+ISAC%2F32000%0D%0Aa%3Drtpmap%3A111+opus%2F48000%2F2%0D%0Aa%3Drtpmap%3A0+PCMU%2F8000%0D%0Aa%3Drtpmap%3A8+PCMA%2F8000%0D%0Aa%3Drtpmap%3A107+CN%2F48000%0D%0Aa%3Drtpmap%3A106+CN%2F32000%0D%0Aa%3Drtpmap%3A105+CN%2F16000%0D%0Aa%3Drtpmap%3A13+CN%2F8000%0D%0Aa%3Drtpmap%3A126+telephone-event%2F8000%0D%0Aa%3Dssrc%3A2658589649+cname%3APzsADJl7yb7qiUUI%0D%0Aa%3Dssrc%3A2658589649+msid%3AWlsS7A6WnyDZE0sTQTMXClE3rnjMPdEuvwAS+WlsS7A6WnyDZE0sTQTMXClE3rnjMPdEuvwASa0%0D%0Aa%3Dssrc%3A2658589649+mslabel%3AWlsS7A6WnyDZE0sTQTMXClE3rnjMPdEuvwAS%0D%0Aa%3Dssrc%3A2658589649+label%3AWlsS7A6WnyDZE0sTQTMXClE3rnjMPdEuvwASa0%0D%0Am%3Dvideo+1+RTP%2FSAVPF+100+116+117%0D%0Ac%3DIN+IP4+0.0.0.0%0D%0Aa%3Drtcp%3A1+IN+IP4+0.0.0.0%0D%0Aa%3Dice-ufrag%3ARete0kGCj04MMa65%0D%0Aa%3Dice-pwd%3ADbt3iYvxM0njcH21kwKUHLI%2B%0D%0Aa%3Dice-options%3Agoogle-ice%0D%0Aa%3Dsendrecv%0D%0Aa%3Dmid%3Avideo%0D%0Aa%3Drtcp-mux%0D%0Aa%3Dcrypto%3A1+AES_CM_128_HMAC_SHA1_80+inline%3A8tQhwXzyAb9yqvqqy8XwLhBcVCuamBaUmUnE9AX2%0D%0Aa%3Drtpmap%3A100+VP8%2F90000%0D%0Aa%3Drtpmap%3A116+red%2F90000%0D%0Aa%3Drtpmap%3A117+ulpfec%2F90000%0D%0Aa%3Dssrc%3A2628710139+cname%3APzsADJl7yb7qiUUI%0D%0Aa%3Dssrc%3A2628710139+msid%3AWlsS7A6WnyDZE0sTQTMXClE3rnjMPdEuvwAS+WlsS7A6WnyDZE0sTQTMXClE3rnjMPdEuvwASv0%0D%0Aa%3Dssrc%3A2628710139+mslabel%3AWlsS7A6WnyDZE0sTQTMXClE3rnjMPdEuvwAS%0D%0Aa%3Dssrc%3A2628710139+label%3AWlsS7A6WnyDZE0sTQTMXClE3rnjMPdEuvwASv0%0D%0A'
p1349
asbasbasbag63
(g79
g65
NtRp1350
(dp1351
g68
(dp1352
sg77
g667
sg70
(lp1353
g63
(g84
g65
NtRp1354
(dp1355
g68
(dp1356
g88
g89
ssg77
g1350
sg70
(lp1357
S'script_name'
p1358
asbag63
(g84
g65
NtRp1359
(dp1360
g68
(dp1361
g95
g96
ssg77
g1350
sg70
(lp1362
S':'
asbag63
(g84
g65
NtRp1363
(dp1364
g68
(dp1365
sg77
g1350
sg70
(lp1366
g63
(g64
g65
NtRp1367
(dp1368
g68
(dp1369
g76
I4
ssg77
g1363
sg70
(lp1370
S''
asbasbasbag63
(g79
g65
NtRp1371
(dp1372
g68
(dp1373
sg77
g667
sg70
(lp1374
g63
(g84
g65
NtRp1375
(dp1376
g68
(dp1377
g88
g89
ssg77
g1371
sg70
(lp1378
S'server_name'
p1379
asbag63
(g84
g65
NtRp1380
(dp1381
g68
(dp1382
g95
g96
ssg77
g1371
sg70
(lp1383
S':'
asbag63
(g84
g65
NtRp1384
(dp1385
g68
(dp1386
sg77
g1371
sg70
(lp1387
g63
(g64
g65
NtRp1388
(dp1389
g68
(dp1390
g76
I4
ssg77
g1384
sg70
(lp1391
S'SonTHN-Hoiio'
p1392
asbasbasbag63
(g79
g65
NtRp1393
(dp1394
g68
(dp1395
sg77
g667
sg70
(lp1396
g63
(g84
g65
NtRp1397
(dp1398
g68
(dp1399
g88
g89
ssg77
g1393
sg70
(lp1400
S'server_port'
p1401
asbag63
(g84
g65
NtRp1402
(dp1403
g68
(dp1404
g95
g96
ssg77
g1393
sg70
(lp1405
S':'
asbag63
(g84
g65
NtRp1406
(dp1407
g68
(dp1408
sg77
g1393
sg70
(lp1409
g63
(g64
g65
NtRp1410
(dp1411
g68
(dp1412
g76
I4
ssg77
g1406
sg70
(lp1413
S'8000'
p1414
asbasbasbag63
(g79
g65
NtRp1415
(dp1416
g68
(dp1417
sg77
g667
sg70
(lp1418
g63
(g84
g65
NtRp1419
(dp1420
g68
(dp1421
g88
g89
ssg77
g1415
sg70
(lp1422
S'server_protocol'
p1423
asbag63
(g84
g65
NtRp1424
(dp1425
g68
(dp1426
g95
g96
ssg77
g1415
sg70
(lp1427
S':'
asbag63
(g84
g65
NtRp1428
(dp1429
g68
(dp1430
sg77
g1415
sg70
(lp1431
g63
(g64
g65
NtRp1432
(dp1433
g68
(dp1434
g76
I4
ssg77
g1428
sg70
(lp1435
S'HTTP/1.1'
p1436
asbasbasbag63
(g79
g65
NtRp1437
(dp1438
g68
(dp1439
sg77
g667
sg70
(lp1440
g63
(g84
g65
NtRp1441
(dp1442
g68
(dp1443
g88
g89
ssg77
g1437
sg70
(lp1444
S'server_software'
p1445
asbag63
(g84
g65
NtRp1446
(dp1447
g68
(dp1448
g95
g96
ssg77
g1437
sg70
(lp1449
S':'
asbag63
(g84
g65
NtRp1450
(dp1451
g68
(dp1452
sg77
g1437
sg70
(lp1453
g63
(g64
g65
NtRp1454
(dp1455
g68
(dp1456
g76
I4
ssg77
g1450
sg70
(lp1457
S'Rocket 1.2.6'
p1458
asbasbasbag63
(g79
g65
NtRp1459
(dp1460
g68
(dp1461
sg77
g667
sg70
(lp1462
g63
(g84
g65
NtRp1463
(dp1464
g68
(dp1465
g88
g89
ssg77
g1459
sg70
(lp1466
S'web2py_path'
p1467
asbag63
(g84
g65
NtRp1468
(dp1469
g68
(dp1470
g95
g96
ssg77
g1459
sg70
(lp1471
S':'
asbag63
(g84
g65
NtRp1472
(dp1473
g68
(dp1474
sg77
g1459
sg70
(lp1475
g63
(g64
g65
NtRp1476
(dp1477
g68
(dp1478
g76
I4
ssg77
g1472
sg70
(lp1479
g714
asbasbasbag63
(g79
g65
NtRp1480
(dp1481
g68
(dp1482
sg77
g667
sg70
(lp1483
g63
(g84
g65
NtRp1484
(dp1485
g68
(dp1486
g88
g89
ssg77
g1480
sg70
(lp1487
S'web2py_version'
p1488
asbag63
(g84
g65
NtRp1489
(dp1490
g68
(dp1491
g95
g96
ssg77
g1480
sg70
(lp1492
S':'
asbag63
(g84
g65
NtRp1493
(dp1494
g68
(dp1495
sg77
g1480
sg70
(lp1496
g63
(g64
g65
NtRp1497
(dp1498
g68
(dp1499
g76
I4
ssg77
g1493
sg70
(lp1500
g63
(g72
g65
NtRp1501
(dp1502
g68
(dp1503
g76
I3
ssg77
Nsg70
(lp1504
g63
(g79
g65
NtRp1505
(dp1506
g68
(dp1507
sg77
g1501
sg70
(lp1508
g63
(g84
g65
NtRp1509
(dp1510
g68
(dp1511
sg77
g1505
sg70
(lp1512
g63
(g64
g65
NtRp1513
(dp1514
g68
(dp1515
g76
I3
ssg77
g1509
sg70
(lp1516
S'2'
asbasbasbag63
(g79
g65
NtRp1517
(dp1518
g68
(dp1519
sg77
g1501
sg70
(lp1520
g63
(g84
g65
NtRp1521
(dp1522
g68
(dp1523
sg77
g1517
sg70
(lp1524
g63
(g64
g65
NtRp1525
(dp1526
g68
(dp1527
g76
I3
ssg77
g1521
sg70
(lp1528
S'4'
asbasbasbag63
(g79
g65
NtRp1529
(dp1530
g68
(dp1531
sg77
g1501
sg70
(lp1532
g63
(g84
g65
NtRp1533
(dp1534
g68
(dp1535
sg77
g1529
sg70
(lp1536
g63
(g64
g65
NtRp1537
(dp1538
g68
(dp1539
g76
I3
ssg77
g1533
sg70
(lp1540
S'1'
asbasbasbag63
(g79
g65
NtRp1541
(dp1542
g68
(dp1543
sg77
g1501
sg70
(lp1544
g63
(g84
g65
NtRp1545
(dp1546
g68
(dp1547
sg77
g1541
sg70
(lp1548
g63
(g64
g65
NtRp1549
(dp1550
g68
(dp1551
g76
I3
ssg77
g1545
sg70
(lp1552
S'alpha.1'
p1553
asbasbasbag63
(g79
g65
NtRp1554
(dp1555
g68
(dp1556
sg77
g1501
sg70
(lp1557
g63
(g84
g65
NtRp1558
(dp1559
g68
(dp1560
sg77
g1554
sg70
(lp1561
g63
(g64
g65
NtRp1562
(dp1563
g68
(dp1564
g76
I3
ssg77
g1558
sg70
(lp1565
S'datetime.datetime(2012, 12, 20, 18, 16, 2)'
p1566
asbasbasbasbasbasbasbag63
(g79
g65
NtRp1567
(dp1568
g68
(dp1569
sg77
g667
sg70
(lp1570
g63
(g84
g65
NtRp1571
(dp1572
g68
(dp1573
g88
g89
ssg77
g1567
sg70
(lp1574
S'wsgi_errors'
p1575
asbag63
(g84
g65
NtRp1576
(dp1577
g68
(dp1578
g95
g96
ssg77
g1567
sg70
(lp1579
S':'
asbag63
(g84
g65
NtRp1580
(dp1581
g68
(dp1582
sg77
g1567
sg70
(lp1583
g63
(g64
g65
NtRp1584
(dp1585
g68
(dp1586
g76
I4
ssg77
g1580
sg70
(lp1587
S"<open file '<stderr>', mode 'w' at 0x00000000005961E0>"
p1588
asbasbasbag63
(g79
g65
NtRp1589
(dp1590
g68
(dp1591
sg77
g667
sg70
(lp1592
g63
(g84
g65
NtRp1593
(dp1594
g68
(dp1595
g88
g89
ssg77
g1589
sg70
(lp1596
S'wsgi_file_wrapper'
p1597
asbag63
(g84
g65
NtRp1598
(dp1599
g68
(dp1600
g95
g96
ssg77
g1589
sg70
(lp1601
S':'
asbag63
(g84
g65
NtRp1602
(dp1603
g68
(dp1604
sg77
g1589
sg70
(lp1605
g63
(g64
g65
NtRp1606
(dp1607
g68
(dp1608
g76
I4
ssg77
g1602
sg70
(lp1609
S'<class wsgiref.util.FileWrapper at 0x00000000036ECEE8>'
p1610
asbasbasbag63
(g79
g65
NtRp1611
(dp1612
g68
(dp1613
sg77
g667
sg70
(lp1614
g63
(g84
g65
NtRp1615
(dp1616
g68
(dp1617
g88
g89
ssg77
g1611
sg70
(lp1618
S'wsgi_input'
p1619
asbag63
(g84
g65
NtRp1620
(dp1621
g68
(dp1622
g95
g96
ssg77
g1611
sg70
(lp1623
S':'
asbag63
(g84
g65
NtRp1624
(dp1625
g68
(dp1626
sg77
g1611
sg70
(lp1627
g63
(g64
g65
NtRp1628
(dp1629
g68
(dp1630
g76
I4
ssg77
g1624
sg70
(lp1631
S'<socket._fileobject object at 0x0000000004EEA228>'
p1632
asbasbasbag63
(g79
g65
NtRp1633
(dp1634
g68
(dp1635
sg77
g667
sg70
(lp1636
g63
(g84
g65
NtRp1637
(dp1638
g68
(dp1639
g88
g89
ssg77
g1633
sg70
(lp1640
S'wsgi_multiprocess'
p1641
asbag63
(g84
g65
NtRp1642
(dp1643
g68
(dp1644
g95
g96
ssg77
g1633
sg70
(lp1645
S':'
asbag63
(g84
g65
NtRp1646
(dp1647
g68
(dp1648
sg77
g1633
sg70
(lp1649
g63
(g64
g65
NtRp1650
(dp1651
g68
(dp1652
g76
I4
ssg77
g1646
sg70
(lp1653
g805
asbasbasbag63
(g79
g65
NtRp1654
(dp1655
g68
(dp1656
sg77
g667
sg70
(lp1657
g63
(g84
g65
NtRp1658
(dp1659
g68
(dp1660
g88
g89
ssg77
g1654
sg70
(lp1661
S'wsgi_multithread'
p1662
asbag63
(g84
g65
NtRp1663
(dp1664
g68
(dp1665
g95
g96
ssg77
g1654
sg70
(lp1666
S':'
asbag63
(g84
g65
NtRp1667
(dp1668
g68
(dp1669
sg77
g1654
sg70
(lp1670
g63
(g64
g65
NtRp1671
(dp1672
g68
(dp1673
g76
I4
ssg77
g1667
sg70
(lp1674
g106
asbasbasbag63
(g79
g65
NtRp1675
(dp1676
g68
(dp1677
sg77
g667
sg70
(lp1678
g63
(g84
g65
NtRp1679
(dp1680
g68
(dp1681
g88
g89
ssg77
g1675
sg70
(lp1682
S'wsgi_run_once'
p1683
asbag63
(g84
g65
NtRp1684
(dp1685
g68
(dp1686
g95
g96
ssg77
g1675
sg70
(lp1687
S':'
asbag63
(g84
g65
NtRp1688
(dp1689
g68
(dp1690
sg77
g1675
sg70
(lp1691
g63
(g64
g65
NtRp1692
(dp1693
g68
(dp1694
g76
I4
ssg77
g1688
sg70
(lp1695
g805
asbasbasbag63
(g79
g65
NtRp1696
(dp1697
g68
(dp1698
sg77
g667
sg70
(lp1699
g63
(g84
g65
NtRp1700
(dp1701
g68
(dp1702
g88
g89
ssg77
g1696
sg70
(lp1703
S'wsgi_url_scheme'
p1704
asbag63
(g84
g65
NtRp1705
(dp1706
g68
(dp1707
g95
g96
ssg77
g1696
sg70
(lp1708
S':'
asbag63
(g84
g65
NtRp1709
(dp1710
g68
(dp1711
sg77
g1696
sg70
(lp1712
g63
(g64
g65
NtRp1713
(dp1714
g68
(dp1715
g76
I4
ssg77
g1709
sg70
(lp1716
S'http'
p1717
asbasbasbag63
(g79
g65
NtRp1718
(dp1719
g68
(dp1720
sg77
g667
sg70
(lp1721
g63
(g84
g65
NtRp1722
(dp1723
g68
(dp1724
g88
g89
ssg77
g1718
sg70
(lp1725
S'wsgi_version'
p1726
asbag63
(g84
g65
NtRp1727
(dp1728
g68
(dp1729
g95
g96
ssg77
g1718
sg70
(lp1730
S':'
asbag63
(g84
g65
NtRp1731
(dp1732
g68
(dp1733
sg77
g1718
sg70
(lp1734
g63
(g64
g65
NtRp1735
(dp1736
g68
(dp1737
g76
I4
ssg77
g1731
sg70
(lp1738
g63
(g72
g65
NtRp1739
(dp1740
g68
(dp1741
g76
I3
ssg77
Nsg70
(lp1742
g63
(g79
g65
NtRp1743
(dp1744
g68
(dp1745
sg77
g1739
sg70
(lp1746
g63
(g84
g65
NtRp1747
(dp1748
g68
(dp1749
sg77
g1743
sg70
(lp1750
g63
(g64
g65
NtRp1751
(dp1752
g68
(dp1753
g76
I3
ssg77
g1747
sg70
(lp1754
S'1'
asbasbasbag63
(g79
g65
NtRp1755
(dp1756
g68
(dp1757
sg77
g1739
sg70
(lp1758
g63
(g84
g65
NtRp1759
(dp1760
g68
(dp1761
sg77
g1755
sg70
(lp1762
g63
(g64
g65
NtRp1763
(dp1764
g68
(dp1765
g76
I3
ssg77
g1759
sg70
(lp1766
S'0'
asbasbasbasbasbasbasbasbasbasbasbag63
(g79
g65
NtRp1767
(dp1768
g68
(dp1769
sg77
g73
sg70
(lp1770
g63
(g84
g65
NtRp1771
(dp1772
g68
(dp1773
g88
g89
ssg77
g1767
sg70
(lp1774
S'extension'
p1775
asbag63
(g84
g65
NtRp1776
(dp1777
g68
(dp1778
g95
g96
ssg77
g1767
sg70
(lp1779
S':'
asbag63
(g84
g65
NtRp1780
(dp1781
g68
(dp1782
sg77
g1767
sg70
(lp1783
g63
(g64
g65
NtRp1784
(dp1785
g68
(dp1786
g76
I5
ssg77
g1780
sg70
(lp1787
S'html'
p1788
asbasbasbag63
(g79
g65
NtRp1789
(dp1790
g68
(dp1791
sg77
g73
sg70
(lp1792
g63
(g84
g65
NtRp1793
(dp1794
g68
(dp1795
g88
g89
ssg77
g1789
sg70
(lp1796
S'folder'
p1797
asbag63
(g84
g65
NtRp1798
(dp1799
g68
(dp1800
g95
g96
ssg77
g1789
sg70
(lp1801
S':'
asbag63
(g84
g65
NtRp1802
(dp1803
g68
(dp1804
sg77
g1789
sg70
(lp1805
g63
(g64
g65
NtRp1806
(dp1807
g68
(dp1808
g76
I5
ssg77
g1802
sg70
(lp1809
S'D:\\Work\\webRTC\\web2py\\applications\\welcome\\'
p1810
asbasbasbag63
(g79
g65
NtRp1811
(dp1812
g68
(dp1813
sg77
g73
sg70
(lp1814
g63
(g84
g65
NtRp1815
(dp1816
g68
(dp1817
g88
g89
ssg77
g1811
sg70
(lp1818
S'function'
p1819
asbag63
(g84
g65
NtRp1820
(dp1821
g68
(dp1822
g95
g96
ssg77
g1811
sg70
(lp1823
S':'
asbag63
(g84
g65
NtRp1824
(dp1825
g68
(dp1826
sg77
g1811
sg70
(lp1827
g63
(g64
g65
NtRp1828
(dp1829
g68
(dp1830
g76
I5
ssg77
g1824
sg70
(lp1831
S'connect'
p1832
asbasbasbag63
(g79
g65
NtRp1833
(dp1834
g68
(dp1835
sg77
g73
sg70
(lp1836
g63
(g84
g65
NtRp1837
(dp1838
g68
(dp1839
g88
g89
ssg77
g1833
sg70
(lp1840
S'get_vars'
p1841
asbag63
(g84
g65
NtRp1842
(dp1843
g68
(dp1844
g95
g96
ssg77
g1833
sg70
(lp1845
S':'
asbag63
(g84
g65
NtRp1846
(dp1847
g68
(dp1848
sg77
g1833
sg70
(lp1849
g63
(g64
g65
NtRp1850
(dp1851
g68
(dp1852
g76
I5
ssg77
g1846
sg70
(lp1853
g63
(g72
g65
NtRp1854
(dp1855
g68
(dp1856
g76
I4
ssg77
Nsg70
(lp1857
g63
(g79
g65
NtRp1858
(dp1859
g68
(dp1860
sg77
g1854
sg70
(lp1861
g63
(g84
g65
NtRp1862
(dp1863
g68
(dp1864
g88
g89
ssg77
g1858
sg70
(lp1865
S'sdp'
p1866
asbag63
(g84
g65
NtRp1867
(dp1868
g68
(dp1869
g95
g96
ssg77
g1858
sg70
(lp1870
S':'
asbag63
(g84
g65
NtRp1871
(dp1872
g68
(dp1873
sg77
g1858
sg70
(lp1874
g63
(g64
g65
NtRp1875
(dp1876
g68
(dp1877
g76
I4
ssg77
g1871
sg70
(lp1878
S'v=0\r\no=- 921794682 2 IN IP4 127.0.0.1\r\ns=-\r\nt=0 0\r\na=group:BUNDLE audio video\r\na=msid-semantic: WMS WlsS7A6WnyDZE0sTQTMXClE3rnjMPdEuvwAS\r\nm=audio 1 RTP/SAVPF 103 104 111 0 8 107 106 105 13 126\r\nc=IN IP4 0.0.0.0\r\na=rtcp:1 IN IP4 0.0.0.0\r\na=ice-ufrag:Rete0kGCj04MMa65\r\na=ice-pwd:Dbt3iYvxM0njcH21kwKUHLI+\r\na=ice-options:google-ice\r\na=sendrecv\r\na=mid:audio\r\na=rtcp-mux\r\na=crypto:1 AES_CM_128_HMAC_SHA1_80 inline:8tQhwXzyAb9yqvqqy8XwLhBcVCuamBaUmUnE9AX2\r\na=rtpmap:103 ISAC/16000\r\na=rtpmap:104 ISAC/32000\r\na=rtpmap:111 opus/48000/2\r\na=rtpmap:0 PCMU/8000\r\na=rtpmap:8 PCMA/8000\r\na=rtpmap:107 CN/48000\r\na=rtpmap:106 CN/32000\r\na=rtpmap:105 CN/16000\r\na=rtpmap:13 CN/8000\r\na=rtpmap:126 telephone-event/8000\r\na=ssrc:2658589649 cname:PzsADJl7yb7qiUUI\r\na=ssrc:2658589649 msid:WlsS7A6WnyDZE0sTQTMXClE3rnjMPdEuvwAS WlsS7A6WnyDZE0sTQTMXClE3rnjMPdEuvwASa0\r\na=ssrc:2658589649 mslabel:WlsS7A6WnyDZE0sTQTMXClE3rnjMPdEuvwAS\r\na=ssrc:2658589649 label:WlsS7A6WnyDZE0sTQTMXClE3rnjMPdEuvwASa0\r\nm=video 1 RTP/SAVPF 100 116 117\r\nc=IN IP4 0.0.0.0\r\na=rtcp:1 IN IP4 0.0.0.0\r\na=ice-ufrag:Rete0kGCj04MMa65\r\na=ice-pwd:Dbt3iYvxM0njcH21kwKUHLI+\r\na=ice-options:google-ice\r\na=sendrecv\r\na=mid:video\r\na=rtcp-mux\r\na=crypto:1 AES_CM_128_HMAC_SHA1_80 inline:8tQhwXzyAb9yqvqqy8XwLhBcVCuamBaUmUnE9AX2\r\na=rtpmap:100 VP8/90000\r\na=rtpmap:116 red/90000\r\na=rtpmap:117 ulpfec/90000\r\na=ssrc:2628710139 cname:PzsADJl7yb7qiUUI\r\na=ssrc:2628710139 msid:WlsS7A6WnyDZE0sTQTMXClE3rnjMPdEuvwAS WlsS7A6WnyDZE0sTQTMXClE3rnjMPdEuvwASv0\r\na=ssrc:2628710139 mslabel:WlsS7A6WnyDZE0sTQTMXClE3rnjMPdEuvwAS\r\na=ssrc:2628710139 label:WlsS7A6WnyDZE0sTQTMXClE3rnjMPdEuvwASv0\r\n'
p1879
asbasbasbasbasbasbasbag63
(g79
g65
NtRp1880
(dp1881
g68
(dp1882
sg77
g73
sg70
(lp1883
g63
(g84
g65
NtRp1884
(dp1885
g68
(dp1886
g88
g89
ssg77
g1880
sg70
(lp1887
S'global_settings'
p1888
asbag63
(g84
g65
NtRp1889
(dp1890
g68
(dp1891
g95
g96
ssg77
g1880
sg70
(lp1892
S':'
asbag63
(g84
g65
NtRp1893
(dp1894
g68
(dp1895
sg77
g1880
sg70
(lp1896
g63
(g64
g65
NtRp1897
(dp1898
g68
(dp1899
g76
I5
ssg77
g1893
sg70
(lp1900
g63
(g72
g65
NtRp1901
(dp1902
g68
(dp1903
g76
I4
ssg77
Nsg70
(lp1904
g63
(g79
g65
NtRp1905
(dp1906
g68
(dp1907
sg77
g1901
sg70
(lp1908
g63
(g84
g65
NtRp1909
(dp1910
g68
(dp1911
g88
g89
ssg77
g1905
sg70
(lp1912
g679
asbag63
(g84
g65
NtRp1913
(dp1914
g68
(dp1915
g95
g96
ssg77
g1905
sg70
(lp1916
S':'
asbag63
(g84
g65
NtRp1917
(dp1918
g68
(dp1919
sg77
g1905
sg70
(lp1920
g63
(g64
g65
NtRp1921
(dp1922
g68
(dp1923
g76
I4
ssg77
g1917
sg70
(lp1924
S"set(['D:\\\\Work\\\\webRTC\\\\web2py\\\\applications\\\\welcome\\\\', 'D:\\\\Work\\\\webRTC\\\\web2py\\\\applications\\\\admin\\\\'])"
p1925
asbasbasbag63
(g79
g65
NtRp1926
(dp1927
g68
(dp1928
sg77
g1901
sg70
(lp1929
g63
(g84
g65
NtRp1930
(dp1931
g68
(dp1932
g88
g89
ssg77
g1926
sg70
(lp1933
g701
asbag63
(g84
g65
NtRp1934
(dp1935
g68
(dp1936
g95
g96
ssg77
g1926
sg70
(lp1937
S':'
asbag63
(g84
g65
NtRp1938
(dp1939
g68
(dp1940
sg77
g1926
sg70
(lp1941
g63
(g64
g65
NtRp1942
(dp1943
g68
(dp1944
g76
I4
ssg77
g1938
sg70
(lp1945
g714
asbasbasbag63
(g79
g65
NtRp1946
(dp1947
g68
(dp1948
sg77
g1901
sg70
(lp1949
g63
(g84
g65
NtRp1950
(dp1951
g68
(dp1952
g88
g89
ssg77
g1946
sg70
(lp1953
g723
asbag63
(g84
g65
NtRp1954
(dp1955
g68
(dp1956
g95
g96
ssg77
g1946
sg70
(lp1957
S':'
asbag63
(g84
g65
NtRp1958
(dp1959
g68
(dp1960
sg77
g1946
sg70
(lp1961
g63
(g64
g65
NtRp1962
(dp1963
g68
(dp1964
g76
I4
ssg77
g1958
sg70
(lp1965
g63
(g72
g65
NtRp1966
(dp1967
g68
(dp1968
g76
I3
ssg77
Nsg70
(lp1969
sbasbasbasbag63
(g79
g65
NtRp1970
(dp1971
g68
(dp1972
sg77
g1901
sg70
(lp1973
g63
(g84
g65
NtRp1974
(dp1975
g68
(dp1976
g88
g89
ssg77
g1970
sg70
(lp1977
g748
asbag63
(g84
g65
NtRp1978
(dp1979
g68
(dp1980
g95
g96
ssg77
g1970
sg70
(lp1981
S':'
asbag63
(g84
g65
NtRp1982
(dp1983
g68
(dp1984
sg77
g1970
sg70
(lp1985
g63
(g64
g65
NtRp1986
(dp1987
g68
(dp1988
g76
I4
ssg77
g1982
sg70
(lp1989
S"<Values at 0x3769cc8: {'verbose': False, 'ip': '127.0.0.1', 'with_scheduler': False, 'ips': ['2001:0:9d38:6ab8:3c49:1eb9:3f57:ff99', 'fe80::3c49:1eb9:3f57:ff99%14', '192.168.0.102', 'fe80::91ec:31f9:5083:69f3%15'], 'shutdown_timeout': 5, 'taskbar': False, 'port': 8000, 'maxthreads': None, 'softcron': False, 'server_name': 'SonTHN-Hoiio', 'bpython': False, 'nogui': False, 'pid_filename': 'httpserver.pid', 'extcron': False, 'runcron': False, 'run_system_tests': False, 'test': None, 'folder': 'D:\\\\Work\\\\webRTC\\\\web2py', 'config': '', 'import_models': False, 'winservice': '', 'shell': None, 'run': '', 'log_filename': 'httpserver.log', 'debuglevel': 30, 'args': [''], 'socket_timeout': 5, 'ssl_ca_certificate': None, 'scheduler': None, 'profiler_filename': None, 'ssl_private_key': '', 'scheduler_groups': None, 'password': '<ask>', 'request_queue_size': 5, 'ssl_certificate': '', 'cronjob': False, 'numthreads': None, 'quiet': False, 'interfaces': None, 'minthreads': None, 'timeout': 10, 'plain': False, 'nobanner': False}>"
p1990
asbasbasbag63
(g79
g65
NtRp1991
(dp1992
g68
(dp1993
sg77
g1901
sg70
(lp1994
g63
(g84
g65
NtRp1995
(dp1996
g68
(dp1997
g88
g89
ssg77
g1991
sg70
(lp1998
g770
asbag63
(g84
g65
NtRp1999
(dp2000
g68
(dp2001
g95
g96
ssg77
g1991
sg70
(lp2002
S':'
asbag63
(g84
g65
NtRp2003
(dp2004
g68
(dp2005
sg77
g1991
sg70
(lp2006
g63
(g64
g65
NtRp2007
(dp2008
g68
(dp2009
g76
I4
ssg77
g2003
sg70
(lp2010
S'set([])'
p2011
asbasbasbag63
(g79
g65
NtRp2012
(dp2013
g68
(dp2014
sg77
g1901
sg70
(lp2015
g63
(g84
g65
NtRp2016
(dp2017
g68
(dp2018
g88
g89
ssg77
g2012
sg70
(lp2019
g792
asbag63
(g84
g65
NtRp2020
(dp2021
g68
(dp2022
g95
g96
ssg77
g2012
sg70
(lp2023
S':'
asbag63
(g84
g65
NtRp2024
(dp2025
g68
(dp2026
sg77
g2012
sg70
(lp2027
g63
(g64
g65
NtRp2028
(dp2029
g68
(dp2030
g76
I4
ssg77
g2024
sg70
(lp2031
g805
asbasbasbag63
(g79
g65
NtRp2032
(dp2033
g68
(dp2034
sg77
g1901
sg70
(lp2035
g63
(g84
g65
NtRp2036
(dp2037
g68
(dp2038
g88
g89
ssg77
g2032
sg70
(lp2039
g814
asbag63
(g84
g65
NtRp2040
(dp2041
g68
(dp2042
g95
g96
ssg77
g2032
sg70
(lp2043
S':'
asbag63
(g84
g65
NtRp2044
(dp2045
g68
(dp2046
sg77
g2032
sg70
(lp2047
g63
(g64
g65
NtRp2048
(dp2049
g68
(dp2050
g76
I4
ssg77
g2044
sg70
(lp2051
g827
asbasbasbag63
(g79
g65
NtRp2052
(dp2053
g68
(dp2054
sg77
g1901
sg70
(lp2055
g63
(g84
g65
NtRp2056
(dp2057
g68
(dp2058
g88
g89
ssg77
g2052
sg70
(lp2059
g1056
asbag63
(g84
g65
NtRp2060
(dp2061
g68
(dp2062
g95
g96
ssg77
g2052
sg70
(lp2063
S':'
asbag63
(g84
g65
NtRp2064
(dp2065
g68
(dp2066
sg77
g2052
sg70
(lp2067
g63
(g64
g65
NtRp2068
(dp2069
g68
(dp2070
g76
I4
ssg77
g2064
sg70
(lp2071
g805
asbasbasbag63
(g79
g65
NtRp2072
(dp2073
g68
(dp2074
sg77
g1901
sg70
(lp2075
g63
(g84
g65
NtRp2076
(dp2077
g68
(dp2078
g88
g89
ssg77
g2072
sg70
(lp2079
g1077
asbag63
(g84
g65
NtRp2080
(dp2081
g68
(dp2082
g95
g96
ssg77
g2072
sg70
(lp2083
S':'
asbag63
(g84
g65
NtRp2084
(dp2085
g68
(dp2086
sg77
g2072
sg70
(lp2087
g63
(g64
g65
NtRp2088
(dp2089
g68
(dp2090
g76
I4
ssg77
g2084
sg70
(lp2091
g805
asbasbasbag63
(g79
g65
NtRp2092
(dp2093
g68
(dp2094
sg77
g1901
sg70
(lp2095
g63
(g84
g65
NtRp2096
(dp2097
g68
(dp2098
g88
g89
ssg77
g2092
sg70
(lp2099
g1098
asbag63
(g84
g65
NtRp2100
(dp2101
g68
(dp2102
g95
g96
ssg77
g2092
sg70
(lp2103
S':'
asbag63
(g84
g65
NtRp2104
(dp2105
g68
(dp2106
sg77
g2092
sg70
(lp2107
g63
(g64
g65
NtRp2108
(dp2109
g68
(dp2110
g76
I4
ssg77
g2104
sg70
(lp2111
g63
(g72
g65
NtRp2112
(dp2113
g68
(dp2114
g76
I3
ssg77
Nsg70
(lp2115
g63
(g79
g65
NtRp2116
(dp2117
g68
(dp2118
sg77
g2112
sg70
(lp2119
g63
(g84
g65
NtRp2120
(dp2121
g68
(dp2122
sg77
g2116
sg70
(lp2123
g63
(g64
g65
NtRp2124
(dp2125
g68
(dp2126
g76
I3
ssg77
g2120
sg70
(lp2127
g1127
asbasbasbag63
(g79
g65
NtRp2128
(dp2129
g68
(dp2130
sg77
g2112
sg70
(lp2131
g63
(g84
g65
NtRp2132
(dp2133
g68
(dp2134
sg77
g2128
sg70
(lp2135
g63
(g64
g65
NtRp2136
(dp2137
g68
(dp2138
g76
I3
ssg77
g2132
sg70
(lp2139
g1140
asbasbasbag63
(g79
g65
NtRp2140
(dp2141
g68
(dp2142
sg77
g2112
sg70
(lp2143
g63
(g84
g65
NtRp2144
(dp2145
g68
(dp2146
sg77
g2140
sg70
(lp2147
g63
(g64
g65
NtRp2148
(dp2149
g68
(dp2150
g76
I3
ssg77
g2144
sg70
(lp2151
g1153
asbasbasbag63
(g79
g65
NtRp2152
(dp2153
g68
(dp2154
sg77
g2112
sg70
(lp2155
g63
(g84
g65
NtRp2156
(dp2157
g68
(dp2158
sg77
g2152
sg70
(lp2159
g63
(g64
g65
NtRp2160
(dp2161
g68
(dp2162
g76
I3
ssg77
g2156
sg70
(lp2163
g1166
asbasbasbag63
(g79
g65
NtRp2164
(dp2165
g68
(dp2166
sg77
g2112
sg70
(lp2167
g63
(g84
g65
NtRp2168
(dp2169
g68
(dp2170
sg77
g2164
sg70
(lp2171
g63
(g64
g65
NtRp2172
(dp2173
g68
(dp2174
g76
I3
ssg77
g2168
sg70
(lp2175
g1179
asbasbasbag63
(g79
g65
NtRp2176
(dp2177
g68
(dp2178
sg77
g2112
sg70
(lp2179
g63
(g84
g65
NtRp2180
(dp2181
g68
(dp2182
sg77
g2176
sg70
(lp2183
g63
(g64
g65
NtRp2184
(dp2185
g68
(dp2186
g76
I3
ssg77
g2180
sg70
(lp2187
g1192
asbasbasbag63
(g79
g65
NtRp2188
(dp2189
g68
(dp2190
sg77
g2112
sg70
(lp2191
g63
(g84
g65
NtRp2192
(dp2193
g68
(dp2194
sg77
g2188
sg70
(lp2195
g63
(g64
g65
NtRp2196
(dp2197
g68
(dp2198
g76
I3
ssg77
g2192
sg70
(lp2199
g1205
asbasbasbag63
(g79
g65
NtRp2200
(dp2201
g68
(dp2202
sg77
g2112
sg70
(lp2203
g63
(g84
g65
NtRp2204
(dp2205
g68
(dp2206
sg77
g2200
sg70
(lp2207
g63
(g64
g65
NtRp2208
(dp2209
g68
(dp2210
g76
I3
ssg77
g2204
sg70
(lp2211
g1218
asbasbasbasbasbasbasbag63
(g79
g65
NtRp2212
(dp2213
g68
(dp2214
sg77
g1901
sg70
(lp2215
g63
(g84
g65
NtRp2216
(dp2217
g68
(dp2218
g88
g89
ssg77
g2212
sg70
(lp2219
g1488
asbag63
(g84
g65
NtRp2220
(dp2221
g68
(dp2222
g95
g96
ssg77
g2212
sg70
(lp2223
S':'
asbag63
(g84
g65
NtRp2224
(dp2225
g68
(dp2226
sg77
g2212
sg70
(lp2227
g63
(g64
g65
NtRp2228
(dp2229
g68
(dp2230
g76
I4
ssg77
g2224
sg70
(lp2231
g63
(g72
g65
NtRp2232
(dp2233
g68
(dp2234
g76
I3
ssg77
Nsg70
(lp2235
g63
(g79
g65
NtRp2236
(dp2237
g68
(dp2238
sg77
g2232
sg70
(lp2239
g63
(g84
g65
NtRp2240
(dp2241
g68
(dp2242
sg77
g2236
sg70
(lp2243
g63
(g64
g65
NtRp2244
(dp2245
g68
(dp2246
g76
I3
ssg77
g2240
sg70
(lp2247
S'2'
asbasbasbag63
(g79
g65
NtRp2248
(dp2249
g68
(dp2250
sg77
g2232
sg70
(lp2251
g63
(g84
g65
NtRp2252
(dp2253
g68
(dp2254
sg77
g2248
sg70
(lp2255
g63
(g64
g65
NtRp2256
(dp2257
g68
(dp2258
g76
I3
ssg77
g2252
sg70
(lp2259
S'4'
asbasbasbag63
(g79
g65
NtRp2260
(dp2261
g68
(dp2262
sg77
g2232
sg70
(lp2263
g63
(g84
g65
NtRp2264
(dp2265
g68
(dp2266
sg77
g2260
sg70
(lp2267
g63
(g64
g65
NtRp2268
(dp2269
g68
(dp2270
g76
I3
ssg77
g2264
sg70
(lp2271
S'1'
asbasbasbag63
(g79
g65
NtRp2272
(dp2273
g68
(dp2274
sg77
g2232
sg70
(lp2275
g63
(g84
g65
NtRp2276
(dp2277
g68
(dp2278
sg77
g2272
sg70
(lp2279
g63
(g64
g65
NtRp2280
(dp2281
g68
(dp2282
g76
I3
ssg77
g2276
sg70
(lp2283
g1553
asbasbasbag63
(g79
g65
NtRp2284
(dp2285
g68
(dp2286
sg77
g2232
sg70
(lp2287
g63
(g84
g65
NtRp2288
(dp2289
g68
(dp2290
sg77
g2284
sg70
(lp2291
g63
(g64
g65
NtRp2292
(dp2293
g68
(dp2294
g76
I3
ssg77
g2288
sg70
(lp2295
S'datetime.datetime(2012, 12, 20, 18, 16, 2)'
p2296
asbasbasbasbasbasbasbasbasbasbasbag63
(g79
g65
NtRp2297
(dp2298
g68
(dp2299
sg77
g73
sg70
(lp2300
g63
(g84
g65
NtRp2301
(dp2302
g68
(dp2303
g88
g89
ssg77
g2297
sg70
(lp2304
S'is_https'
p2305
asbag63
(g84
g65
NtRp2306
(dp2307
g68
(dp2308
g95
g96
ssg77
g2297
sg70
(lp2309
S':'
asbag63
(g84
g65
NtRp2310
(dp2311
g68
(dp2312
sg77
g2297
sg70
(lp2313
g63
(g64
g65
NtRp2314
(dp2315
g68
(dp2316
g76
I5
ssg77
g2310
sg70
(lp2317
g805
asbasbasbag63
(g79
g65
NtRp2318
(dp2319
g68
(dp2320
sg77
g73
sg70
(lp2321
g63
(g84
g65
NtRp2322
(dp2323
g68
(dp2324
g88
g89
ssg77
g2318
sg70
(lp2325
S'is_local'
p2326
asbag63
(g84
g65
NtRp2327
(dp2328
g68
(dp2329
g95
g96
ssg77
g2318
sg70
(lp2330
S':'
asbag63
(g84
g65
NtRp2331
(dp2332
g68
(dp2333
sg77
g2318
sg70
(lp2334
g63
(g64
g65
NtRp2335
(dp2336
g68
(dp2337
g76
I5
ssg77
g2331
sg70
(lp2338
g106
asbasbasbag63
(g79
g65
NtRp2339
(dp2340
g68
(dp2341
sg77
g73
sg70
(lp2342
g63
(g84
g65
NtRp2343
(dp2344
g68
(dp2345
g88
g89
ssg77
g2339
sg70
(lp2346
S'is_restful'
p2347
asbag63
(g84
g65
NtRp2348
(dp2349
g68
(dp2350
g95
g96
ssg77
g2339
sg70
(lp2351
S':'
asbag63
(g84
g65
NtRp2352
(dp2353
g68
(dp2354
sg77
g2339
sg70
(lp2355
g63
(g64
g65
NtRp2356
(dp2357
g68
(dp2358
g76
I5
ssg77
g2352
sg70
(lp2359
g805
asbasbasbag63
(g79
g65
NtRp2360
(dp2361
g68
(dp2362
sg77
g73
sg70
(lp2363
g63
(g84
g65
NtRp2364
(dp2365
g68
(dp2366
g88
g89
ssg77
g2360
sg70
(lp2367
S'now'
p2368
asbag63
(g84
g65
NtRp2369
(dp2370
g68
(dp2371
g95
g96
ssg77
g2360
sg70
(lp2372
S':'
asbag63
(g84
g65
NtRp2373
(dp2374
g68
(dp2375
sg77
g2360
sg70
(lp2376
g63
(g64
g65
NtRp2377
(dp2378
g68
(dp2379
g76
I5
ssg77
g2373
sg70
(lp2380
S'datetime.datetime(2013, 1, 21, 9, 31, 35, 46000)'
p2381
asbasbasbag63
(g79
g65
NtRp2382
(dp2383
g68
(dp2384
sg77
g73
sg70
(lp2385
g63
(g84
g65
NtRp2386
(dp2387
g68
(dp2388
g88
g89
ssg77
g2382
sg70
(lp2389
S'post_vars'
p2390
asbag63
(g84
g65
NtRp2391
(dp2392
g68
(dp2393
g95
g96
ssg77
g2382
sg70
(lp2394
S':'
asbag63
(g84
g65
NtRp2395
(dp2396
g68
(dp2397
sg77
g2382
sg70
(lp2398
g63
(g64
g65
NtRp2399
(dp2400
g68
(dp2401
g76
I5
ssg77
g2395
sg70
(lp2402
g63
(g72
g65
NtRp2403
(dp2404
g68
(dp2405
g76
I4
ssg77
Nsg70
(lp2406
sbasbasbasbag63
(g79
g65
NtRp2407
(dp2408
g68
(dp2409
sg77
g73
sg70
(lp2410
g63
(g84
g65
NtRp2411
(dp2412
g68
(dp2413
g88
g89
ssg77
g2407
sg70
(lp2414
S'raw_args'
p2415
asbag63
(g84
g65
NtRp2416
(dp2417
g68
(dp2418
g95
g96
ssg77
g2407
sg70
(lp2419
S':'
asbag63
(g84
g65
NtRp2420
(dp2421
g68
(dp2422
sg77
g2407
sg70
(lp2423
g63
(g64
g65
NtRp2424
(dp2425
g68
(dp2426
g76
I5
ssg77
g2420
sg70
(lp2427
S''
asbasbasbag63
(g79
g65
NtRp2428
(dp2429
g68
(dp2430
sg77
g73
sg70
(lp2431
g63
(g84
g65
NtRp2432
(dp2433
g68
(dp2434
g88
g89
ssg77
g2428
sg70
(lp2435
S'raw_extension'
p2436
asbag63
(g84
g65
NtRp2437
(dp2438
g68
(dp2439
g95
g96
ssg77
g2428
sg70
(lp2440
S':'
asbag63
(g84
g65
NtRp2441
(dp2442
g68
(dp2443
sg77
g2428
sg70
(lp2444
g63
(g64
g65
NtRp2445
(dp2446
g68
(dp2447
g76
I5
ssg77
g2441
sg70
(lp2448
S'None'
p2449
asbasbasbag63
(g79
g65
NtRp2450
(dp2451
g68
(dp2452
sg77
g73
sg70
(lp2453
g63
(g84
g65
NtRp2454
(dp2455
g68
(dp2456
g88
g89
ssg77
g2450
sg70
(lp2457
S'url'
p2458
asbag63
(g84
g65
NtRp2459
(dp2460
g68
(dp2461
g95
g96
ssg77
g2450
sg70
(lp2462
S':'
asbag63
(g84
g65
NtRp2463
(dp2464
g68
(dp2465
sg77
g2450
sg70
(lp2466
g63
(g64
g65
NtRp2467
(dp2468
g68
(dp2469
g76
I5
ssg77
g2463
sg70
(lp2470
g1240
asbasbasbag63
(g79
g65
NtRp2471
(dp2472
g68
(dp2473
sg77
g73
sg70
(lp2474
g63
(g84
g65
NtRp2475
(dp2476
g68
(dp2477
g88
g89
ssg77
g2471
sg70
(lp2478
S'utcnow'
p2479
asbag63
(g84
g65
NtRp2480
(dp2481
g68
(dp2482
g95
g96
ssg77
g2471
sg70
(lp2483
S':'
asbag63
(g84
g65
NtRp2484
(dp2485
g68
(dp2486
sg77
g2471
sg70
(lp2487
g63
(g64
g65
NtRp2488
(dp2489
g68
(dp2490
g76
I5
ssg77
g2484
sg70
(lp2491
S'datetime.datetime(2013, 1, 21, 2, 31, 35, 46000)'
p2492
asbasbasbag63
(g79
g65
NtRp2493
(dp2494
g68
(dp2495
sg77
g73
sg70
(lp2496
g63
(g84
g65
NtRp2497
(dp2498
g68
(dp2499
g88
g89
ssg77
g2493
sg70
(lp2500
S'uuid'
p2501
asbag63
(g84
g65
NtRp2502
(dp2503
g68
(dp2504
g95
g96
ssg77
g2493
sg70
(lp2505
S':'
asbag63
(g84
g65
NtRp2506
(dp2507
g68
(dp2508
sg77
g2493
sg70
(lp2509
g63
(g64
g65
NtRp2510
(dp2511
g68
(dp2512
g76
I5
ssg77
g2506
sg70
(lp2513
S'welcome/127.0.0.1.2013-01-21.09-31-35.a6166191-652a-4961-93df-bfbaa566db08'
p2514
asbasbasbag63
(g79
g65
NtRp2515
(dp2516
g68
(dp2517
sg77
g73
sg70
(lp2518
g63
(g84
g65
NtRp2519
(dp2520
g68
(dp2521
g88
g89
ssg77
g2515
sg70
(lp2522
S'vars'
p2523
asbag63
(g84
g65
NtRp2524
(dp2525
g68
(dp2526
g95
g96
ssg77
g2515
sg70
(lp2527
S':'
asbag63
(g84
g65
NtRp2528
(dp2529
g68
(dp2530
sg77
g2515
sg70
(lp2531
g63
(g64
g65
NtRp2532
(dp2533
g68
(dp2534
g76
I5
ssg77
g2528
sg70
(lp2535
g63
(g72
g65
NtRp2536
(dp2537
g68
(dp2538
g76
I4
ssg77
Nsg70
(lp2539
g63
(g79
g65
NtRp2540
(dp2541
g68
(dp2542
sg77
g2536
sg70
(lp2543
g63
(g84
g65
NtRp2544
(dp2545
g68
(dp2546
g88
g89
ssg77
g2540
sg70
(lp2547
g1866
asbag63
(g84
g65
NtRp2548
(dp2549
g68
(dp2550
g95
g96
ssg77
g2540
sg70
(lp2551
S':'
asbag63
(g84
g65
NtRp2552
(dp2553
g68
(dp2554
sg77
g2540
sg70
(lp2555
g63
(g64
g65
NtRp2556
(dp2557
g68
(dp2558
g76
I4
ssg77
g2552
sg70
(lp2559
g1879
asbasbasbasbasbasbasbag63
(g79
g65
NtRp2560
(dp2561
g68
(dp2562
sg77
g73
sg70
(lp2563
g63
(g84
g65
NtRp2564
(dp2565
g68
(dp2566
g88
g89
ssg77
g2560
sg70
(lp2567
S'wsgi'
p2568
asbag63
(g84
g65
NtRp2569
(dp2570
g68
(dp2571
g95
g96
ssg77
g2560
sg70
(lp2572
S':'
asbag63
(g84
g65
NtRp2573
(dp2574
g68
(dp2575
sg77
g2560
sg70
(lp2576
g63
(g64
g65
NtRp2577
(dp2578
g68
(dp2579
g76
I5
ssg77
g2573
sg70
(lp2580
g63
(g72
g65
NtRp2581
(dp2582
g68
(dp2583
g76
I4
ssg77
Nsg70
(lp2584
g63
(g79
g65
NtRp2585
(dp2586
g68
(dp2587
sg77
g2581
sg70
(lp2588
g63
(g84
g65
NtRp2589
(dp2590
g68
(dp2591
g88
g89
ssg77
g2585
sg70
(lp2592
S'environ'
p2593
asbag63
(g84
g65
NtRp2594
(dp2595
g68
(dp2596
g95
g96
ssg77
g2585
sg70
(lp2597
S':'
asbag63
(g84
g65
NtRp2598
(dp2599
g68
(dp2600
sg77
g2585
sg70
(lp2601
g63
(g64
g65
NtRp2602
(dp2603
g68
(dp2604
g76
I4
ssg77
g2598
sg70
(lp2605
g63
(g72
g65
NtRp2606
(dp2607
g68
(dp2608
g76
I3
ssg77
Nsg70
(lp2609
g63
(g79
g65
NtRp2610
(dp2611
g68
(dp2612
sg77
g2606
sg70
(lp2613
g63
(g84
g65
NtRp2614
(dp2615
g68
(dp2616
g88
g89
ssg77
g2610
sg70
(lp2617
S'HTTP_ACCEPT'
p2618
asbag63
(g84
g65
NtRp2619
(dp2620
g68
(dp2621
g95
g96
ssg77
g2610
sg70
(lp2622
S':'
asbag63
(g84
g65
NtRp2623
(dp2624
g68
(dp2625
sg77
g2610
sg70
(lp2626
g63
(g64
g65
NtRp2627
(dp2628
g68
(dp2629
g76
I3
ssg77
g2623
sg70
(lp2630
g849
asbasbasbag63
(g79
g65
NtRp2631
(dp2632
g68
(dp2633
sg77
g2606
sg70
(lp2634
g63
(g84
g65
NtRp2635
(dp2636
g68
(dp2637
g88
g89
ssg77
g2631
sg70
(lp2638
S'HTTP_ACCEPT_CHARSET'
p2639
asbag63
(g84
g65
NtRp2640
(dp2641
g68
(dp2642
g95
g96
ssg77
g2631
sg70
(lp2643
S':'
asbag63
(g84
g65
NtRp2644
(dp2645
g68
(dp2646
sg77
g2631
sg70
(lp2647
g63
(g64
g65
NtRp2648
(dp2649
g68
(dp2650
g76
I3
ssg77
g2644
sg70
(lp2651
g871
asbasbasbag63
(g79
g65
NtRp2652
(dp2653
g68
(dp2654
sg77
g2606
sg70
(lp2655
g63
(g84
g65
NtRp2656
(dp2657
g68
(dp2658
g88
g89
ssg77
g2652
sg70
(lp2659
S'HTTP_ACCEPT_ENCODING'
p2660
asbag63
(g84
g65
NtRp2661
(dp2662
g68
(dp2663
g95
g96
ssg77
g2652
sg70
(lp2664
S':'
asbag63
(g84
g65
NtRp2665
(dp2666
g68
(dp2667
sg77
g2652
sg70
(lp2668
g63
(g64
g65
NtRp2669
(dp2670
g68
(dp2671
g76
I3
ssg77
g2665
sg70
(lp2672
g893
asbasbasbag63
(g79
g65
NtRp2673
(dp2674
g68
(dp2675
sg77
g2606
sg70
(lp2676
g63
(g84
g65
NtRp2677
(dp2678
g68
(dp2679
g88
g89
ssg77
g2673
sg70
(lp2680
S'HTTP_ACCEPT_LANGUAGE'
p2681
asbag63
(g84
g65
NtRp2682
(dp2683
g68
(dp2684
g95
g96
ssg77
g2673
sg70
(lp2685
S':'
asbag63
(g84
g65
NtRp2686
(dp2687
g68
(dp2688
sg77
g2673
sg70
(lp2689
g63
(g64
g65
NtRp2690
(dp2691
g68
(dp2692
g76
I3
ssg77
g2686
sg70
(lp2693
g915
asbasbasbag63
(g79
g65
NtRp2694
(dp2695
g68
(dp2696
sg77
g2606
sg70
(lp2697
g63
(g84
g65
NtRp2698
(dp2699
g68
(dp2700
g88
g89
ssg77
g2694
sg70
(lp2701
S'HTTP_CONNECTION'
p2702
asbag63
(g84
g65
NtRp2703
(dp2704
g68
(dp2705
g95
g96
ssg77
g2694
sg70
(lp2706
S':'
asbag63
(g84
g65
NtRp2707
(dp2708
g68
(dp2709
sg77
g2694
sg70
(lp2710
g63
(g64
g65
NtRp2711
(dp2712
g68
(dp2713
g76
I3
ssg77
g2707
sg70
(lp2714
g937
asbasbasbag63
(g79
g65
NtRp2715
(dp2716
g68
(dp2717
sg77
g2606
sg70
(lp2718
g63
(g84
g65
NtRp2719
(dp2720
g68
(dp2721
g88
g89
ssg77
g2715
sg70
(lp2722
S'HTTP_COOKIE'
p2723
asbag63
(g84
g65
NtRp2724
(dp2725
g68
(dp2726
g95
g96
ssg77
g2715
sg70
(lp2727
S':'
asbag63
(g84
g65
NtRp2728
(dp2729
g68
(dp2730
sg77
g2715
sg70
(lp2731
g63
(g64
g65
NtRp2732
(dp2733
g68
(dp2734
g76
I3
ssg77
g2728
sg70
(lp2735
g959
asbasbasbag63
(g79
g65
NtRp2736
(dp2737
g68
(dp2738
sg77
g2606
sg70
(lp2739
g63
(g84
g65
NtRp2740
(dp2741
g68
(dp2742
g88
g89
ssg77
g2736
sg70
(lp2743
S'HTTP_HOST'
p2744
asbag63
(g84
g65
NtRp2745
(dp2746
g68
(dp2747
g95
g96
ssg77
g2736
sg70
(lp2748
S':'
asbag63
(g84
g65
NtRp2749
(dp2750
g68
(dp2751
sg77
g2736
sg70
(lp2752
g63
(g64
g65
NtRp2753
(dp2754
g68
(dp2755
g76
I3
ssg77
g2749
sg70
(lp2756
g981
asbasbasbag63
(g79
g65
NtRp2757
(dp2758
g68
(dp2759
sg77
g2606
sg70
(lp2760
g63
(g84
g65
NtRp2761
(dp2762
g68
(dp2763
g88
g89
ssg77
g2757
sg70
(lp2764
S'HTTP_REFERER'
p2765
asbag63
(g84
g65
NtRp2766
(dp2767
g68
(dp2768
g95
g96
ssg77
g2757
sg70
(lp2769
S':'
asbag63
(g84
g65
NtRp2770
(dp2771
g68
(dp2772
sg77
g2757
sg70
(lp2773
g63
(g64
g65
NtRp2774
(dp2775
g68
(dp2776
g76
I3
ssg77
g2770
sg70
(lp2777
g1003
asbasbasbag63
(g79
g65
NtRp2778
(dp2779
g68
(dp2780
sg77
g2606
sg70
(lp2781
g63
(g84
g65
NtRp2782
(dp2783
g68
(dp2784
g88
g89
ssg77
g2778
sg70
(lp2785
S'HTTP_USER_AGENT'
p2786
asbag63
(g84
g65
NtRp2787
(dp2788
g68
(dp2789
g95
g96
ssg77
g2778
sg70
(lp2790
S':'
asbag63
(g84
g65
NtRp2791
(dp2792
g68
(dp2793
sg77
g2778
sg70
(lp2794
g63
(g64
g65
NtRp2795
(dp2796
g68
(dp2797
g76
I3
ssg77
g2791
sg70
(lp2798
g1025
asbasbasbag63
(g79
g65
NtRp2799
(dp2800
g68
(dp2801
sg77
g2606
sg70
(lp2802
g63
(g84
g65
NtRp2803
(dp2804
g68
(dp2805
g88
g89
ssg77
g2799
sg70
(lp2806
S'HTTP_X_REQUESTED_WITH'
p2807
asbag63
(g84
g65
NtRp2808
(dp2809
g68
(dp2810
g95
g96
ssg77
g2799
sg70
(lp2811
S':'
asbag63
(g84
g65
NtRp2812
(dp2813
g68
(dp2814
sg77
g2799
sg70
(lp2815
g63
(g64
g65
NtRp2816
(dp2817
g68
(dp2818
g76
I3
ssg77
g2812
sg70
(lp2819
g1047
asbasbasbag63
(g79
g65
NtRp2820
(dp2821
g68
(dp2822
sg77
g2606
sg70
(lp2823
g63
(g84
g65
NtRp2824
(dp2825
g68
(dp2826
g88
g89
ssg77
g2820
sg70
(lp2827
S'PATH_INFO'
p2828
asbag63
(g84
g65
NtRp2829
(dp2830
g68
(dp2831
g95
g96
ssg77
g2820
sg70
(lp2832
S':'
asbag63
(g84
g65
NtRp2833
(dp2834
g68
(dp2835
sg77
g2820
sg70
(lp2836
g63
(g64
g65
NtRp2837
(dp2838
g68
(dp2839
g76
I3
ssg77
g2833
sg70
(lp2840
g1240
asbasbasbag63
(g79
g65
NtRp2841
(dp2842
g68
(dp2843
sg77
g2606
sg70
(lp2844
g63
(g84
g65
NtRp2845
(dp2846
g68
(dp2847
g88
g89
ssg77
g2841
sg70
(lp2848
S'QUERY_STRING'
p2849
asbag63
(g84
g65
NtRp2850
(dp2851
g68
(dp2852
g95
g96
ssg77
g2841
sg70
(lp2853
S':'
asbag63
(g84
g65
NtRp2854
(dp2855
g68
(dp2856
sg77
g2841
sg70
(lp2857
g63
(g64
g65
NtRp2858
(dp2859
g68
(dp2860
g76
I3
ssg77
g2854
sg70
(lp2861
g1262
asbasbasbag63
(g79
g65
NtRp2862
(dp2863
g68
(dp2864
sg77
g2606
sg70
(lp2865
g63
(g84
g65
NtRp2866
(dp2867
g68
(dp2868
g88
g89
ssg77
g2862
sg70
(lp2869
S'REMOTE_ADDR'
p2870
asbag63
(g84
g65
NtRp2871
(dp2872
g68
(dp2873
g95
g96
ssg77
g2862
sg70
(lp2874
S':'
asbag63
(g84
g65
NtRp2875
(dp2876
g68
(dp2877
sg77
g2862
sg70
(lp2878
g63
(g64
g65
NtRp2879
(dp2880
g68
(dp2881
g76
I3
ssg77
g2875
sg70
(lp2882
g218
asbasbasbag63
(g79
g65
NtRp2883
(dp2884
g68
(dp2885
sg77
g2606
sg70
(lp2886
g63
(g84
g65
NtRp2887
(dp2888
g68
(dp2889
g88
g89
ssg77
g2883
sg70
(lp2890
S'REMOTE_PORT'
p2891
asbag63
(g84
g65
NtRp2892
(dp2893
g68
(dp2894
g95
g96
ssg77
g2883
sg70
(lp2895
S':'
asbag63
(g84
g65
NtRp2896
(dp2897
g68
(dp2898
sg77
g2883
sg70
(lp2899
g63
(g64
g65
NtRp2900
(dp2901
g68
(dp2902
g76
I3
ssg77
g2896
sg70
(lp2903
g1305
asbasbasbag63
(g79
g65
NtRp2904
(dp2905
g68
(dp2906
sg77
g2606
sg70
(lp2907
g63
(g84
g65
NtRp2908
(dp2909
g68
(dp2910
g88
g89
ssg77
g2904
sg70
(lp2911
S'REQUEST_METHOD'
p2912
asbag63
(g84
g65
NtRp2913
(dp2914
g68
(dp2915
g95
g96
ssg77
g2904
sg70
(lp2916
S':'
asbag63
(g84
g65
NtRp2917
(dp2918
g68
(dp2919
sg77
g2904
sg70
(lp2920
g63
(g64
g65
NtRp2921
(dp2922
g68
(dp2923
g76
I3
ssg77
g2917
sg70
(lp2924
g1327
asbasbasbag63
(g79
g65
NtRp2925
(dp2926
g68
(dp2927
sg77
g2606
sg70
(lp2928
g63
(g84
g65
NtRp2929
(dp2930
g68
(dp2931
g88
g89
ssg77
g2925
sg70
(lp2932
S'REQUEST_URI'
p2933
asbag63
(g84
g65
NtRp2934
(dp2935
g68
(dp2936
g95
g96
ssg77
g2925
sg70
(lp2937
S':'
asbag63
(g84
g65
NtRp2938
(dp2939
g68
(dp2940
sg77
g2925
sg70
(lp2941
g63
(g64
g65
NtRp2942
(dp2943
g68
(dp2944
g76
I3
ssg77
g2938
sg70
(lp2945
g1349
asbasbasbag63
(g79
g65
NtRp2946
(dp2947
g68
(dp2948
sg77
g2606
sg70
(lp2949
g63
(g84
g65
NtRp2950
(dp2951
g68
(dp2952
g88
g89
ssg77
g2946
sg70
(lp2953
S'SCRIPT_NAME'
p2954
asbag63
(g84
g65
NtRp2955
(dp2956
g68
(dp2957
g95
g96
ssg77
g2946
sg70
(lp2958
S':'
asbag63
(g84
g65
NtRp2959
(dp2960
g68
(dp2961
sg77
g2946
sg70
(lp2962
g63
(g64
g65
NtRp2963
(dp2964
g68
(dp2965
g76
I3
ssg77
g2959
sg70
(lp2966
S''
asbasbasbag63
(g79
g65
NtRp2967
(dp2968
g68
(dp2969
sg77
g2606
sg70
(lp2970
g63
(g84
g65
NtRp2971
(dp2972
g68
(dp2973
g88
g89
ssg77
g2967
sg70
(lp2974
S'SERVER_NAME'
p2975
asbag63
(g84
g65
NtRp2976
(dp2977
g68
(dp2978
g95
g96
ssg77
g2967
sg70
(lp2979
S':'
asbag63
(g84
g65
NtRp2980
(dp2981
g68
(dp2982
sg77
g2967
sg70
(lp2983
g63
(g64
g65
NtRp2984
(dp2985
g68
(dp2986
g76
I3
ssg77
g2980
sg70
(lp2987
g1392
asbasbasbag63
(g79
g65
NtRp2988
(dp2989
g68
(dp2990
sg77
g2606
sg70
(lp2991
g63
(g84
g65
NtRp2992
(dp2993
g68
(dp2994
g88
g89
ssg77
g2988
sg70
(lp2995
S'SERVER_PORT'
p2996
asbag63
(g84
g65
NtRp2997
(dp2998
g68
(dp2999
g95
g96
ssg77
g2988
sg70
(lp3000
S':'
asbag63
(g84
g65
NtRp3001
(dp3002
g68
(dp3003
sg77
g2988
sg70
(lp3004
g63
(g64
g65
NtRp3005
(dp3006
g68
(dp3007
g76
I3
ssg77
g3001
sg70
(lp3008
g1414
asbasbasbag63
(g79
g65
NtRp3009
(dp3010
g68
(dp3011
sg77
g2606
sg70
(lp3012
g63
(g84
g65
NtRp3013
(dp3014
g68
(dp3015
g88
g89
ssg77
g3009
sg70
(lp3016
S'SERVER_PROTOCOL'
p3017
asbag63
(g84
g65
NtRp3018
(dp3019
g68
(dp3020
g95
g96
ssg77
g3009
sg70
(lp3021
S':'
asbag63
(g84
g65
NtRp3022
(dp3023
g68
(dp3024
sg77
g3009
sg70
(lp3025
g63
(g64
g65
NtRp3026
(dp3027
g68
(dp3028
g76
I3
ssg77
g3022
sg70
(lp3029
g1436
asbasbasbag63
(g79
g65
NtRp3030
(dp3031
g68
(dp3032
sg77
g2606
sg70
(lp3033
g63
(g84
g65
NtRp3034
(dp3035
g68
(dp3036
g88
g89
ssg77
g3030
sg70
(lp3037
S'SERVER_SOFTWARE'
p3038
asbag63
(g84
g65
NtRp3039
(dp3040
g68
(dp3041
g95
g96
ssg77
g3030
sg70
(lp3042
S':'
asbag63
(g84
g65
NtRp3043
(dp3044
g68
(dp3045
sg77
g3030
sg70
(lp3046
g63
(g64
g65
NtRp3047
(dp3048
g68
(dp3049
g76
I3
ssg77
g3043
sg70
(lp3050
g1458
asbasbasbag63
(g79
g65
NtRp3051
(dp3052
g68
(dp3053
sg77
g2606
sg70
(lp3054
g63
(g84
g65
NtRp3055
(dp3056
g68
(dp3057
g88
g89
ssg77
g3051
sg70
(lp3058
S'wsgi.errors'
p3059
asbag63
(g84
g65
NtRp3060
(dp3061
g68
(dp3062
g95
g96
ssg77
g3051
sg70
(lp3063
S':'
asbag63
(g84
g65
NtRp3064
(dp3065
g68
(dp3066
sg77
g3051
sg70
(lp3067
g63
(g64
g65
NtRp3068
(dp3069
g68
(dp3070
g76
I3
ssg77
g3064
sg70
(lp3071
S"<open file '<stderr>', mode 'w' at 0x00000000005961E0>"
p3072
asbasbasbag63
(g79
g65
NtRp3073
(dp3074
g68
(dp3075
sg77
g2606
sg70
(lp3076
g63
(g84
g65
NtRp3077
(dp3078
g68
(dp3079
g88
g89
ssg77
g3073
sg70
(lp3080
S'wsgi.file_wrapper'
p3081
asbag63
(g84
g65
NtRp3082
(dp3083
g68
(dp3084
g95
g96
ssg77
g3073
sg70
(lp3085
S':'
asbag63
(g84
g65
NtRp3086
(dp3087
g68
(dp3088
sg77
g3073
sg70
(lp3089
g63
(g64
g65
NtRp3090
(dp3091
g68
(dp3092
g76
I3
ssg77
g3086
sg70
(lp3093
S'<class wsgiref.util.FileWrapper at 0x00000000036ECEE8>'
p3094
asbasbasbag63
(g79
g65
NtRp3095
(dp3096
g68
(dp3097
sg77
g2606
sg70
(lp3098
g63
(g84
g65
NtRp3099
(dp3100
g68
(dp3101
g88
g89
ssg77
g3095
sg70
(lp3102
S'wsgi.input'
p3103
asbag63
(g84
g65
NtRp3104
(dp3105
g68
(dp3106
g95
g96
ssg77
g3095
sg70
(lp3107
S':'
asbag63
(g84
g65
NtRp3108
(dp3109
g68
(dp3110
sg77
g3095
sg70
(lp3111
g63
(g64
g65
NtRp3112
(dp3113
g68
(dp3114
g76
I3
ssg77
g3108
sg70
(lp3115
S'<cStringIO.StringO object at 0x000000000377C1B8>'
p3116
asbasbasbag63
(g79
g65
NtRp3117
(dp3118
g68
(dp3119
sg77
g2606
sg70
(lp3120
g63
(g84
g65
NtRp3121
(dp3122
g68
(dp3123
g88
g89
ssg77
g3117
sg70
(lp3124
S'wsgi.multiprocess'
p3125
asbag63
(g84
g65
NtRp3126
(dp3127
g68
(dp3128
g95
g96
ssg77
g3117
sg70
(lp3129
S':'
asbag63
(g84
g65
NtRp3130
(dp3131
g68
(dp3132
sg77
g3117
sg70
(lp3133
g63
(g64
g65
NtRp3134
(dp3135
g68
(dp3136
g76
I3
ssg77
g3130
sg70
(lp3137
g805
asbasbasbag63
(g79
g65
NtRp3138
(dp3139
g68
(dp3140
sg77
g2606
sg70
(lp3141
g63
(g84
g65
NtRp3142
(dp3143
g68
(dp3144
g88
g89
ssg77
g3138
sg70
(lp3145
S'wsgi.multithread'
p3146
asbag63
(g84
g65
NtRp3147
(dp3148
g68
(dp3149
g95
g96
ssg77
g3138
sg70
(lp3150
S':'
asbag63
(g84
g65
NtRp3151
(dp3152
g68
(dp3153
sg77
g3138
sg70
(lp3154
g63
(g64
g65
NtRp3155
(dp3156
g68
(dp3157
g76
I3
ssg77
g3151
sg70
(lp3158
g106
asbasbasbag63
(g79
g65
NtRp3159
(dp3160
g68
(dp3161
sg77
g2606
sg70
(lp3162
g63
(g84
g65
NtRp3163
(dp3164
g68
(dp3165
g88
g89
ssg77
g3159
sg70
(lp3166
S'wsgi.run_once'
p3167
asbag63
(g84
g65
NtRp3168
(dp3169
g68
(dp3170
g95
g96
ssg77
g3159
sg70
(lp3171
S':'
asbag63
(g84
g65
NtRp3172
(dp3173
g68
(dp3174
sg77
g3159
sg70
(lp3175
g63
(g64
g65
NtRp3176
(dp3177
g68
(dp3178
g76
I3
ssg77
g3172
sg70
(lp3179
g805
asbasbasbag63
(g79
g65
NtRp3180
(dp3181
g68
(dp3182
sg77
g2606
sg70
(lp3183
g63
(g84
g65
NtRp3184
(dp3185
g68
(dp3186
g88
g89
ssg77
g3180
sg70
(lp3187
S'wsgi.url_scheme'
p3188
asbag63
(g84
g65
NtRp3189
(dp3190
g68
(dp3191
g95
g96
ssg77
g3180
sg70
(lp3192
S':'
asbag63
(g84
g65
NtRp3193
(dp3194
g68
(dp3195
sg77
g3180
sg70
(lp3196
g63
(g64
g65
NtRp3197
(dp3198
g68
(dp3199
g76
I3
ssg77
g3193
sg70
(lp3200
g1717
asbasbasbag63
(g79
g65
NtRp3201
(dp3202
g68
(dp3203
sg77
g2606
sg70
(lp3204
g63
(g84
g65
NtRp3205
(dp3206
g68
(dp3207
g88
g89
ssg77
g3201
sg70
(lp3208
S'wsgi.version'
p3209
asbag63
(g84
g65
NtRp3210
(dp3211
g68
(dp3212
g95
g96
ssg77
g3201
sg70
(lp3213
S':'
asbag63
(g84
g65
NtRp3214
(dp3215
g68
(dp3216
sg77
g3201
sg70
(lp3217
g63
(g64
g65
NtRp3218
(dp3219
g68
(dp3220
g76
I3
ssg77
g3214
sg70
(lp3221
S'1'
asbasbasbasbasbasbasbasbasbasbasbasbasbsS'frames'
p3222
(lp3223
(dp3224
S'file'
p3225
S'D:\\Work\\webRTC\\web2py\\gluon\\restricted.py'
p3226
sS'dump'
p3227
(dp3228
S'environment'
p3229
S"{'A': <class 'gluon.html.A'>, 'Auth': <class 'gluon.tools.Auth'>, 'B': <class 'gluon.html.B'>, 'BEAUTIFY': <class 'gluon.html.BEAUTIFY'>, 'BODY': <class 'gluon.html.BODY'>, 'BR': <class 'gluon.html.BR'>, 'BUTTON': <class 'gluon.html.BUTTON'>, 'CAT': <class 'gluon.html.CAT'>, 'CENTER': <class 'gluon.html.CENTER'>, 'CLEANUP': <class 'gluon.validators.CLEANUP'>, ...}"
p3230
sS'ccode'
p3231
S'<code object <module> at 0000000008A302B0, file ...lications\\welcome\\controllers/webrtc.py", line 3>'
p3232
ssS'lnum'
p3233
I212
sS'lines'
p3234
(dp3235
I207
S'    try:'
p3236
sI208
S'        if isinstance(code, types.CodeType):'
p3237
sI209
S'            ccode = code'
p3238
sI210
S'        else:'
p3239
sI211
S'            ccode = compile2(code, layer)'
p3240
sI212
S'        exec ccode in environment'
p3241
sI213
S'    except HTTP:'
p3242
sI214
S'        raise'
p3243
sI215
S'    except RestrictedError:'
p3244
sI216
S'        # do not encapsulate (obfuscate) the original RestrictedError'
p3245
ssS'call'
p3246
S"(code='# coding: utf8\\n# try something like\\ndef index():...p=rtc)\\n\\nresponse._vars=response._caller(connect)\\n', environment={'A': <class 'gluon.html.A'>, 'Auth': <class 'gluon.tools.Auth'>, 'B': <class 'gluon.html.B'>, 'BEAUTIFY': <class 'gluon.html.BEAUTIFY'>, 'BODY': <class 'gluon.html.BODY'>, 'BR': <class 'gluon.html.BR'>, 'BUTTON': <class 'gluon.html.BUTTON'>, 'CAT': <class 'gluon.html.CAT'>, 'CENTER': <class 'gluon.html.CENTER'>, 'CLEANUP': <class 'gluon.validators.CLEANUP'>, ...}, layer=r'D:\\Work\\webRTC\\web2py\\applications\\welcome\\controllers/webrtc.py')"
p3247
sS'func'
p3248
S'restricted'
p3249
sa(dp3250
g3225
S'D:\\Work\\webRTC\\web2py\\applications\\welcome\\controllers\\webrtc.py'
p3251
sg3227
(dp3252
sg3233
I23
sg3234
(dp3253
I12
S'    websocket_send('
p3254
sI13
S"                'http://127.0.0.1:8888',json.dumps(dict(sdp = request.vars.sdp)),'rct','rtc')"
p3255
sI14
S'    return response.json(request.vars.sdp)'
p3256
sI15
S'def get_connect():'
p3257
sI16
S'    rtc_db = db(db.rtc.id>0).select().last()'
p3258
sI17
S'    if rtc_db:'
p3259
sI18
S'        rtc = rtc_db.dest'
p3260
sI19
S'    else :'
p3261
sI20
S'        rtc = 0'
p3262
sI21
S'    return dict(sdp=rtc)'
p3263
ssg3246
S'()'
p3264
sg3248
S'<module>'
p3265
sa(dp3266
g3225
S'D:\\Work\\webRTC\\web2py\\gluon\\globals.py'
p3267
sg3227
(dp3268
S'self'
p3269
S'undefined'
p3270
sS'f'
S'<function connect>'
p3271
ssg3233
I193
sg3234
(dp3272
I192
S'        self._vars = None'
p3273
sI193
S'        self._caller = lambda f: f()'
p3274
sI194
S'        self._view_environment = None'
p3275
sI195
S'        self._custom_commit = None'
p3276
sI196
S'        self._custom_rollback = None'
p3277
sI197
S''
sI188
S'        self.menu = []             # used by the default view layout'
p3278
sI189
S'        self.files = []            # used by web2py_ajax.html'
p3279
sI190
S'        self.generic_patterns = []  # patterns to allow generic views'
p3280
sI191
S"        self.delimiters = ('{{', '}}')"
p3281
ssg3246
S'(f=<function connect>)'
p3282
sg3248
S'<lambda>'
p3283
sa(dp3284
g3225
S'D:\\Work\\webRTC\\web2py\\applications\\welcome\\controllers\\webrtc.py'
p3285
sg3227
(dp3286
S'sdp'
p3287
g3270
sS'global request'
p3288
S"<Storage {'function': 'connect', 'body': <cStrin...ications\\\\welcome\\\\', 'post_vars': <Storage {}>}>"
p3289
sS'json.dumps'
p3290
S'<function dumps>'
p3291
sS'request.vars.sdp'
p3292
S"'v=0\\r\\no=- 921794682 2 IN IP4 127.0.0.1\\r\\ns=-\\r\\nt=0 ...39 label:WlsS7A6WnyDZE0sTQTMXClE3rnjMPdEuvwASv0\\r\\n'"
p3293
sS'json'
p3294
S"<module 'gluon.contrib.simplejson' from 'D:\\Work...TC\\web2py\\gluon\\contrib\\simplejson\\__init__.pyc'>"
p3295
sS'request.vars'
p3296
S"<Storage {'sdp': 'v=0\\r\\no=- 921794682 2 IN IP4 ...bel:WlsS7A6WnyDZE0sTQTMXClE3rnjMPdEuvwASv0\\r\\n'}>"
p3297
sS'builtindict'
p3298
S"<type 'dict'>"
p3299
ssg3233
I13
sg3234
(dp3300
I8
S'def connect():'
p3301
sI9
S'    from gluon.contrib import simplejson as json'
p3302
sI10
S'    from gluon.contrib.websocket_messaging import websocket_send'
p3303
sI11
S'    db.rtc.insert(dest = request.vars.sdp)'
p3304
sI12
S'    websocket_send('
p3305
sI13
S"                'http://127.0.0.1:8888',json.dumps(dict(sdp = request.vars.sdp)),'rct','rtc')"
p3306
sI14
S'    return response.json(request.vars.sdp)'
p3307
sI15
S'def get_connect():'
p3308
sI16
S'    rtc_db = db(db.rtc.id>0).select().last()'
p3309
sI17
S'    if rtc_db:'
p3310
ssg3246
S'()'
p3311
sg3248
S'connect'
p3312
sa(dp3313
g3225
S'D:\\Work\\webRTC\\web2py\\gluon\\contrib\\websocket_messaging.py'
p3314
sg3227
(dp3315
S'url'
p3316
S"'http://127.0.0.1:8888'"
p3317
sS'global urllib'
p3318
S"<module 'urllib' from 'd:\\python27\\lib\\urllib.pyc'>"
p3319
sS'urllib.urlopen'
p3320
S'<function urlopen>'
p3321
sS'params'
p3322
S"'message=%7B%22sdp%22%3A+%22v%3D0%5Cr%5Cno%3D-+92...up=rtc&signature=cd28c94360735ba25a9a43bfc5178b01'"
p3323
sS'f'
g3270
ssg3233
I92
sg3234
(dp3324
I96
S''
sI87
S''
sI88
S"def websocket_send(url, message, hmac_key=None, group='default'):"
p3325
sI89
S"    sig = hmac_key and hmac.new(hmac_key, message).hexdigest() or ''"
p3326
sI90
S'    params = urllib.urlencode('
p3327
sI91
S"        {'message': message, 'signature': sig, 'group': group})"
p3328
sI92
S'    f = urllib.urlopen(url, params)'
p3329
sI93
S'    data = f.read()'
p3330
sI94
S'    f.close()'
p3331
sI95
S'    return data'
p3332
ssg3246
S'(url=\'http://127.0.0.1:8888\', message=r\'{"sdp": "v=0\\r\\no=- 921794682 2 IN IP4 127.0.0.1...abel:WlsS7A6WnyDZE0sTQTMXClE3rnjMPdEuvwASv0\\r\\n"}\', hmac_key=\'rct\', group=\'rtc\')'
p3333
sg3248
S'websocket_send'
p3334
sa(dp3335
g3225
S'd:\\python27\\lib\\urllib.py'
p3336
sg3227
(dp3337
S'url'
p3338
S"'http://127.0.0.1:8888'"
p3339
sS'opener'
p3340
S'<gluon.contrib.autolinks.VimeoURLOpener instance>'
p3341
sS'data'
p3342
S"'message=%7B%22sdp%22%3A+%22v%3D0%5Cr%5Cno%3D-+92...up=rtc&signature=cd28c94360735ba25a9a43bfc5178b01'"
p3343
sS'opener.open'
p3344
S'<bound method VimeoURLOpener.open of <gluon.contrib.autolinks.VimeoURLOpener instance>>'
p3345
ssg3233
I88
sg3234
(dp3346
I83
S'    else:'
p3347
sI84
S'        opener = _urlopener'
p3348
sI85
S'    if data is None:'
p3349
sI86
S'        return opener.open(url)'
p3350
sI87
S'    else:'
p3351
sI88
S'        return opener.open(url, data)'
p3352
sI89
S'def urlretrieve(url, filename=None, reporthook=None, data=None):'
p3353
sI90
S'    global _urlopener'
p3354
sI91
S'    if not _urlopener:'
p3355
sI92
S'        _urlopener = FancyURLopener()'
p3356
ssg3246
S"(url='http://127.0.0.1:8888', data='message=%7B%22sdp%22%3A+%22v%3D0%5Cr%5Cno%3D-+92...up=rtc&signature=cd28c94360735ba25a9a43bfc5178b01', proxies=None)"
p3357
sg3248
S'urlopen'
p3358
sa(dp3359
g3225
S'd:\\python27\\lib\\urllib.py'
p3360
sg3227
(dp3361
S'url'
p3362
S"'//127.0.0.1:8888'"
p3363
sS'data'
p3364
S"'message=%7B%22sdp%22%3A+%22v%3D0%5Cr%5Cno%3D-+92...up=rtc&signature=cd28c94360735ba25a9a43bfc5178b01'"
p3365
sS'self'
p3366
S'<gluon.contrib.autolinks.VimeoURLOpener instance>'
p3367
sS'builtingetattr'
p3368
S'<built-in function getattr>'
p3369
sS'name'
p3370
S"'open_http'"
p3371
ssg3233
I209
sg3234
(dp3372
I204
S'                return self.open_unknown(fullurl, data)'
p3373
sI205
S'        try:'
p3374
sI206
S'            if data is None:'
p3375
sI207
S'                return getattr(self, name)(url)'
p3376
sI208
S'            else:'
p3377
sI209
S'                return getattr(self, name)(url, data)'
p3378
sI210
S'        except socket.error, msg:'
p3379
sI211
S"            raise IOError, ('socket error', msg), sys.exc_info()[2]"
p3380
sI212
S''
sI213
S'    def open_unknown(self, fullurl, data=None):'
p3381
ssg3246
S"(self=<gluon.contrib.autolinks.VimeoURLOpener instance>, fullurl='http://127.0.0.1:8888', data='message=%7B%22sdp%22%3A+%22v%3D0%5Cr%5Cno%3D-+92...up=rtc&signature=cd28c94360735ba25a9a43bfc5178b01')"
p3382
sg3248
S'open'
p3383
sa(dp3384
g3225
S'd:\\python27\\lib\\urllib.py'
p3385
sg3227
(dp3386
S'h'
S'<httplib.HTTP instance>'
p3387
sS'data'
p3388
S"'message=%7B%22sdp%22%3A+%22v%3D0%5Cr%5Cno%3D-+92...up=rtc&signature=cd28c94360735ba25a9a43bfc5178b01'"
p3389
sS'h.endheaders'
p3390
S'<bound method HTTPConnection.endheaders of <httplib.HTTPConnection instance>>'
p3391
ssg3233
I344
sg3234
(dp3392
I339
S"            h.putrequest('GET', selector)"
p3393
sI340
S"        if proxy_auth: h.putheader('Proxy-Authorization', 'Basic %s' % proxy_auth)"
p3394
sI341
S"        if auth: h.putheader('Authorization', 'Basic %s' % auth)"
p3395
sI342
S"        if realhost: h.putheader('Host', realhost)"
p3396
sI343
S'        for args in self.addheaders: h.putheader(*args)'
p3397
sI344
S'        h.endheaders(data)'
p3398
sI345
S'        errcode, errmsg, headers = h.getreply()'
p3399
sI346
S'        fp = h.getfile()'
p3400
sI347
S'        if errcode == -1:'
p3401
sI348
S'            if fp: fp.close()'
p3402
ssg3246
S"(self=<gluon.contrib.autolinks.VimeoURLOpener instance>, url='//127.0.0.1:8888', data='message=%7B%22sdp%22%3A+%22v%3D0%5Cr%5Cno%3D-+92...up=rtc&signature=cd28c94360735ba25a9a43bfc5178b01')"
p3403
sg3248
S'open_http'
p3404
sa(dp3405
g3225
S'd:\\python27\\lib\\httplib.py'
p3406
sg3227
(dp3407
S'message_body'
p3408
S"'message=%7B%22sdp%22%3A+%22v%3D0%5Cr%5Cno%3D-+92...up=rtc&signature=cd28c94360735ba25a9a43bfc5178b01'"
p3409
sS'self'
p3410
S'<httplib.HTTPConnection instance>'
p3411
sS'self._send_output'
p3412
S'<bound method HTTPConnection._send_output of <httplib.HTTPConnection instance>>'
p3413
ssg3233
I954
sg3234
(dp3414
I949
S'        """'
p3415
sI950
S'        if self.__state == _CS_REQ_STARTED:'
p3416
sI951
S'            self.__state = _CS_REQ_SENT'
p3417
sI952
S'        else:'
p3418
sI953
S'            raise CannotSendHeader()'
p3419
sI954
S'        self._send_output(message_body)'
p3420
sI955
S''
sI956
S'    def request(self, method, url, body=None, headers={}):'
p3421
sI957
S'        """Send a complete request to the server."""'
p3422
sI958
S'        self._send_request(method, url, body, headers)'
p3423
ssg3246
S"(self=<httplib.HTTPConnection instance>, message_body='message=%7B%22sdp%22%3A+%22v%3D0%5Cr%5Cno%3D-+92...up=rtc&signature=cd28c94360735ba25a9a43bfc5178b01')"
p3424
sg3248
S'endheaders'
p3425
sa(dp3426
g3225
S'd:\\python27\\lib\\httplib.py'
p3427
sg3227
(dp3428
S'msg'
p3429
S"'POST / HTTP/1.0\\r\\nContent-Type: application/x-www...up=rtc&signature=cd28c94360735ba25a9a43bfc5178b01'"
p3430
sS'self'
p3431
S'<httplib.HTTPConnection instance>'
p3432
sS'self.send'
p3433
S'<bound method HTTPConnection.send of <httplib.HTTPConnection instance>>'
p3434
ssg3233
I814
sg3234
(dp3435
I809
S'        # it will avoid performance problems caused by the interaction'
p3436
sI810
S'        # between delayed ack and the Nagle algorithm.'
p3437
sI811
S'        if isinstance(message_body, str):'
p3438
sI812
S'            msg += message_body'
p3439
sI813
S'            message_body = None'
p3440
sI814
S'        self.send(msg)'
p3441
sI815
S'        if message_body is not None:'
p3442
sI816
S'            #message_body was not a string (i.e. it is a file) and'
p3443
sI817
S'            #we must run the risk of Nagle'
p3444
sI818
S'            self.send(message_body)'
p3445
ssg3246
S'(self=<httplib.HTTPConnection instance>, message_body=None)'
p3446
sg3248
S'_send_output'
p3447
sa(dp3448
g3225
S'd:\\python27\\lib\\httplib.py'
p3449
sg3227
(dp3450
S'self'
p3451
S'<httplib.HTTPConnection instance>'
p3452
sS'self.connect'
p3453
S'<bound method HTTPConnection.connect of <httplib.HTTPConnection instance>>'
p3454
ssg3233
I776
sg3234
(dp3455
I771
S''
sI772
S'    def send(self, data):'
p3456
sI773
S'        """Send `data\' to the server."""'
p3457
sI774
S'        if self.sock is None:'
p3458
sI775
S'            if self.auto_open:'
p3459
sI776
S'                self.connect()'
p3460
sI777
S'            else:'
p3461
sI778
S'                raise NotConnected()'
p3462
sI779
S''
sI780
S'        if self.debuglevel > 0:'
p3463
ssg3246
S"(self=<httplib.HTTPConnection instance>, data='POST / HTTP/1.0\\r\\nContent-Type: application/x-www...up=rtc&signature=cd28c94360735ba25a9a43bfc5178b01')"
p3464
sg3248
S'send'
p3465
sa(dp3466
g3225
S'd:\\python27\\lib\\httplib.py'
p3467
sg3227
(dp3468
S'self.timeout'
p3469
S'<object object>'
p3470
sS'self'
p3471
S'<httplib.HTTPConnection instance>'
p3472
sS'self.source_address'
p3473
S'None'
p3474
ssg3233
I757
sg3234
(dp3475
I752
S''
sI753
S''
sI754
S'    def connect(self):'
p3476
sI755
S'        """Connect to the host and port specified in __init__."""'
p3477
sI756
S'        self.sock = socket.create_connection((self.host,self.port),'
p3478
sI757
S'                                             self.timeout, self.source_address)'
p3479
sI758
S''
sI759
S'        if self._tunnel_host:'
p3480
sI760
S'            self._tunnel()'
p3481
sI761
S''
ssg3246
S'(self=<httplib.HTTPConnection instance>)'
p3482
sg3248
g3312
sa(dp3483
g3225
S'd:\\python27\\lib\\socket.py'
p3484
sg3227
(dp3485
S'err'
p3486
S"error(10061, 'No connection could be made because the target machine actively refused it')"
p3487
ssg3233
I571
sg3234
(dp3488
I564
S''
sI565
S'        except error as _:'
p3489
sI566
S'            err = _'
p3490
sI567
S'            if sock is not None:'
p3491
sI568
S'                sock.close()'
p3492
sI569
S''
sI570
S'    if err is not None:'
p3493
sI571
S'        raise err'
p3494
sI572
S'    else:'
p3495
sI573
S'        raise error("getaddrinfo returns an empty list")'
p3496
ssg3246
S"(address=('127.0.0.1', 8888), timeout=<object object>, source_address=None)"
p3497
sg3248
S'create_connection'
p3498
sasS'pyver'
p3499
S'Python 2.7.3: d:\\python27\\python.exe\xa0'
p3500
sS'session'
p3501
g63
(g64
g65
NtRp3502
(dp3503
g68
(dp3504
sg70
(lp3505
g63
(g72
g65
NtRp3506
(dp3507
g68
(dp3508
g76
I5
ssg77
Nsg70
(lp3509
sbasbsS'etype'
p3510
S"<type 'exceptions.IOError'>"
p3511
sS'date'
p3512
S'Mon Jan 21 09:31:36 2013'
p3513
sS'response'
p3514
g63
(g64
g65
NtRp3515
(dp3516
g68
(dp3517
sg70
(lp3518
g63
(g72
g65
NtRp3519
(dp3520
g68
(dp3521
g76
I5
ssg77
Nsg70
(lp3522
g63
(g79
g65
NtRp3523
(dp3524
g68
(dp3525
sg77
g3519
sg70
(lp3526
g63
(g84
g65
NtRp3527
(dp3528
g68
(dp3529
g88
g89
ssg77
g3523
sg70
(lp3530
g161
asbag63
(g84
g65
NtRp3531
(dp3532
g68
(dp3533
g95
g96
ssg77
g3523
sg70
(lp3534
S':'
asbag63
(g84
g65
NtRp3535
(dp3536
g68
(dp3537
sg77
g3523
sg70
(lp3538
g63
(g64
g65
NtRp3539
(dp3540
g68
(dp3541
g76
I5
ssg77
g3535
sg70
(lp3542
S'<cStringIO.StringO object at 0x000000000569F148>'
p3543
asbasbasbag63
(g79
g65
NtRp3544
(dp3545
g68
(dp3546
sg77
g3519
sg70
(lp3547
g63
(g84
g65
NtRp3548
(dp3549
g68
(dp3550
g88
g89
ssg77
g3544
sg70
(lp3551
g249
asbag63
(g84
g65
NtRp3552
(dp3553
g68
(dp3554
g95
g96
ssg77
g3544
sg70
(lp3555
S':'
asbag63
(g84
g65
NtRp3556
(dp3557
g68
(dp3558
sg77
g3544
sg70
(lp3559
g63
(g64
g65
NtRp3560
(dp3561
g68
(dp3562
g76
I5
ssg77
g3556
sg70
(lp3563
g63
(g72
g65
NtRp3564
(dp3565
g68
(dp3566
g76
I4
ssg77
Nsg70
(lp3567
g63
(g79
g65
NtRp3568
(dp3569
g68
(dp3570
sg77
g3564
sg70
(lp3571
g63
(g84
g65
NtRp3572
(dp3573
g68
(dp3574
g88
g89
ssg77
g3568
sg70
(lp3575
S'session_id_welcome'
p3576
asbag63
(g84
g65
NtRp3577
(dp3578
g68
(dp3579
g95
g96
ssg77
g3568
sg70
(lp3580
S':'
asbag63
(g84
g65
NtRp3581
(dp3582
g68
(dp3583
sg77
g3568
sg70
(lp3584
g63
(g64
g65
NtRp3585
(dp3586
g68
(dp3587
g76
I4
ssg77
g3581
sg70
(lp3588
g481
ag63
(g72
g65
NtRp3589
(dp3590
g68
(dp3591
g76
I3
ssg77
Nsg70
(lp3592
g63
(g79
g65
NtRp3593
(dp3594
g68
(dp3595
sg77
g3589
sg70
(lp3596
g63
(g84
g65
NtRp3597
(dp3598
g68
(dp3599
g88
g89
ssg77
g3593
sg70
(lp3600
g300
asbag63
(g84
g65
NtRp3601
(dp3602
g68
(dp3603
g95
g96
ssg77
g3593
sg70
(lp3604
S':'
asbag63
(g84
g65
NtRp3605
(dp3606
g68
(dp3607
sg77
g3593
sg70
(lp3608
g63
(g64
g65
NtRp3609
(dp3610
g68
(dp3611
g76
I3
ssg77
g3605
sg70
(lp3612
S''
asbasbasbag63
(g79
g65
NtRp3613
(dp3614
g68
(dp3615
sg77
g3589
sg70
(lp3616
g63
(g84
g65
NtRp3617
(dp3618
g68
(dp3619
g88
g89
ssg77
g3613
sg70
(lp3620
g321
asbag63
(g84
g65
NtRp3621
(dp3622
g68
(dp3623
g95
g96
ssg77
g3613
sg70
(lp3624
S':'
asbag63
(g84
g65
NtRp3625
(dp3626
g68
(dp3627
sg77
g3613
sg70
(lp3628
g63
(g64
g65
NtRp3629
(dp3630
g68
(dp3631
g76
I3
ssg77
g3625
sg70
(lp3632
S''
asbasbasbag63
(g79
g65
NtRp3633
(dp3634
g68
(dp3635
sg77
g3589
sg70
(lp3636
g63
(g84
g65
NtRp3637
(dp3638
g68
(dp3639
g88
g89
ssg77
g3633
sg70
(lp3640
g342
asbag63
(g84
g65
NtRp3641
(dp3642
g68
(dp3643
g95
g96
ssg77
g3633
sg70
(lp3644
S':'
asbag63
(g84
g65
NtRp3645
(dp3646
g68
(dp3647
sg77
g3633
sg70
(lp3648
g63
(g64
g65
NtRp3649
(dp3650
g68
(dp3651
g76
I3
ssg77
g3645
sg70
(lp3652
S''
asbasbasbag63
(g79
g65
NtRp3653
(dp3654
g68
(dp3655
sg77
g3589
sg70
(lp3656
g63
(g84
g65
NtRp3657
(dp3658
g68
(dp3659
g88
g89
ssg77
g3653
sg70
(lp3660
g363
asbag63
(g84
g65
NtRp3661
(dp3662
g68
(dp3663
g95
g96
ssg77
g3653
sg70
(lp3664
S':'
asbag63
(g84
g65
NtRp3665
(dp3666
g68
(dp3667
sg77
g3653
sg70
(lp3668
g63
(g64
g65
NtRp3669
(dp3670
g68
(dp3671
g76
I3
ssg77
g3665
sg70
(lp3672
S''
asbasbasbag63
(g79
g65
NtRp3673
(dp3674
g68
(dp3675
sg77
g3589
sg70
(lp3676
g63
(g84
g65
NtRp3677
(dp3678
g68
(dp3679
g88
g89
ssg77
g3673
sg70
(lp3680
g384
asbag63
(g84
g65
NtRp3681
(dp3682
g68
(dp3683
g95
g96
ssg77
g3673
sg70
(lp3684
S':'
asbag63
(g84
g65
NtRp3685
(dp3686
g68
(dp3687
sg77
g3673
sg70
(lp3688
g63
(g64
g65
NtRp3689
(dp3690
g68
(dp3691
g76
I3
ssg77
g3685
sg70
(lp3692
S''
asbasbasbag63
(g79
g65
NtRp3693
(dp3694
g68
(dp3695
sg77
g3589
sg70
(lp3696
g63
(g84
g65
NtRp3697
(dp3698
g68
(dp3699
g88
g89
ssg77
g3693
sg70
(lp3700
g405
asbag63
(g84
g65
NtRp3701
(dp3702
g68
(dp3703
g95
g96
ssg77
g3693
sg70
(lp3704
S':'
asbag63
(g84
g65
NtRp3705
(dp3706
g68
(dp3707
sg77
g3693
sg70
(lp3708
g63
(g64
g65
NtRp3709
(dp3710
g68
(dp3711
g76
I3
ssg77
g3705
sg70
(lp3712
S'/'
asbasbasbag63
(g79
g65
NtRp3713
(dp3714
g68
(dp3715
sg77
g3589
sg70
(lp3716
g63
(g84
g65
NtRp3717
(dp3718
g68
(dp3719
g88
g89
ssg77
g3713
sg70
(lp3720
g426
asbag63
(g84
g65
NtRp3721
(dp3722
g68
(dp3723
g95
g96
ssg77
g3713
sg70
(lp3724
S':'
asbag63
(g84
g65
NtRp3725
(dp3726
g68
(dp3727
sg77
g3713
sg70
(lp3728
g63
(g64
g65
NtRp3729
(dp3730
g68
(dp3731
g76
I3
ssg77
g3725
sg70
(lp3732
S''
asbasbasbag63
(g79
g65
NtRp3733
(dp3734
g68
(dp3735
sg77
g3589
sg70
(lp3736
g63
(g84
g65
NtRp3737
(dp3738
g68
(dp3739
g88
g89
ssg77
g3733
sg70
(lp3740
g447
asbag63
(g84
g65
NtRp3741
(dp3742
g68
(dp3743
g95
g96
ssg77
g3733
sg70
(lp3744
S':'
asbag63
(g84
g65
NtRp3745
(dp3746
g68
(dp3747
sg77
g3733
sg70
(lp3748
g63
(g64
g65
NtRp3749
(dp3750
g68
(dp3751
g76
I3
ssg77
g3745
sg70
(lp3752
S''
asbasbasbasbasbasbasbasbasbasbasbag63
(g79
g65
NtRp3753
(dp3754
g68
(dp3755
sg77
g3519
sg70
(lp3756
g63
(g84
g65
NtRp3757
(dp3758
g68
(dp3759
g88
g89
ssg77
g3753
sg70
(lp3760
S'delimiters'
p3761
asbag63
(g84
g65
NtRp3762
(dp3763
g68
(dp3764
g95
g96
ssg77
g3753
sg70
(lp3765
S':'
asbag63
(g84
g65
NtRp3766
(dp3767
g68
(dp3768
sg77
g3753
sg70
(lp3769
g63
(g64
g65
NtRp3770
(dp3771
g68
(dp3772
g76
I5
ssg77
g3766
sg70
(lp3773
g63
(g72
g65
NtRp3774
(dp3775
g68
(dp3776
g76
I4
ssg77
Nsg70
(lp3777
g63
(g79
g65
NtRp3778
(dp3779
g68
(dp3780
sg77
g3774
sg70
(lp3781
g63
(g84
g65
NtRp3782
(dp3783
g68
(dp3784
sg77
g3778
sg70
(lp3785
g63
(g64
g65
NtRp3786
(dp3787
g68
(dp3788
g76
I4
ssg77
g3782
sg70
(lp3789
S'{{'
p3790
asbasbasbag63
(g79
g65
NtRp3791
(dp3792
g68
(dp3793
sg77
g3774
sg70
(lp3794
g63
(g84
g65
NtRp3795
(dp3796
g68
(dp3797
sg77
g3791
sg70
(lp3798
g63
(g64
g65
NtRp3799
(dp3800
g68
(dp3801
g76
I4
ssg77
g3795
sg70
(lp3802
S'}}'
p3803
asbasbasbasbasbasbasbag63
(g79
g65
NtRp3804
(dp3805
g68
(dp3806
sg77
g3519
sg70
(lp3807
g63
(g84
g65
NtRp3808
(dp3809
g68
(dp3810
g88
g89
ssg77
g3804
sg70
(lp3811
S'files'
p3812
asbag63
(g84
g65
NtRp3813
(dp3814
g68
(dp3815
g95
g96
ssg77
g3804
sg70
(lp3816
S':'
asbag63
(g84
g65
NtRp3817
(dp3818
g68
(dp3819
sg77
g3804
sg70
(lp3820
g63
(g64
g65
NtRp3821
(dp3822
g68
(dp3823
g76
I5
ssg77
g3817
sg70
(lp3824
g63
(g72
g65
NtRp3825
(dp3826
g68
(dp3827
g76
I4
ssg77
Nsg70
(lp3828
sbasbasbasbag63
(g79
g65
NtRp3829
(dp3830
g68
(dp3831
sg77
g3519
sg70
(lp3832
g63
(g84
g65
NtRp3833
(dp3834
g68
(dp3835
g88
g89
ssg77
g3829
sg70
(lp3836
S'flash'
p3837
asbag63
(g84
g65
NtRp3838
(dp3839
g68
(dp3840
g95
g96
ssg77
g3829
sg70
(lp3841
S':'
asbag63
(g84
g65
NtRp3842
(dp3843
g68
(dp3844
sg77
g3829
sg70
(lp3845
g63
(g64
g65
NtRp3846
(dp3847
g68
(dp3848
g76
I5
ssg77
g3842
sg70
(lp3849
S''
asbasbasbag63
(g79
g65
NtRp3850
(dp3851
g68
(dp3852
sg77
g3519
sg70
(lp3853
g63
(g84
g65
NtRp3854
(dp3855
g68
(dp3856
g88
g89
ssg77
g3850
sg70
(lp3857
S'generic_patterns'
p3858
asbag63
(g84
g65
NtRp3859
(dp3860
g68
(dp3861
g95
g96
ssg77
g3850
sg70
(lp3862
S':'
asbag63
(g84
g65
NtRp3863
(dp3864
g68
(dp3865
sg77
g3850
sg70
(lp3866
g63
(g64
g65
NtRp3867
(dp3868
g68
(dp3869
g76
I5
ssg77
g3863
sg70
(lp3870
g63
(g72
g65
NtRp3871
(dp3872
g68
(dp3873
g76
I4
ssg77
Nsg70
(lp3874
g63
(g79
g65
NtRp3875
(dp3876
g68
(dp3877
sg77
g3871
sg70
(lp3878
g63
(g84
g65
NtRp3879
(dp3880
g68
(dp3881
sg77
g3875
sg70
(lp3882
g63
(g64
g65
NtRp3883
(dp3884
g68
(dp3885
g76
I4
ssg77
g3879
sg70
(lp3886
S'*'
asbasbasbasbasbasbasbag63
(g79
g65
NtRp3887
(dp3888
g68
(dp3889
sg77
g3519
sg70
(lp3890
g63
(g84
g65
NtRp3891
(dp3892
g68
(dp3893
g88
g89
ssg77
g3887
sg70
(lp3894
S'google_analytics_id'
p3895
asbag63
(g84
g65
NtRp3896
(dp3897
g68
(dp3898
g95
g96
ssg77
g3887
sg70
(lp3899
S':'
asbag63
(g84
g65
NtRp3900
(dp3901
g68
(dp3902
sg77
g3887
sg70
(lp3903
g63
(g64
g65
NtRp3904
(dp3905
g68
(dp3906
g76
I5
ssg77
g3900
sg70
(lp3907
S'None'
p3908
asbasbasbag63
(g79
g65
NtRp3909
(dp3910
g68
(dp3911
sg77
g3519
sg70
(lp3912
g63
(g84
g65
NtRp3913
(dp3914
g68
(dp3915
g88
g89
ssg77
g3909
sg70
(lp3916
S'headers'
p3917
asbag63
(g84
g65
NtRp3918
(dp3919
g68
(dp3920
g95
g96
ssg77
g3909
sg70
(lp3921
S':'
asbag63
(g84
g65
NtRp3922
(dp3923
g68
(dp3924
sg77
g3909
sg70
(lp3925
g63
(g64
g65
NtRp3926
(dp3927
g68
(dp3928
g76
I5
ssg77
g3922
sg70
(lp3929
g63
(g72
g65
NtRp3930
(dp3931
g68
(dp3932
g76
I4
ssg77
Nsg70
(lp3933
g63
(g79
g65
NtRp3934
(dp3935
g68
(dp3936
sg77
g3930
sg70
(lp3937
g63
(g84
g65
NtRp3938
(dp3939
g68
(dp3940
g88
g89
ssg77
g3934
sg70
(lp3941
S'X-Powered-By'
p3942
asbag63
(g84
g65
NtRp3943
(dp3944
g68
(dp3945
g95
g96
ssg77
g3934
sg70
(lp3946
S':'
asbag63
(g84
g65
NtRp3947
(dp3948
g68
(dp3949
sg77
g3934
sg70
(lp3950
g63
(g64
g65
NtRp3951
(dp3952
g68
(dp3953
g76
I4
ssg77
g3947
sg70
(lp3954
S'web2py'
p3955
asbasbasbasbasbasbasbag63
(g79
g65
NtRp3956
(dp3957
g68
(dp3958
sg77
g3519
sg70
(lp3959
g63
(g84
g65
NtRp3960
(dp3961
g68
(dp3962
g88
g89
ssg77
g3956
sg70
(lp3963
S'logo'
p3964
asbag63
(g84
g65
NtRp3965
(dp3966
g68
(dp3967
g95
g96
ssg77
g3956
sg70
(lp3968
S':'
asbag63
(g84
g65
NtRp3969
(dp3970
g68
(dp3971
sg77
g3956
sg70
(lp3972
g63
(g64
g65
NtRp3973
(dp3974
g68
(dp3975
g76
I5
ssg77
g3969
sg70
(lp3976
g63
(cgluon.html
A
p3977
g65
NtRp3978
(dp3979
g68
(dp3980
S'_class'
p3981
S'brand'
p3982
sS'_href'
p3983
S'http://www.web2py.com/'
p3984
ssg77
Nsg70
(lp3985
g63
(cgluon.html
B
p3986
g65
NtRp3987
(dp3988
g68
(dp3989
sg77
g3978
sg70
(lp3990
S'web'
p3991
ag63
(cgluon.html
SPAN
p3992
g65
NtRp3993
(dp3994
g68
(dp3995
sg77
g3987
sg70
(lp3996
I2
asbaS'py'
p3997
asbacgluon.html
XML_unpickle
p3998
(S's\r\x00\x00\x00&trade;&nbsp;'
tRp3999
asbasbasbasbag63
(g79
g65
NtRp4000
(dp4001
g68
(dp4002
sg77
g3519
sg70
(lp4003
g63
(g84
g65
NtRp4004
(dp4005
g68
(dp4006
g88
g89
ssg77
g4000
sg70
(lp4007
S'menu'
p4008
asbag63
(g84
g65
NtRp4009
(dp4010
g68
(dp4011
g95
g96
ssg77
g4000
sg70
(lp4012
S':'
asbag63
(g84
g65
NtRp4013
(dp4014
g68
(dp4015
sg77
g4000
sg70
(lp4016
g63
(g64
g65
NtRp4017
(dp4018
g68
(dp4019
g76
I5
ssg77
g4013
sg70
(lp4020
g63
(g72
g65
NtRp4021
(dp4022
g68
(dp4023
g76
I4
ssg77
Nsg70
(lp4024
g63
(g79
g65
NtRp4025
(dp4026
g68
(dp4027
sg77
g4021
sg70
(lp4028
g63
(g84
g65
NtRp4029
(dp4030
g68
(dp4031
sg77
g4025
sg70
(lp4032
g63
(g64
g65
NtRp4033
(dp4034
g68
(dp4035
g76
I4
ssg77
g4029
sg70
(lp4036
g63
(g72
g65
NtRp4037
(dp4038
g68
(dp4039
g76
I3
ssg77
Nsg70
(lp4040
g63
(g79
g65
NtRp4041
(dp4042
g68
(dp4043
sg77
g4037
sg70
(lp4044
g63
(g84
g65
NtRp4045
(dp4046
g68
(dp4047
sg77
g4041
sg70
(lp4048
g63
(g64
g65
NtRp4049
(dp4050
g68
(dp4051
g76
I3
ssg77
g4045
sg70
(lp4052
cgluon.languages
lazyT_unpickle
p4053
(S's\x04\x00\x00\x00Home'
tRp4054
asbasbasbag63
(g79
g65
NtRp4055
(dp4056
g68
(dp4057
sg77
g4037
sg70
(lp4058
g63
(g84
g65
NtRp4059
(dp4060
g68
(dp4061
sg77
g4055
sg70
(lp4062
g63
(g64
g65
NtRp4063
(dp4064
g68
(dp4065
g76
I3
ssg77
g4059
sg70
(lp4066
g805
asbasbasbag63
(g79
g65
NtRp4067
(dp4068
g68
(dp4069
sg77
g4037
sg70
(lp4070
g63
(g84
g65
NtRp4071
(dp4072
g68
(dp4073
sg77
g4067
sg70
(lp4074
g63
(g64
g65
NtRp4075
(dp4076
g68
(dp4077
g76
I3
ssg77
g4071
sg70
(lp4078
S'/welcome/default/index'
p4079
asbasbasbag63
(g79
g65
NtRp4080
(dp4081
g68
(dp4082
sg77
g4037
sg70
(lp4083
g63
(g84
g65
NtRp4084
(dp4085
g68
(dp4086
sg77
g4080
sg70
(lp4087
g63
(g64
g65
NtRp4088
(dp4089
g68
(dp4090
g76
I3
ssg77
g4084
sg70
(lp4091
g63
(g72
g65
NtRp4092
(dp4093
g68
(dp4094
g76
I2
ssg77
Nsg70
(lp4095
sbasbasbasbasbasbasbasbag63
(g79
g65
NtRp4096
(dp4097
g68
(dp4098
sg77
g4021
sg70
(lp4099
g63
(g84
g65
NtRp4100
(dp4101
g68
(dp4102
sg77
g4096
sg70
(lp4103
g63
(g64
g65
NtRp4104
(dp4105
g68
(dp4106
g76
I4
ssg77
g4100
sg70
(lp4107
g63
(g72
g65
NtRp4108
(dp4109
g68
(dp4110
g76
I3
ssg77
Nsg70
(lp4111
g63
(g79
g65
NtRp4112
(dp4113
g68
(dp4114
sg77
g4108
sg70
(lp4115
g63
(g84
g65
NtRp4116
(dp4117
g68
(dp4118
sg77
g4112
sg70
(lp4119
g63
(g64
g65
NtRp4120
(dp4121
g68
(dp4122
g76
I3
ssg77
g4116
sg70
(lp4123
g63
(g3992
g65
NtRp4124
(dp4125
g68
(dp4126
g3981
S'highlighted'
p4127
ssg77
Nsg70
(lp4128
g3955
asbasbasbasbag63
(g79
g65
NtRp4129
(dp4130
g68
(dp4131
sg77
g4108
sg70
(lp4132
g63
(g84
g65
NtRp4133
(dp4134
g68
(dp4135
sg77
g4129
sg70
(lp4136
g63
(g64
g65
NtRp4137
(dp4138
g68
(dp4139
g76
I3
ssg77
g4133
sg70
(lp4140
g805
asbasbasbag63
(g79
g65
NtRp4141
(dp4142
g68
(dp4143
sg77
g4108
sg70
(lp4144
g63
(g84
g65
NtRp4145
(dp4146
g68
(dp4147
sg77
g4141
sg70
(lp4148
g63
(g64
g65
NtRp4149
(dp4150
g68
(dp4151
g76
I3
ssg77
g4145
sg70
(lp4152
S'http://web2py.com'
p4153
asbasbasbag63
(g79
g65
NtRp4154
(dp4155
g68
(dp4156
sg77
g4108
sg70
(lp4157
g63
(g84
g65
NtRp4158
(dp4159
g68
(dp4160
sg77
g4154
sg70
(lp4161
g63
(g64
g65
NtRp4162
(dp4163
g68
(dp4164
g76
I3
ssg77
g4158
sg70
(lp4165
g63
(g72
g65
NtRp4166
(dp4167
g68
(dp4168
g76
I2
ssg77
Nsg70
(lp4169
g63
(g79
g65
NtRp4170
(dp4171
g68
(dp4172
sg77
g4166
sg70
(lp4173
g63
(g84
g65
NtRp4174
(dp4175
g68
(dp4176
sg77
g4170
sg70
(lp4177
g63
(g64
g65
NtRp4178
(dp4179
g68
(dp4180
g76
I2
ssg77
g4174
sg70
(lp4181
g63
(g72
g65
NtRp4182
(dp4183
g68
(dp4184
g76
I1
ssg77
Nsg70
(lp4185
g63
(g79
g65
NtRp4186
(dp4187
g68
(dp4188
sg77
g4182
sg70
(lp4189
g63
(g84
g65
NtRp4190
(dp4191
g68
(dp4192
sg77
g4186
sg70
(lp4193
g63
(g64
g65
NtRp4194
(dp4195
g68
(dp4196
g76
I1
ssg77
g4190
sg70
(lp4197
g4053
(S's\x08\x00\x00\x00My Sites'
tRp4198
asbasbasbag63
(g79
g65
NtRp4199
(dp4200
g68
(dp4201
sg77
g4182
sg70
(lp4202
g63
(g84
g65
NtRp4203
(dp4204
g68
(dp4205
sg77
g4199
sg70
(lp4206
g63
(g64
g65
NtRp4207
(dp4208
g68
(dp4209
g76
I1
ssg77
g4203
sg70
(lp4210
I00
asbasbasbag63
(g79
g65
NtRp4211
(dp4212
g68
(dp4213
sg77
g4182
sg70
(lp4214
g63
(g84
g65
NtRp4215
(dp4216
g68
(dp4217
sg77
g4211
sg70
(lp4218
g63
(g64
g65
NtRp4219
(dp4220
g68
(dp4221
g76
I1
ssg77
g4215
sg70
(lp4222
S'/admin/default/site'
p4223
asbasbasbasbasbasbasbag63
(g79
g65
NtRp4224
(dp4225
g68
(dp4226
sg77
g4166
sg70
(lp4227
g63
(g84
g65
NtRp4228
(dp4229
g68
(dp4230
sg77
g4224
sg70
(lp4231
g63
(g64
g65
NtRp4232
(dp4233
g68
(dp4234
g76
I2
ssg77
g4228
sg70
(lp4235
g63
(g72
g65
NtRp4236
(dp4237
g68
(dp4238
g76
I1
ssg77
Nsg70
(lp4239
g63
(g79
g65
NtRp4240
(dp4241
g68
(dp4242
sg77
g4236
sg70
(lp4243
g63
(g84
g65
NtRp4244
(dp4245
g68
(dp4246
sg77
g4240
sg70
(lp4247
g63
(g64
g65
NtRp4248
(dp4249
g68
(dp4250
g76
I1
ssg77
g4244
sg70
(lp4251
g4053
(S's\x08\x00\x00\x00This App'
tRp4252
asbasbasbag63
(g79
g65
NtRp4253
(dp4254
g68
(dp4255
sg77
g4236
sg70
(lp4256
g63
(g84
g65
NtRp4257
(dp4258
g68
(dp4259
sg77
g4253
sg70
(lp4260
g63
(g64
g65
NtRp4261
(dp4262
g68
(dp4263
g76
I1
ssg77
g4257
sg70
(lp4264
I00
asbasbasbag63
(g79
g65
NtRp4265
(dp4266
g68
(dp4267
sg77
g4236
sg70
(lp4268
g63
(g84
g65
NtRp4269
(dp4270
g68
(dp4271
sg77
g4265
sg70
(lp4272
g63
(g64
g65
NtRp4273
(dp4274
g68
(dp4275
g76
I1
ssg77
g4269
sg70
(lp4276
S'/admin/default/design/welcome'
p4277
asbasbasbag63
(g79
g65
NtRp4278
(dp4279
g68
(dp4280
sg77
g4236
sg70
(lp4281
g63
(g84
g65
NtRp4282
(dp4283
g68
(dp4284
sg77
g4278
sg70
(lp4285
g63
(g64
g65
NtRp4286
(dp4287
g68
(dp4288
g76
I1
ssg77
g4282
sg70
(lp4289
(lp4290
(g4053
(S's\n\x00\x00\x00Controller'
tRp4291
I00
S'/admin/default/edit/welcome/controllers/webrtc.py'
tp4292
a(g4053
(S's\x04\x00\x00\x00View'
tRp4293
I00
S'/admin/default/edit/welcome/views/webrtc/connect.html'
tp4294
a(g4053
(S's\x06\x00\x00\x00Layout'
tRp4295
I00
S'/admin/default/edit/welcome/views/layout.html'
tp4296
a(g4053
(S's\n\x00\x00\x00Stylesheet'
tRp4297
I00
S'/admin/default/edit/welcome/static/css/web2py.css'
tp4298
a(g4053
(S's\x08\x00\x00\x00DB Model'
tRp4299
I00
S'/admin/default/edit/welcome/models/db.py'
tp4300
a(g4053
(S's\n\x00\x00\x00Menu Model'
tRp4301
I00
S'/admin/default/edit/welcome/models/menu.py'
tp4302
a(g4053
(S's\x08\x00\x00\x00Database'
tRp4303
I00
S'/welcome/appadmin/index'
tp4304
a(g4053
(S's\x06\x00\x00\x00Errors'
tRp4305
I00
S'/admin/default/errors/welcome'
tp4306
a(g4053
(S's\x05\x00\x00\x00About'
tRp4307
I00
S'/admin/default/about/welcome'
tp4308
aasbasbasbasbasbasbasbag63
(g79
g65
NtRp4309
(dp4310
g68
(dp4311
sg77
g4166
sg70
(lp4312
g63
(g84
g65
NtRp4313
(dp4314
g68
(dp4315
sg77
g4309
sg70
(lp4316
g63
(g64
g65
NtRp4317
(dp4318
g68
(dp4319
g76
I2
ssg77
g4313
sg70
(lp4320
g63
(g72
g65
NtRp4321
(dp4322
g68
(dp4323
g76
I1
ssg77
Nsg70
(lp4324
g63
(g79
g65
NtRp4325
(dp4326
g68
(dp4327
sg77
g4321
sg70
(lp4328
g63
(g84
g65
NtRp4329
(dp4330
g68
(dp4331
sg77
g4325
sg70
(lp4332
g63
(g64
g65
NtRp4333
(dp4334
g68
(dp4335
g76
I1
ssg77
g4329
sg70
(lp4336
S'web2py.com'
p4337
asbasbasbag63
(g79
g65
NtRp4338
(dp4339
g68
(dp4340
sg77
g4321
sg70
(lp4341
g63
(g84
g65
NtRp4342
(dp4343
g68
(dp4344
sg77
g4338
sg70
(lp4345
g63
(g64
g65
NtRp4346
(dp4347
g68
(dp4348
g76
I1
ssg77
g4342
sg70
(lp4349
I00
asbasbasbag63
(g79
g65
NtRp4350
(dp4351
g68
(dp4352
sg77
g4321
sg70
(lp4353
g63
(g84
g65
NtRp4354
(dp4355
g68
(dp4356
sg77
g4350
sg70
(lp4357
g63
(g64
g65
NtRp4358
(dp4359
g68
(dp4360
g76
I1
ssg77
g4354
sg70
(lp4361
S'http://www.web2py.com'
p4362
asbasbasbag63
(g79
g65
NtRp4363
(dp4364
g68
(dp4365
sg77
g4321
sg70
(lp4366
g63
(g84
g65
NtRp4367
(dp4368
g68
(dp4369
sg77
g4363
sg70
(lp4370
g63
(g64
g65
NtRp4371
(dp4372
g68
(dp4373
g76
I1
ssg77
g4367
sg70
(lp4374
(lp4375
(g4053
(S's\x08\x00\x00\x00Download'
tRp4376
I00
S'http://www.web2py.com/examples/default/download'
p4377
tp4378
a(g4053
(S's\x07\x00\x00\x00Support'
tRp4379
I00
S'http://www.web2py.com/examples/default/support'
p4380
tp4381
a(g4053
(S's\x04\x00\x00\x00Demo'
tRp4382
I00
S'http://web2py.com/demo_admin'
p4383
tp4384
a(g4053
(S's\x0e\x00\x00\x00Quick Examples'
tRp4385
I00
S'http://web2py.com/examples/default/examples'
p4386
tp4387
a(g4053
(S's\x03\x00\x00\x00FAQ'
tRp4388
I00
S'http://web2py.com/AlterEgo'
p4389
tp4390
a(g4053
(S's\x06\x00\x00\x00Videos'
tRp4391
I00
S'http://www.web2py.com/examples/default/videos/'
p4392
tp4393
a(g4053
(S's\x11\x00\x00\x00Free Applications'
tRp4394
I00
S'http://web2py.com/appliances'
p4395
tp4396
a(g4053
(S's\x07\x00\x00\x00Plugins'
tRp4397
I00
S'http://web2py.com/plugins'
p4398
tp4399
a(g4053
(S's\x07\x00\x00\x00Layouts'
tRp4400
I00
S'http://web2py.com/layouts'
p4401
tp4402
a(g4053
(S's\x07\x00\x00\x00Recipes'
tRp4403
I00
S'http://web2pyslices.com/'
p4404
tp4405
a(g4053
(S's\x08\x00\x00\x00Semantic'
tRp4406
I00
S'http://web2py.com/semantic'
p4407
tp4408
aasbasbasbasbasbasbasbag63
(g79
g65
NtRp4409
(dp4410
g68
(dp4411
sg77
g4166
sg70
(lp4412
g63
(g84
g65
NtRp4413
(dp4414
g68
(dp4415
sg77
g4409
sg70
(lp4416
g63
(g64
g65
NtRp4417
(dp4418
g68
(dp4419
g76
I2
ssg77
g4413
sg70
(lp4420
g63
(g72
g65
NtRp4421
(dp4422
g68
(dp4423
g76
I1
ssg77
Nsg70
(lp4424
g63
(g79
g65
NtRp4425
(dp4426
g68
(dp4427
sg77
g4421
sg70
(lp4428
g63
(g84
g65
NtRp4429
(dp4430
g68
(dp4431
sg77
g4425
sg70
(lp4432
g63
(g64
g65
NtRp4433
(dp4434
g68
(dp4435
g76
I1
ssg77
g4429
sg70
(lp4436
g4053
(S's\r\x00\x00\x00Documentation'
tRp4437
asbasbasbag63
(g79
g65
NtRp4438
(dp4439
g68
(dp4440
sg77
g4421
sg70
(lp4441
g63
(g84
g65
NtRp4442
(dp4443
g68
(dp4444
sg77
g4438
sg70
(lp4445
g63
(g64
g65
NtRp4446
(dp4447
g68
(dp4448
g76
I1
ssg77
g4442
sg70
(lp4449
I00
asbasbasbag63
(g79
g65
NtRp4450
(dp4451
g68
(dp4452
sg77
g4421
sg70
(lp4453
g63
(g84
g65
NtRp4454
(dp4455
g68
(dp4456
sg77
g4450
sg70
(lp4457
g63
(g64
g65
NtRp4458
(dp4459
g68
(dp4460
g76
I1
ssg77
g4454
sg70
(lp4461
S'http://www.web2py.com/book'
p4462
asbasbasbag63
(g79
g65
NtRp4463
(dp4464
g68
(dp4465
sg77
g4421
sg70
(lp4466
g63
(g84
g65
NtRp4467
(dp4468
g68
(dp4469
sg77
g4463
sg70
(lp4470
g63
(g64
g65
NtRp4471
(dp4472
g68
(dp4473
g76
I1
ssg77
g4467
sg70
(lp4474
(lp4475
(g4053
(S's\x07\x00\x00\x00Preface'
tRp4476
I00
S'http://www.web2py.com/book/default/chapter/00'
p4477
tp4478
a(g4053
(S's\x0c\x00\x00\x00Introduction'
tRp4479
I00
S'http://www.web2py.com/book/default/chapter/01'
p4480
tp4481
a(g4053
(S's\x06\x00\x00\x00Python'
tRp4482
I00
S'http://www.web2py.com/book/default/chapter/02'
p4483
tp4484
a(g4053
(S's\x08\x00\x00\x00Overview'
tRp4485
I00
S'http://www.web2py.com/book/default/chapter/03'
p4486
tp4487
a(g4053
(S's\x08\x00\x00\x00The Core'
tRp4488
I00
S'http://www.web2py.com/book/default/chapter/04'
p4489
tp4490
a(g4053
(S's\t\x00\x00\x00The Views'
tRp4491
I00
S'http://www.web2py.com/book/default/chapter/05'
p4492
tp4493
a(g4053
(S's\x08\x00\x00\x00Database'
tRp4494
I00
S'http://www.web2py.com/book/default/chapter/06'
p4495
tp4496
a(g4053
(S's\x14\x00\x00\x00Forms and Validators'
tRp4497
I00
S'http://www.web2py.com/book/default/chapter/07'
p4498
tp4499
a(g4053
(S's\r\x00\x00\x00Email and SMS'
tRp4500
I00
S'http://www.web2py.com/book/default/chapter/08'
p4501
tp4502
a(g4053
(S's\x0e\x00\x00\x00Access Control'
tRp4503
I00
S'http://www.web2py.com/book/default/chapter/09'
p4504
tp4505
a(g4053
(S's\x08\x00\x00\x00Services'
tRp4506
I00
S'http://www.web2py.com/book/default/chapter/10'
p4507
tp4508
a(g4053
(S's\x0c\x00\x00\x00Ajax Recipes'
tRp4509
I00
S'http://www.web2py.com/book/default/chapter/11'
p4510
tp4511
a(g4053
(S's\x16\x00\x00\x00Components and Plugins'
tRp4512
I00
S'http://www.web2py.com/book/default/chapter/12'
p4513
tp4514
a(g4053
(S's\x12\x00\x00\x00Deployment Recipes'
tRp4515
I00
S'http://www.web2py.com/book/default/chapter/13'
p4516
tp4517
a(g4053
(S's\r\x00\x00\x00Other Recipes'
tRp4518
I00
S'http://www.web2py.com/book/default/chapter/14'
p4519
tp4520
a(g4053
(S's\r\x00\x00\x00Buy this book'
tRp4521
I00
S'http://stores.lulu.com/web2py'
p4522
tp4523
aasbasbasbasbasbasbasbag63
(g79
g65
NtRp4524
(dp4525
g68
(dp4526
sg77
g4166
sg70
(lp4527
g63
(g84
g65
NtRp4528
(dp4529
g68
(dp4530
sg77
g4524
sg70
(lp4531
g63
(g64
g65
NtRp4532
(dp4533
g68
(dp4534
g76
I2
ssg77
g4528
sg70
(lp4535
g63
(g72
g65
NtRp4536
(dp4537
g68
(dp4538
g76
I1
ssg77
Nsg70
(lp4539
g63
(g79
g65
NtRp4540
(dp4541
g68
(dp4542
sg77
g4536
sg70
(lp4543
g63
(g84
g65
NtRp4544
(dp4545
g68
(dp4546
sg77
g4540
sg70
(lp4547
g63
(g64
g65
NtRp4548
(dp4549
g68
(dp4550
g76
I1
ssg77
g4544
sg70
(lp4551
g4053
(S's\t\x00\x00\x00Community'
tRp4552
asbasbasbag63
(g79
g65
NtRp4553
(dp4554
g68
(dp4555
sg77
g4536
sg70
(lp4556
g63
(g84
g65
NtRp4557
(dp4558
g68
(dp4559
sg77
g4553
sg70
(lp4560
g63
(g64
g65
NtRp4561
(dp4562
g68
(dp4563
g76
I1
ssg77
g4557
sg70
(lp4564
I00
asbasbasbag63
(g79
g65
NtRp4565
(dp4566
g68
(dp4567
sg77
g4536
sg70
(lp4568
g63
(g84
g65
NtRp4569
(dp4570
g68
(dp4571
sg77
g4565
sg70
(lp4572
g63
(g64
g65
NtRp4573
(dp4574
g68
(dp4575
g76
I1
ssg77
g4569
sg70
(lp4576
Nasbasbasbag63
(g79
g65
NtRp4577
(dp4578
g68
(dp4579
sg77
g4536
sg70
(lp4580
g63
(g84
g65
NtRp4581
(dp4582
g68
(dp4583
sg77
g4577
sg70
(lp4584
g63
(g64
g65
NtRp4585
(dp4586
g68
(dp4587
g76
I1
ssg77
g4581
sg70
(lp4588
(lp4589
(g4053
(S's\x06\x00\x00\x00Groups'
tRp4590
I00
S'http://www.web2py.com/examples/default/usergroups'
p4591
tp4592
a(g4053
(S's\x07\x00\x00\x00Twitter'
tRp4593
I00
S'http://twitter.com/web2py'
p4594
tp4595
a(g4053
(S's\t\x00\x00\x00Live Chat'
tRp4596
I00
S'http://webchat.freenode.net/?channels=web2py'
p4597
tp4598
aasbasbasbasbasbasbasbag63
(g79
g65
NtRp4599
(dp4600
g68
(dp4601
sg77
g4166
sg70
(lp4602
g63
(g84
g65
NtRp4603
(dp4604
g68
(dp4605
sg77
g4599
sg70
(lp4606
g63
(g64
g65
NtRp4607
(dp4608
g68
(dp4609
g76
I2
ssg77
g4603
sg70
(lp4610
g63
(g72
g65
NtRp4611
(dp4612
g68
(dp4613
g76
I1
ssg77
Nsg70
(lp4614
g63
(g79
g65
NtRp4615
(dp4616
g68
(dp4617
sg77
g4611
sg70
(lp4618
g63
(g84
g65
NtRp4619
(dp4620
g68
(dp4621
sg77
g4615
sg70
(lp4622
g63
(g64
g65
NtRp4623
(dp4624
g68
(dp4625
g76
I1
ssg77
g4619
sg70
(lp4626
g4053
(S's\x07\x00\x00\x00Plugins'
tRp4627
asbasbasbag63
(g79
g65
NtRp4628
(dp4629
g68
(dp4630
sg77
g4611
sg70
(lp4631
g63
(g84
g65
NtRp4632
(dp4633
g68
(dp4634
sg77
g4628
sg70
(lp4635
g63
(g64
g65
NtRp4636
(dp4637
g68
(dp4638
g76
I1
ssg77
g4632
sg70
(lp4639
I00
asbasbasbag63
(g79
g65
NtRp4640
(dp4641
g68
(dp4642
sg77
g4611
sg70
(lp4643
g63
(g84
g65
NtRp4644
(dp4645
g68
(dp4646
sg77
g4640
sg70
(lp4647
g63
(g64
g65
NtRp4648
(dp4649
g68
(dp4650
g76
I1
ssg77
g4644
sg70
(lp4651
Nasbasbasbag63
(g79
g65
NtRp4652
(dp4653
g68
(dp4654
sg77
g4611
sg70
(lp4655
g63
(g84
g65
NtRp4656
(dp4657
g68
(dp4658
sg77
g4652
sg70
(lp4659
g63
(g64
g65
NtRp4660
(dp4661
g68
(dp4662
g76
I1
ssg77
g4656
sg70
(lp4663
(lp4664
(S'plugin_wiki'
p4665
I00
S'http://web2py.com/examples/default/download'
p4666
tp4667
a(g4053
(S's\r\x00\x00\x00Other Plugins'
tRp4668
I00
g4398
tp4669
a(g4053
(S's\x0e\x00\x00\x00Layout Plugins'
tRp4670
I00
g4401
tp4671
aasbasbasbasbasbasbasbasbasbasbasbasbasbasbasbasbasbasbasbag63
(g79
g65
NtRp4672
(dp4673
g68
(dp4674
sg77
g3519
sg70
(lp4675
g63
(g84
g65
NtRp4676
(dp4677
g68
(dp4678
g88
g89
ssg77
g4672
sg70
(lp4679
S'meta'
p4680
asbag63
(g84
g65
NtRp4681
(dp4682
g68
(dp4683
g95
g96
ssg77
g4672
sg70
(lp4684
S':'
asbag63
(g84
g65
NtRp4685
(dp4686
g68
(dp4687
sg77
g4672
sg70
(lp4688
g63
(g64
g65
NtRp4689
(dp4690
g68
(dp4691
g76
I5
ssg77
g4685
sg70
(lp4692
g63
(g72
g65
NtRp4693
(dp4694
g68
(dp4695
g76
I4
ssg77
Nsg70
(lp4696
g63
(g79
g65
NtRp4697
(dp4698
g68
(dp4699
sg77
g4693
sg70
(lp4700
g63
(g84
g65
NtRp4701
(dp4702
g68
(dp4703
g88
g89
ssg77
g4697
sg70
(lp4704
S'author'
p4705
asbag63
(g84
g65
NtRp4706
(dp4707
g68
(dp4708
g95
g96
ssg77
g4697
sg70
(lp4709
S':'
asbag63
(g84
g65
NtRp4710
(dp4711
g68
(dp4712
sg77
g4697
sg70
(lp4713
g63
(g64
g65
NtRp4714
(dp4715
g68
(dp4716
g76
I4
ssg77
g4710
sg70
(lp4717
S'Your Name <you@example.com>'
p4718
asbasbasbag63
(g79
g65
NtRp4719
(dp4720
g68
(dp4721
sg77
g4693
sg70
(lp4722
g63
(g84
g65
NtRp4723
(dp4724
g68
(dp4725
g88
g89
ssg77
g4719
sg70
(lp4726
S'description'
p4727
asbag63
(g84
g65
NtRp4728
(dp4729
g68
(dp4730
g95
g96
ssg77
g4719
sg70
(lp4731
S':'
asbag63
(g84
g65
NtRp4732
(dp4733
g68
(dp4734
sg77
g4719
sg70
(lp4735
g63
(g64
g65
NtRp4736
(dp4737
g68
(dp4738
g76
I4
ssg77
g4732
sg70
(lp4739
S'a cool new app'
p4740
asbasbasbag63
(g79
g65
NtRp4741
(dp4742
g68
(dp4743
sg77
g4693
sg70
(lp4744
g63
(g84
g65
NtRp4745
(dp4746
g68
(dp4747
g88
g89
ssg77
g4741
sg70
(lp4748
S'generator'
p4749
asbag63
(g84
g65
NtRp4750
(dp4751
g68
(dp4752
g95
g96
ssg77
g4741
sg70
(lp4753
S':'
asbag63
(g84
g65
NtRp4754
(dp4755
g68
(dp4756
sg77
g4741
sg70
(lp4757
g63
(g64
g65
NtRp4758
(dp4759
g68
(dp4760
g76
I4
ssg77
g4754
sg70
(lp4761
S'Web2py Web Framework'
p4762
asbasbasbag63
(g79
g65
NtRp4763
(dp4764
g68
(dp4765
sg77
g4693
sg70
(lp4766
g63
(g84
g65
NtRp4767
(dp4768
g68
(dp4769
g88
g89
ssg77
g4763
sg70
(lp4770
S'keywords'
p4771
asbag63
(g84
g65
NtRp4772
(dp4773
g68
(dp4774
g95
g96
ssg77
g4763
sg70
(lp4775
S':'
asbag63
(g84
g65
NtRp4776
(dp4777
g68
(dp4778
sg77
g4763
sg70
(lp4779
g63
(g64
g65
NtRp4780
(dp4781
g68
(dp4782
g76
I4
ssg77
g4776
sg70
(lp4783
S'web2py, python, framework'
p4784
asbasbasbasbasbasbasbag63
(g79
g65
NtRp4785
(dp4786
g68
(dp4787
sg77
g3519
sg70
(lp4788
g63
(g84
g65
NtRp4789
(dp4790
g68
(dp4791
g88
g89
ssg77
g4785
sg70
(lp4792
S'models_to_run'
p4793
asbag63
(g84
g65
NtRp4794
(dp4795
g68
(dp4796
g95
g96
ssg77
g4785
sg70
(lp4797
S':'
asbag63
(g84
g65
NtRp4798
(dp4799
g68
(dp4800
sg77
g4785
sg70
(lp4801
g63
(g64
g65
NtRp4802
(dp4803
g68
(dp4804
g76
I5
ssg77
g4798
sg70
(lp4805
g63
(g72
g65
NtRp4806
(dp4807
g68
(dp4808
g76
I4
ssg77
Nsg70
(lp4809
g63
(g79
g65
NtRp4810
(dp4811
g68
(dp4812
sg77
g4806
sg70
(lp4813
g63
(g84
g65
NtRp4814
(dp4815
g68
(dp4816
sg77
g4810
sg70
(lp4817
g63
(g64
g65
NtRp4818
(dp4819
g68
(dp4820
g76
I4
ssg77
g4814
sg70
(lp4821
S'^\\w+\\.py$'
p4822
asbasbasbag63
(g79
g65
NtRp4823
(dp4824
g68
(dp4825
sg77
g4806
sg70
(lp4826
g63
(g84
g65
NtRp4827
(dp4828
g68
(dp4829
sg77
g4823
sg70
(lp4830
g63
(g64
g65
NtRp4831
(dp4832
g68
(dp4833
g76
I4
ssg77
g4827
sg70
(lp4834
S'^webrtc/\\w+\\.py$'
p4835
asbasbasbag63
(g79
g65
NtRp4836
(dp4837
g68
(dp4838
sg77
g4806
sg70
(lp4839
g63
(g84
g65
NtRp4840
(dp4841
g68
(dp4842
sg77
g4836
sg70
(lp4843
g63
(g64
g65
NtRp4844
(dp4845
g68
(dp4846
g76
I4
ssg77
g4840
sg70
(lp4847
S'^webrtc/connect/\\w+\\.py$'
p4848
asbasbasbasbasbasbasbag63
(g79
g65
NtRp4849
(dp4850
g68
(dp4851
sg77
g3519
sg70
(lp4852
g63
(g84
g65
NtRp4853
(dp4854
g68
(dp4855
g88
g89
ssg77
g4849
sg70
(lp4856
S'postprocessing'
p4857
asbag63
(g84
g65
NtRp4858
(dp4859
g68
(dp4860
g95
g96
ssg77
g4849
sg70
(lp4861
S':'
asbag63
(g84
g65
NtRp4862
(dp4863
g68
(dp4864
sg77
g4849
sg70
(lp4865
g63
(g64
g65
NtRp4866
(dp4867
g68
(dp4868
g76
I5
ssg77
g4862
sg70
(lp4869
g63
(g72
g65
NtRp4870
(dp4871
g68
(dp4872
g76
I4
ssg77
Nsg70
(lp4873
sbasbasbasbag63
(g79
g65
NtRp4874
(dp4875
g68
(dp4876
sg77
g3519
sg70
(lp4877
g63
(g84
g65
NtRp4878
(dp4879
g68
(dp4880
g88
g89
ssg77
g4874
sg70
(lp4881
S'session_cookie_expires'
p4882
asbag63
(g84
g65
NtRp4883
(dp4884
g68
(dp4885
g95
g96
ssg77
g4874
sg70
(lp4886
S':'
asbag63
(g84
g65
NtRp4887
(dp4888
g68
(dp4889
sg77
g4874
sg70
(lp4890
g63
(g64
g65
NtRp4891
(dp4892
g68
(dp4893
g76
I5
ssg77
g4887
sg70
(lp4894
S'None'
p4895
asbasbasbag63
(g79
g65
NtRp4896
(dp4897
g68
(dp4898
sg77
g3519
sg70
(lp4899
g63
(g84
g65
NtRp4900
(dp4901
g68
(dp4902
g88
g89
ssg77
g4896
sg70
(lp4903
S'session_data_name'
p4904
asbag63
(g84
g65
NtRp4905
(dp4906
g68
(dp4907
g95
g96
ssg77
g4896
sg70
(lp4908
S':'
asbag63
(g84
g65
NtRp4909
(dp4910
g68
(dp4911
sg77
g4896
sg70
(lp4912
g63
(g64
g65
NtRp4913
(dp4914
g68
(dp4915
g76
I5
ssg77
g4909
sg70
(lp4916
S'session_data_welcome'
p4917
asbasbasbag63
(g79
g65
NtRp4918
(dp4919
g68
(dp4920
sg77
g3519
sg70
(lp4921
g63
(g84
g65
NtRp4922
(dp4923
g68
(dp4924
g88
g89
ssg77
g4918
sg70
(lp4925
S'session_file'
p4926
asbag63
(g84
g65
NtRp4927
(dp4928
g68
(dp4929
g95
g96
ssg77
g4918
sg70
(lp4930
S':'
asbag63
(g84
g65
NtRp4931
(dp4932
g68
(dp4933
sg77
g4918
sg70
(lp4934
g63
(g64
g65
NtRp4935
(dp4936
g68
(dp4937
g76
I5
ssg77
g4931
sg70
(lp4938
S'None'
p4939
asbasbasbag63
(g79
g65
NtRp4940
(dp4941
g68
(dp4942
sg77
g3519
sg70
(lp4943
g63
(g84
g65
NtRp4944
(dp4945
g68
(dp4946
g88
g89
ssg77
g4940
sg70
(lp4947
S'session_filename'
p4948
asbag63
(g84
g65
NtRp4949
(dp4950
g68
(dp4951
g95
g96
ssg77
g4940
sg70
(lp4952
S':'
asbag63
(g84
g65
NtRp4953
(dp4954
g68
(dp4955
sg77
g4940
sg70
(lp4956
g63
(g64
g65
NtRp4957
(dp4958
g68
(dp4959
g76
I5
ssg77
g4953
sg70
(lp4960
S'D:\\Work\\webRTC\\web2py\\applications\\welcome\\sessions\\127.0.0.1-dbfdfe15-329d-49b6-859c-22e2bf3300d9'
p4961
asbasbasbag63
(g79
g65
NtRp4962
(dp4963
g68
(dp4964
sg77
g3519
sg70
(lp4965
g63
(g84
g65
NtRp4966
(dp4967
g68
(dp4968
g88
g89
ssg77
g4962
sg70
(lp4969
S'session_id'
p4970
asbag63
(g84
g65
NtRp4971
(dp4972
g68
(dp4973
g95
g96
ssg77
g4962
sg70
(lp4974
S':'
asbag63
(g84
g65
NtRp4975
(dp4976
g68
(dp4977
sg77
g4962
sg70
(lp4978
g63
(g64
g65
NtRp4979
(dp4980
g68
(dp4981
g76
I5
ssg77
g4975
sg70
(lp4982
g481
asbasbasbag63
(g79
g65
NtRp4983
(dp4984
g68
(dp4985
sg77
g3519
sg70
(lp4986
g63
(g84
g65
NtRp4987
(dp4988
g68
(dp4989
g88
g89
ssg77
g4983
sg70
(lp4990
S'session_id_name'
p4991
asbag63
(g84
g65
NtRp4992
(dp4993
g68
(dp4994
g95
g96
ssg77
g4983
sg70
(lp4995
S':'
asbag63
(g84
g65
NtRp4996
(dp4997
g68
(dp4998
sg77
g4983
sg70
(lp4999
g63
(g64
g65
NtRp5000
(dp5001
g68
(dp5002
g76
I5
ssg77
g4996
sg70
(lp5003
g3576
asbasbasbag63
(g79
g65
NtRp5004
(dp5005
g68
(dp5006
sg77
g3519
sg70
(lp5007
g63
(g84
g65
NtRp5008
(dp5009
g68
(dp5010
g88
g89
ssg77
g5004
sg70
(lp5011
S'session_new'
p5012
asbag63
(g84
g65
NtRp5013
(dp5014
g68
(dp5015
g95
g96
ssg77
g5004
sg70
(lp5016
S':'
asbag63
(g84
g65
NtRp5017
(dp5018
g68
(dp5019
sg77
g5004
sg70
(lp5020
g63
(g64
g65
NtRp5021
(dp5022
g68
(dp5023
g76
I5
ssg77
g5017
sg70
(lp5024
g805
asbasbasbag63
(g79
g65
NtRp5025
(dp5026
g68
(dp5027
sg77
g3519
sg70
(lp5028
g63
(g84
g65
NtRp5029
(dp5030
g68
(dp5031
g88
g89
ssg77
g5025
sg70
(lp5032
S'session_storage_type'
p5033
asbag63
(g84
g65
NtRp5034
(dp5035
g68
(dp5036
g95
g96
ssg77
g5025
sg70
(lp5037
S':'
asbag63
(g84
g65
NtRp5038
(dp5039
g68
(dp5040
sg77
g5025
sg70
(lp5041
g63
(g64
g65
NtRp5042
(dp5043
g68
(dp5044
g76
I5
ssg77
g5038
sg70
(lp5045
g3225
asbasbasbag63
(g79
g65
NtRp5046
(dp5047
g68
(dp5048
sg77
g3519
sg70
(lp5049
g63
(g84
g65
NtRp5050
(dp5051
g68
(dp5052
g88
g89
ssg77
g5046
sg70
(lp5053
S'status'
p5054
asbag63
(g84
g65
NtRp5055
(dp5056
g68
(dp5057
g95
g96
ssg77
g5046
sg70
(lp5058
S':'
asbag63
(g84
g65
NtRp5059
(dp5060
g68
(dp5061
sg77
g5046
sg70
(lp5062
g63
(g64
g65
NtRp5063
(dp5064
g68
(dp5065
g76
I5
ssg77
g5059
sg70
(lp5066
S'200'
p5067
asbasbasbag63
(g79
g65
NtRp5068
(dp5069
g68
(dp5070
sg77
g3519
sg70
(lp5071
g63
(g84
g65
NtRp5072
(dp5073
g68
(dp5074
g88
g89
ssg77
g5068
sg70
(lp5075
S'subtitle'
p5076
asbag63
(g84
g65
NtRp5077
(dp5078
g68
(dp5079
g95
g96
ssg77
g5068
sg70
(lp5080
S':'
asbag63
(g84
g65
NtRp5081
(dp5082
g68
(dp5083
sg77
g5068
sg70
(lp5084
g63
(g64
g65
NtRp5085
(dp5086
g68
(dp5087
g76
I5
ssg77
g5081
sg70
(lp5088
g4053
(S's\r\x00\x00\x00customize me!'
tRp5089
asbasbasbag63
(g79
g65
NtRp5090
(dp5091
g68
(dp5092
sg77
g3519
sg70
(lp5093
g63
(g84
g65
NtRp5094
(dp5095
g68
(dp5096
g88
g89
ssg77
g5090
sg70
(lp5097
S'title'
p5098
asbag63
(g84
g65
NtRp5099
(dp5100
g68
(dp5101
g95
g96
ssg77
g5090
sg70
(lp5102
S':'
asbag63
(g84
g65
NtRp5103
(dp5104
g68
(dp5105
sg77
g5090
sg70
(lp5106
g63
(g64
g65
NtRp5107
(dp5108
g68
(dp5109
g76
I5
ssg77
g5103
sg70
(lp5110
S'Welcome'
p5111
asbasbasbag63
(g79
g65
NtRp5112
(dp5113
g68
(dp5114
sg77
g3519
sg70
(lp5115
g63
(g84
g65
NtRp5116
(dp5117
g68
(dp5118
g88
g89
ssg77
g5112
sg70
(lp5119
S'view'
p5120
asbag63
(g84
g65
NtRp5121
(dp5122
g68
(dp5123
g95
g96
ssg77
g5112
sg70
(lp5124
S':'
asbag63
(g84
g65
NtRp5125
(dp5126
g68
(dp5127
sg77
g5112
sg70
(lp5128
g63
(g64
g65
NtRp5129
(dp5130
g68
(dp5131
g76
I5
ssg77
g5125
sg70
(lp5132
S'webrtc/connect.html'
p5133
asbasbasbasbasbsS'locals'
p5134
(dp5135
S'err'
p5136
S"error(10061, 'No connection could be made because the target machine actively refused it')"
p5137
sS'af'
p5138
S'2'
sS'canonname'
p5139
S"''"
p5140
sS'proto'
p5141
S'0'
sS'sock'
p5142
S'<socket._socketobject object>'
p5143
sS'host'
p5144
S"'127.0.0.1'"
p5145
sS'_'
S"error(10061, 'No connection could be made because the target machine actively refused it')"
p5146
sS'timeout'
p5147
S'<object object>'
p5148
sS'res'
p5149
S"(2, 1, 0, '', ('127.0.0.1', 8888))"
p5150
sS'socktype'
p5151
S'1'
sS'sa'
p5152
S"('127.0.0.1', 8888)"
p5153
sS'source_address'
p5154
S'None'
p5155
sS'port'
p5156
S'8888'
p5157
sS'address'
p5158
S"('127.0.0.1', 8888)"
p5159
sssS'traceback'
p5160
S'Traceback (most recent call last):\n  File "D:\\Work\\webRTC\\web2py\\gluon\\restricted.py", line 212, in restricted\n    exec ccode in environment\n  File "D:\\Work\\webRTC\\web2py\\applications\\welcome\\controllers/webrtc.py", line 23, in <module>\n  File "D:\\Work\\webRTC\\web2py\\gluon\\globals.py", line 193, in <lambda>\n    self._caller = lambda f: f()\n  File "D:\\Work\\webRTC\\web2py\\applications\\welcome\\controllers/webrtc.py", line 13, in connect\n    \'http://127.0.0.1:8888\',json.dumps(dict(sdp = request.vars.sdp)),\'rct\',\'rtc\')\n  File "D:\\Work\\webRTC\\web2py\\gluon\\contrib\\websocket_messaging.py", line 92, in websocket_send\n    f = urllib.urlopen(url, params)\n  File "d:\\python27\\lib\\urllib.py", line 88, in urlopen\n    return opener.open(url, data)\n  File "d:\\python27\\lib\\urllib.py", line 209, in open\n    return getattr(self, name)(url, data)\n  File "d:\\python27\\lib\\urllib.py", line 344, in open_http\n    h.endheaders(data)\n  File "d:\\python27\\lib\\httplib.py", line 954, in endheaders\n    self._send_output(message_body)\n  File "d:\\python27\\lib\\httplib.py", line 814, in _send_output\n    self.send(msg)\n  File "d:\\python27\\lib\\httplib.py", line 776, in send\n    self.connect()\n  File "d:\\python27\\lib\\httplib.py", line 757, in connect\n    self.timeout, self.source_address)\n  File "d:\\python27\\lib\\socket.py", line 571, in create_connection\n    raise err\nIOError: [Errno socket error] [Errno 10061] No connection could be made because the target machine actively refused it\n'
p5161
s.