(dp1
S'output'
p2
S"<type 'exceptions.TypeError'> 'NoneType' object is not iterable"
p3
sS'layer'
p4
S'D:\\Work\\webRTC\\web2py\\applications\\welcome\\controllers/webrtc.py'
p5
sS'code'
p6
S"# coding: utf8\n# try something like\nhost_name = request.env['http_host']\nhost_name = host_name[:host_name.find(':')]\ndef teacher():\n    import sha, random, base64\n    key_gen = base64.b64encode(sha.sha(str(random.random())).hexdigest())[:8]\n    db.rtc.insert(access_token = key_gen)\n    return dict(host = host_name,access_token = key_gen,class_name=request.args[0])\ndef student():\n    import sha, random, base64\n    key_gen = base64.b64encode(sha.sha(str(random.random())).hexdigest())[:8]\n    id = db.rtc.insert(access_token = key_gen)\n    relate_keys_db = db(db.rtc.id < id).select(db.rtc.access_token).first()\n    relate_keys = [str(item.access_token) for item in relate_keys_db]\n    return dict(host = host_name,access_token = key_gen,class_name=request.args[0],relate_keys= XML(relate_keys))\ndef connect():\n   from gluon.contrib.websocket_messaging import websocket_send\n   websocket_send('http://'+host_name+':8888',request.vars.msg,'rtc',request.args[0])\ndef demo():\n    response.files.append(URL('static','js/adapter.js')) \n    return dict()\n\nresponse._vars=response._caller(student)\n"
p7
sS'snapshot'
p8
(dp9
S'exception'
p10
(dp11
S'__hash__'
p12
S"<method-wrapper '__hash__' of exceptions.TypeError object>"
p13
sS'__setattr__'
p14
S"<method-wrapper '__setattr__' of exceptions.TypeError object>"
p15
sS'__reduce_ex__'
p16
S'<built-in method __reduce_ex__ of exceptions.TypeError object>'
p17
sS'__getslice__'
p18
S"<method-wrapper '__getslice__' of exceptions.TypeError object>"
p19
sS'__getitem__'
p20
S"<method-wrapper '__getitem__' of exceptions.TypeError object>"
p21
sS'__setstate__'
p22
S'<built-in method __setstate__ of exceptions.TypeError object>'
p23
sS'__reduce__'
p24
S'<built-in method __reduce__ of exceptions.TypeError object>'
p25
sS'__str__'
p26
S"<method-wrapper '__str__' of exceptions.TypeError object>"
p27
sS'__format__'
p28
S'<built-in method __format__ of exceptions.TypeError object>'
p29
sS'__getattribute__'
p30
S"<method-wrapper '__getattribute__' of exceptions.TypeError object>"
p31
sS'__class__'
p32
S"<type 'exceptions.TypeError'>"
p33
sS'__unicode__'
p34
S'<built-in method __unicode__ of exceptions.TypeError object>'
p35
sS'__delattr__'
p36
S"<method-wrapper '__delattr__' of exceptions.TypeError object>"
p37
sS'__subclasshook__'
p38
S'<built-in method __subclasshook__ of type object>'
p39
sS'__repr__'
p40
S"<method-wrapper '__repr__' of exceptions.TypeError object>"
p41
sS'__dict__'
p42
S'{}'
p43
sS'args'
p44
S'("\'NoneType\' object is not iterable",)'
p45
sS'__sizeof__'
p46
S'<built-in method __sizeof__ of exceptions.TypeError object>'
p47
sS'__doc__'
p48
S"'Inappropriate argument type.'"
p49
sS'__init__'
p50
S"<method-wrapper '__init__' of exceptions.TypeError object>"
p51
sS'__new__'
p52
S'<built-in method __new__ of type object>'
p53
ssS'evalue'
p54
S"'NoneType' object is not iterable"
p55
sS'request'
p56
ccopy_reg
_reconstructor
p57
(cgluon.html
BEAUTIFY
p58
c__builtin__
object
p59
NtRp60
(dp61
S'attributes'
p62
(dp63
sS'components'
p64
(lp65
g57
(cgluon.html
TABLE
p66
g59
NtRp67
(dp68
g62
(dp69
S'level'
p70
I5
ssS'parent'
p71
Nsg64
(lp72
g57
(cgluon.html
TR
p73
g59
NtRp74
(dp75
g62
(dp76
sg71
g67
sg64
(lp77
g57
(cgluon.html
TD
p78
g59
NtRp79
(dp80
g62
(dp81
S'_style'
p82
S'font-weight:bold;vertical-align:top'
p83
ssg71
g74
sg64
(lp84
S'ajax'
p85
asbag57
(g78
g59
NtRp86
(dp87
g62
(dp88
S'_valign'
p89
S'top'
p90
ssg71
g74
sg64
(lp91
S':'
asbag57
(g78
g59
NtRp92
(dp93
g62
(dp94
sg71
g74
sg64
(lp95
g57
(g58
g59
NtRp96
(dp97
g62
(dp98
g70
I5
ssg71
g92
sg64
(lp99
S'False'
p100
asbasbasbag57
(g73
g59
NtRp101
(dp102
g62
(dp103
sg71
g67
sg64
(lp104
g57
(g78
g59
NtRp105
(dp106
g62
(dp107
g82
g83
ssg71
g101
sg64
(lp108
S'application'
p109
asbag57
(g78
g59
NtRp110
(dp111
g62
(dp112
g89
g90
ssg71
g101
sg64
(lp113
S':'
asbag57
(g78
g59
NtRp114
(dp115
g62
(dp116
sg71
g101
sg64
(lp117
g57
(g58
g59
NtRp118
(dp119
g62
(dp120
g70
I5
ssg71
g114
sg64
(lp121
S'welcome'
p122
asbasbasbag57
(g73
g59
NtRp123
(dp124
g62
(dp125
sg71
g67
sg64
(lp126
g57
(g78
g59
NtRp127
(dp128
g62
(dp129
g82
g83
ssg71
g123
sg64
(lp130
g44
asbag57
(g78
g59
NtRp131
(dp132
g62
(dp133
g89
g90
ssg71
g123
sg64
(lp134
S':'
asbag57
(g78
g59
NtRp135
(dp136
g62
(dp137
sg71
g123
sg64
(lp138
g57
(g58
g59
NtRp139
(dp140
g62
(dp141
g70
I5
ssg71
g135
sg64
(lp142
g57
(g66
g59
NtRp143
(dp144
g62
(dp145
g70
I4
ssg71
Nsg64
(lp146
g57
(g73
g59
NtRp147
(dp148
g62
(dp149
sg71
g143
sg64
(lp150
g57
(g78
g59
NtRp151
(dp152
g62
(dp153
sg71
g147
sg64
(lp154
g57
(g58
g59
NtRp155
(dp156
g62
(dp157
g70
I4
ssg71
g151
sg64
(lp158
S'se0566'
p159
asbasbasbasbasbasbasbag57
(g73
g59
NtRp160
(dp161
g62
(dp162
sg71
g67
sg64
(lp163
g57
(g78
g59
NtRp164
(dp165
g62
(dp166
g82
g83
ssg71
g160
sg64
(lp167
S'body'
p168
asbag57
(g78
g59
NtRp169
(dp170
g62
(dp171
g89
g90
ssg71
g160
sg64
(lp172
S':'
asbag57
(g78
g59
NtRp173
(dp174
g62
(dp175
sg71
g160
sg64
(lp176
g57
(g58
g59
NtRp177
(dp178
g62
(dp179
g70
I5
ssg71
g173
sg64
(lp180
S'<cStringIO.StringO object at 0x0000000003782308>'
p181
asbasbasbag57
(g73
g59
NtRp182
(dp183
g62
(dp184
sg71
g67
sg64
(lp185
g57
(g78
g59
NtRp186
(dp187
g62
(dp188
g82
g83
ssg71
g182
sg64
(lp189
S'cid'
p190
asbag57
(g78
g59
NtRp191
(dp192
g62
(dp193
g89
g90
ssg71
g182
sg64
(lp194
S':'
asbag57
(g78
g59
NtRp195
(dp196
g62
(dp197
sg71
g182
sg64
(lp198
g57
(g58
g59
NtRp199
(dp200
g62
(dp201
g70
I5
ssg71
g195
sg64
(lp202
S'None'
p203
asbasbasbag57
(g73
g59
NtRp204
(dp205
g62
(dp206
sg71
g67
sg64
(lp207
g57
(g78
g59
NtRp208
(dp209
g62
(dp210
g82
g83
ssg71
g204
sg64
(lp211
S'client'
p212
asbag57
(g78
g59
NtRp213
(dp214
g62
(dp215
g89
g90
ssg71
g204
sg64
(lp216
S':'
asbag57
(g78
g59
NtRp217
(dp218
g62
(dp219
sg71
g204
sg64
(lp220
g57
(g58
g59
NtRp221
(dp222
g62
(dp223
g70
I5
ssg71
g217
sg64
(lp224
S'127.0.0.1'
p225
asbasbasbag57
(g73
g59
NtRp226
(dp227
g62
(dp228
sg71
g67
sg64
(lp229
g57
(g78
g59
NtRp230
(dp231
g62
(dp232
g82
g83
ssg71
g226
sg64
(lp233
S'controller'
p234
asbag57
(g78
g59
NtRp235
(dp236
g62
(dp237
g89
g90
ssg71
g226
sg64
(lp238
S':'
asbag57
(g78
g59
NtRp239
(dp240
g62
(dp241
sg71
g226
sg64
(lp242
g57
(g58
g59
NtRp243
(dp244
g62
(dp245
g70
I5
ssg71
g239
sg64
(lp246
S'webrtc'
p247
asbasbasbag57
(g73
g59
NtRp248
(dp249
g62
(dp250
sg71
g67
sg64
(lp251
g57
(g78
g59
NtRp252
(dp253
g62
(dp254
g82
g83
ssg71
g248
sg64
(lp255
S'cookies'
p256
asbag57
(g78
g59
NtRp257
(dp258
g62
(dp259
g89
g90
ssg71
g248
sg64
(lp260
S':'
asbag57
(g78
g59
NtRp261
(dp262
g62
(dp263
sg71
g248
sg64
(lp264
g57
(g58
g59
NtRp265
(dp266
g62
(dp267
g70
I5
ssg71
g261
sg64
(lp268
g57
(g66
g59
NtRp269
(dp270
g62
(dp271
g70
I4
ssg71
Nsg64
(lp272
g57
(g73
g59
NtRp273
(dp274
g62
(dp275
sg71
g269
sg64
(lp276
g57
(g78
g59
NtRp277
(dp278
g62
(dp279
g82
g83
ssg71
g273
sg64
(lp280
S'session_id_admin'
p281
asbag57
(g78
g59
NtRp282
(dp283
g62
(dp284
g89
g90
ssg71
g273
sg64
(lp285
S':'
asbag57
(g78
g59
NtRp286
(dp287
g62
(dp288
sg71
g273
sg64
(lp289
g57
(g58
g59
NtRp290
(dp291
g62
(dp292
g70
I4
ssg71
g286
sg64
(lp293
S'127.0.0.1-c1f37714-b311-41f1-baa1-6e08c53e8d61'
p294
ag57
(g66
g59
NtRp295
(dp296
g62
(dp297
g70
I3
ssg71
Nsg64
(lp298
g57
(g73
g59
NtRp299
(dp300
g62
(dp301
sg71
g295
sg64
(lp302
g57
(g78
g59
NtRp303
(dp304
g62
(dp305
g82
g83
ssg71
g299
sg64
(lp306
S'comment'
p307
asbag57
(g78
g59
NtRp308
(dp309
g62
(dp310
g89
g90
ssg71
g299
sg64
(lp311
S':'
asbag57
(g78
g59
NtRp312
(dp313
g62
(dp314
sg71
g299
sg64
(lp315
g57
(g58
g59
NtRp316
(dp317
g62
(dp318
g70
I3
ssg71
g312
sg64
(lp319
S''
asbasbasbag57
(g73
g59
NtRp320
(dp321
g62
(dp322
sg71
g295
sg64
(lp323
g57
(g78
g59
NtRp324
(dp325
g62
(dp326
g82
g83
ssg71
g320
sg64
(lp327
S'domain'
p328
asbag57
(g78
g59
NtRp329
(dp330
g62
(dp331
g89
g90
ssg71
g320
sg64
(lp332
S':'
asbag57
(g78
g59
NtRp333
(dp334
g62
(dp335
sg71
g320
sg64
(lp336
g57
(g58
g59
NtRp337
(dp338
g62
(dp339
g70
I3
ssg71
g333
sg64
(lp340
S''
asbasbasbag57
(g73
g59
NtRp341
(dp342
g62
(dp343
sg71
g295
sg64
(lp344
g57
(g78
g59
NtRp345
(dp346
g62
(dp347
g82
g83
ssg71
g341
sg64
(lp348
S'expires'
p349
asbag57
(g78
g59
NtRp350
(dp351
g62
(dp352
g89
g90
ssg71
g341
sg64
(lp353
S':'
asbag57
(g78
g59
NtRp354
(dp355
g62
(dp356
sg71
g341
sg64
(lp357
g57
(g58
g59
NtRp358
(dp359
g62
(dp360
g70
I3
ssg71
g354
sg64
(lp361
S''
asbasbasbag57
(g73
g59
NtRp362
(dp363
g62
(dp364
sg71
g295
sg64
(lp365
g57
(g78
g59
NtRp366
(dp367
g62
(dp368
g82
g83
ssg71
g362
sg64
(lp369
S'httponly'
p370
asbag57
(g78
g59
NtRp371
(dp372
g62
(dp373
g89
g90
ssg71
g362
sg64
(lp374
S':'
asbag57
(g78
g59
NtRp375
(dp376
g62
(dp377
sg71
g362
sg64
(lp378
g57
(g58
g59
NtRp379
(dp380
g62
(dp381
g70
I3
ssg71
g375
sg64
(lp382
S''
asbasbasbag57
(g73
g59
NtRp383
(dp384
g62
(dp385
sg71
g295
sg64
(lp386
g57
(g78
g59
NtRp387
(dp388
g62
(dp389
g82
g83
ssg71
g383
sg64
(lp390
S'max-age'
p391
asbag57
(g78
g59
NtRp392
(dp393
g62
(dp394
g89
g90
ssg71
g383
sg64
(lp395
S':'
asbag57
(g78
g59
NtRp396
(dp397
g62
(dp398
sg71
g383
sg64
(lp399
g57
(g58
g59
NtRp400
(dp401
g62
(dp402
g70
I3
ssg71
g396
sg64
(lp403
S''
asbasbasbag57
(g73
g59
NtRp404
(dp405
g62
(dp406
sg71
g295
sg64
(lp407
g57
(g78
g59
NtRp408
(dp409
g62
(dp410
g82
g83
ssg71
g404
sg64
(lp411
S'path'
p412
asbag57
(g78
g59
NtRp413
(dp414
g62
(dp415
g89
g90
ssg71
g404
sg64
(lp416
S':'
asbag57
(g78
g59
NtRp417
(dp418
g62
(dp419
sg71
g404
sg64
(lp420
g57
(g58
g59
NtRp421
(dp422
g62
(dp423
g70
I3
ssg71
g417
sg64
(lp424
S''
asbasbasbag57
(g73
g59
NtRp425
(dp426
g62
(dp427
sg71
g295
sg64
(lp428
g57
(g78
g59
NtRp429
(dp430
g62
(dp431
g82
g83
ssg71
g425
sg64
(lp432
S'secure'
p433
asbag57
(g78
g59
NtRp434
(dp435
g62
(dp436
g89
g90
ssg71
g425
sg64
(lp437
S':'
asbag57
(g78
g59
NtRp438
(dp439
g62
(dp440
sg71
g425
sg64
(lp441
g57
(g58
g59
NtRp442
(dp443
g62
(dp444
g70
I3
ssg71
g438
sg64
(lp445
S''
asbasbasbag57
(g73
g59
NtRp446
(dp447
g62
(dp448
sg71
g295
sg64
(lp449
g57
(g78
g59
NtRp450
(dp451
g62
(dp452
g82
g83
ssg71
g446
sg64
(lp453
S'version'
p454
asbag57
(g78
g59
NtRp455
(dp456
g62
(dp457
g89
g90
ssg71
g446
sg64
(lp458
S':'
asbag57
(g78
g59
NtRp459
(dp460
g62
(dp461
sg71
g446
sg64
(lp462
g57
(g58
g59
NtRp463
(dp464
g62
(dp465
g70
I3
ssg71
g459
sg64
(lp466
S''
asbasbasbasbasbasbasbag57
(g73
g59
NtRp467
(dp468
g62
(dp469
sg71
g269
sg64
(lp470
g57
(g78
g59
NtRp471
(dp472
g62
(dp473
g82
g83
ssg71
g467
sg64
(lp474
S'session_id_welcome'
p475
asbag57
(g78
g59
NtRp476
(dp477
g62
(dp478
g89
g90
ssg71
g467
sg64
(lp479
S':'
asbag57
(g78
g59
NtRp480
(dp481
g62
(dp482
sg71
g467
sg64
(lp483
g57
(g58
g59
NtRp484
(dp485
g62
(dp486
g70
I4
ssg71
g480
sg64
(lp487
S'127.0.0.1-7ff9ecdd-07e5-4ecb-bf3c-2658d2caa017'
p488
ag57
(g66
g59
NtRp489
(dp490
g62
(dp491
g70
I3
ssg71
Nsg64
(lp492
g57
(g73
g59
NtRp493
(dp494
g62
(dp495
sg71
g489
sg64
(lp496
g57
(g78
g59
NtRp497
(dp498
g62
(dp499
g82
g83
ssg71
g493
sg64
(lp500
g307
asbag57
(g78
g59
NtRp501
(dp502
g62
(dp503
g89
g90
ssg71
g493
sg64
(lp504
S':'
asbag57
(g78
g59
NtRp505
(dp506
g62
(dp507
sg71
g493
sg64
(lp508
g57
(g58
g59
NtRp509
(dp510
g62
(dp511
g70
I3
ssg71
g505
sg64
(lp512
S''
asbasbasbag57
(g73
g59
NtRp513
(dp514
g62
(dp515
sg71
g489
sg64
(lp516
g57
(g78
g59
NtRp517
(dp518
g62
(dp519
g82
g83
ssg71
g513
sg64
(lp520
g328
asbag57
(g78
g59
NtRp521
(dp522
g62
(dp523
g89
g90
ssg71
g513
sg64
(lp524
S':'
asbag57
(g78
g59
NtRp525
(dp526
g62
(dp527
sg71
g513
sg64
(lp528
g57
(g58
g59
NtRp529
(dp530
g62
(dp531
g70
I3
ssg71
g525
sg64
(lp532
S''
asbasbasbag57
(g73
g59
NtRp533
(dp534
g62
(dp535
sg71
g489
sg64
(lp536
g57
(g78
g59
NtRp537
(dp538
g62
(dp539
g82
g83
ssg71
g533
sg64
(lp540
g349
asbag57
(g78
g59
NtRp541
(dp542
g62
(dp543
g89
g90
ssg71
g533
sg64
(lp544
S':'
asbag57
(g78
g59
NtRp545
(dp546
g62
(dp547
sg71
g533
sg64
(lp548
g57
(g58
g59
NtRp549
(dp550
g62
(dp551
g70
I3
ssg71
g545
sg64
(lp552
S''
asbasbasbag57
(g73
g59
NtRp553
(dp554
g62
(dp555
sg71
g489
sg64
(lp556
g57
(g78
g59
NtRp557
(dp558
g62
(dp559
g82
g83
ssg71
g553
sg64
(lp560
g370
asbag57
(g78
g59
NtRp561
(dp562
g62
(dp563
g89
g90
ssg71
g553
sg64
(lp564
S':'
asbag57
(g78
g59
NtRp565
(dp566
g62
(dp567
sg71
g553
sg64
(lp568
g57
(g58
g59
NtRp569
(dp570
g62
(dp571
g70
I3
ssg71
g565
sg64
(lp572
S''
asbasbasbag57
(g73
g59
NtRp573
(dp574
g62
(dp575
sg71
g489
sg64
(lp576
g57
(g78
g59
NtRp577
(dp578
g62
(dp579
g82
g83
ssg71
g573
sg64
(lp580
g391
asbag57
(g78
g59
NtRp581
(dp582
g62
(dp583
g89
g90
ssg71
g573
sg64
(lp584
S':'
asbag57
(g78
g59
NtRp585
(dp586
g62
(dp587
sg71
g573
sg64
(lp588
g57
(g58
g59
NtRp589
(dp590
g62
(dp591
g70
I3
ssg71
g585
sg64
(lp592
S''
asbasbasbag57
(g73
g59
NtRp593
(dp594
g62
(dp595
sg71
g489
sg64
(lp596
g57
(g78
g59
NtRp597
(dp598
g62
(dp599
g82
g83
ssg71
g593
sg64
(lp600
g412
asbag57
(g78
g59
NtRp601
(dp602
g62
(dp603
g89
g90
ssg71
g593
sg64
(lp604
S':'
asbag57
(g78
g59
NtRp605
(dp606
g62
(dp607
sg71
g593
sg64
(lp608
g57
(g58
g59
NtRp609
(dp610
g62
(dp611
g70
I3
ssg71
g605
sg64
(lp612
S''
asbasbasbag57
(g73
g59
NtRp613
(dp614
g62
(dp615
sg71
g489
sg64
(lp616
g57
(g78
g59
NtRp617
(dp618
g62
(dp619
g82
g83
ssg71
g613
sg64
(lp620
g433
asbag57
(g78
g59
NtRp621
(dp622
g62
(dp623
g89
g90
ssg71
g613
sg64
(lp624
S':'
asbag57
(g78
g59
NtRp625
(dp626
g62
(dp627
sg71
g613
sg64
(lp628
g57
(g58
g59
NtRp629
(dp630
g62
(dp631
g70
I3
ssg71
g625
sg64
(lp632
S''
asbasbasbag57
(g73
g59
NtRp633
(dp634
g62
(dp635
sg71
g489
sg64
(lp636
g57
(g78
g59
NtRp637
(dp638
g62
(dp639
g82
g83
ssg71
g633
sg64
(lp640
g454
asbag57
(g78
g59
NtRp641
(dp642
g62
(dp643
g89
g90
ssg71
g633
sg64
(lp644
S':'
asbag57
(g78
g59
NtRp645
(dp646
g62
(dp647
sg71
g633
sg64
(lp648
g57
(g58
g59
NtRp649
(dp650
g62
(dp651
g70
I3
ssg71
g645
sg64
(lp652
S''
asbasbasbasbasbasbasbasbasbasbasbag57
(g73
g59
NtRp653
(dp654
g62
(dp655
sg71
g67
sg64
(lp656
g57
(g78
g59
NtRp657
(dp658
g62
(dp659
g82
g83
ssg71
g653
sg64
(lp660
S'env'
p661
asbag57
(g78
g59
NtRp662
(dp663
g62
(dp664
g89
g90
ssg71
g653
sg64
(lp665
S':'
asbag57
(g78
g59
NtRp666
(dp667
g62
(dp668
sg71
g653
sg64
(lp669
g57
(g58
g59
NtRp670
(dp671
g62
(dp672
g70
I5
ssg71
g666
sg64
(lp673
g57
(g66
g59
NtRp674
(dp675
g62
(dp676
g70
I4
ssg71
Nsg64
(lp677
g57
(g73
g59
NtRp678
(dp679
g62
(dp680
sg71
g674
sg64
(lp681
g57
(g78
g59
NtRp682
(dp683
g62
(dp684
g82
g83
ssg71
g678
sg64
(lp685
S'app_folders'
p686
asbag57
(g78
g59
NtRp687
(dp688
g62
(dp689
g89
g90
ssg71
g678
sg64
(lp690
S':'
asbag57
(g78
g59
NtRp691
(dp692
g62
(dp693
sg71
g678
sg64
(lp694
g57
(g58
g59
NtRp695
(dp696
g62
(dp697
g70
I4
ssg71
g691
sg64
(lp698
S"set(['D:\\\\Work\\\\webRTC\\\\web2py\\\\applications\\\\welcome\\\\', 'D:\\\\Work\\\\webRTC\\\\web2py\\\\applications\\\\admin\\\\'])"
p699
asbasbasbag57
(g73
g59
NtRp700
(dp701
g62
(dp702
sg71
g674
sg64
(lp703
g57
(g78
g59
NtRp704
(dp705
g62
(dp706
g82
g83
ssg71
g700
sg64
(lp707
S'applications_parent'
p708
asbag57
(g78
g59
NtRp709
(dp710
g62
(dp711
g89
g90
ssg71
g700
sg64
(lp712
S':'
asbag57
(g78
g59
NtRp713
(dp714
g62
(dp715
sg71
g700
sg64
(lp716
g57
(g58
g59
NtRp717
(dp718
g62
(dp719
g70
I4
ssg71
g713
sg64
(lp720
S'D:\\Work\\webRTC\\web2py'
p721
asbasbasbag57
(g73
g59
NtRp722
(dp723
g62
(dp724
sg71
g674
sg64
(lp725
g57
(g78
g59
NtRp726
(dp727
g62
(dp728
g82
g83
ssg71
g722
sg64
(lp729
S'cmd_args'
p730
asbag57
(g78
g59
NtRp731
(dp732
g62
(dp733
g89
g90
ssg71
g722
sg64
(lp734
S':'
asbag57
(g78
g59
NtRp735
(dp736
g62
(dp737
sg71
g722
sg64
(lp738
g57
(g58
g59
NtRp739
(dp740
g62
(dp741
g70
I4
ssg71
g735
sg64
(lp742
g57
(g66
g59
NtRp743
(dp744
g62
(dp745
g70
I3
ssg71
Nsg64
(lp746
sbasbasbasbag57
(g73
g59
NtRp747
(dp748
g62
(dp749
sg71
g674
sg64
(lp750
g57
(g78
g59
NtRp751
(dp752
g62
(dp753
g82
g83
ssg71
g747
sg64
(lp754
S'cmd_options'
p755
asbag57
(g78
g59
NtRp756
(dp757
g62
(dp758
g89
g90
ssg71
g747
sg64
(lp759
S':'
asbag57
(g78
g59
NtRp760
(dp761
g62
(dp762
sg71
g747
sg64
(lp763
g57
(g58
g59
NtRp764
(dp765
g62
(dp766
g70
I4
ssg71
g760
sg64
(lp767
S"<Values at 0x3779cc8: {'verbose': False, 'ip': '127.0.0.1', 'with_scheduler': False, 'ips': ['192.168.0.112', '2001:0:9d38:6ab8:24b1:2bb4:8e5e:bea5', 'fe80::24b1:2bb4:8e5e:bea5%14', 'fe80::91ec:31f9:5083:69f3%15'], 'shutdown_timeout': 5, 'taskbar': False, 'port': 8000, 'maxthreads': None, 'softcron': False, 'server_name': 'SonTHN-Hoiio', 'bpython': False, 'nogui': False, 'pid_filename': 'httpserver.pid', 'extcron': False, 'runcron': False, 'run_system_tests': False, 'test': None, 'folder': 'D:\\\\Work\\\\webRTC\\\\web2py', 'config': '', 'import_models': False, 'winservice': '', 'shell': None, 'run': '', 'log_filename': 'httpserver.log', 'debuglevel': 30, 'args': [''], 'socket_timeout': 5, 'ssl_ca_certificate': None, 'scheduler': None, 'profiler_filename': None, 'ssl_private_key': '', 'scheduler_groups': None, 'password': '<ask>', 'request_queue_size': 5, 'ssl_certificate': '', 'cronjob': False, 'numthreads': None, 'quiet': False, 'interfaces': None, 'minthreads': None, 'timeout': 10, 'plain': False, 'nobanner': False}>"
p768
asbasbasbag57
(g73
g59
NtRp769
(dp770
g62
(dp771
sg71
g674
sg64
(lp772
g57
(g78
g59
NtRp773
(dp774
g62
(dp775
g82
g83
ssg71
g769
sg64
(lp776
S'db_sessions'
p777
asbag57
(g78
g59
NtRp778
(dp779
g62
(dp780
g89
g90
ssg71
g769
sg64
(lp781
S':'
asbag57
(g78
g59
NtRp782
(dp783
g62
(dp784
sg71
g769
sg64
(lp785
g57
(g58
g59
NtRp786
(dp787
g62
(dp788
g70
I4
ssg71
g782
sg64
(lp789
S'set([])'
p790
asbasbasbag57
(g73
g59
NtRp791
(dp792
g62
(dp793
sg71
g674
sg64
(lp794
g57
(g78
g59
NtRp795
(dp796
g62
(dp797
g82
g83
ssg71
g791
sg64
(lp798
S'debugging'
p799
asbag57
(g78
g59
NtRp800
(dp801
g62
(dp802
g89
g90
ssg71
g791
sg64
(lp803
S':'
asbag57
(g78
g59
NtRp804
(dp805
g62
(dp806
sg71
g791
sg64
(lp807
g57
(g58
g59
NtRp808
(dp809
g62
(dp810
g70
I4
ssg71
g804
sg64
(lp811
g100
asbasbasbag57
(g73
g59
NtRp812
(dp813
g62
(dp814
sg71
g674
sg64
(lp815
g57
(g78
g59
NtRp816
(dp817
g62
(dp818
g82
g83
ssg71
g812
sg64
(lp819
S'gluon_parent'
p820
asbag57
(g78
g59
NtRp821
(dp822
g62
(dp823
g89
g90
ssg71
g812
sg64
(lp824
S':'
asbag57
(g78
g59
NtRp825
(dp826
g62
(dp827
sg71
g812
sg64
(lp828
g57
(g58
g59
NtRp829
(dp830
g62
(dp831
g70
I4
ssg71
g825
sg64
(lp832
S'D:\\Work\\webRTC\\web2py'
p833
asbasbasbag57
(g73
g59
NtRp834
(dp835
g62
(dp836
sg71
g674
sg64
(lp837
g57
(g78
g59
NtRp838
(dp839
g62
(dp840
g82
g83
ssg71
g834
sg64
(lp841
S'http_accept'
p842
asbag57
(g78
g59
NtRp843
(dp844
g62
(dp845
g89
g90
ssg71
g834
sg64
(lp846
S':'
asbag57
(g78
g59
NtRp847
(dp848
g62
(dp849
sg71
g834
sg64
(lp850
g57
(g58
g59
NtRp851
(dp852
g62
(dp853
g70
I4
ssg71
g847
sg64
(lp854
S'text/html,application/xhtml+xml,application/xml;q=0.9,*/*;q=0.8'
p855
asbasbasbag57
(g73
g59
NtRp856
(dp857
g62
(dp858
sg71
g674
sg64
(lp859
g57
(g78
g59
NtRp860
(dp861
g62
(dp862
g82
g83
ssg71
g856
sg64
(lp863
S'http_accept_charset'
p864
asbag57
(g78
g59
NtRp865
(dp866
g62
(dp867
g89
g90
ssg71
g856
sg64
(lp868
S':'
asbag57
(g78
g59
NtRp869
(dp870
g62
(dp871
sg71
g856
sg64
(lp872
g57
(g58
g59
NtRp873
(dp874
g62
(dp875
g70
I4
ssg71
g869
sg64
(lp876
S'windows-1258,utf-8;q=0.7,*;q=0.3'
p877
asbasbasbag57
(g73
g59
NtRp878
(dp879
g62
(dp880
sg71
g674
sg64
(lp881
g57
(g78
g59
NtRp882
(dp883
g62
(dp884
g82
g83
ssg71
g878
sg64
(lp885
S'http_accept_encoding'
p886
asbag57
(g78
g59
NtRp887
(dp888
g62
(dp889
g89
g90
ssg71
g878
sg64
(lp890
S':'
asbag57
(g78
g59
NtRp891
(dp892
g62
(dp893
sg71
g878
sg64
(lp894
g57
(g58
g59
NtRp895
(dp896
g62
(dp897
g70
I4
ssg71
g891
sg64
(lp898
S'gzip,deflate,sdch'
p899
asbasbasbag57
(g73
g59
NtRp900
(dp901
g62
(dp902
sg71
g674
sg64
(lp903
g57
(g78
g59
NtRp904
(dp905
g62
(dp906
g82
g83
ssg71
g900
sg64
(lp907
S'http_accept_language'
p908
asbag57
(g78
g59
NtRp909
(dp910
g62
(dp911
g89
g90
ssg71
g900
sg64
(lp912
S':'
asbag57
(g78
g59
NtRp913
(dp914
g62
(dp915
sg71
g900
sg64
(lp916
g57
(g58
g59
NtRp917
(dp918
g62
(dp919
g70
I4
ssg71
g913
sg64
(lp920
S'en,vi;q=0.8,en-US;q=0.6'
p921
asbasbasbag57
(g73
g59
NtRp922
(dp923
g62
(dp924
sg71
g674
sg64
(lp925
g57
(g78
g59
NtRp926
(dp927
g62
(dp928
g82
g83
ssg71
g922
sg64
(lp929
S'http_connection'
p930
asbag57
(g78
g59
NtRp931
(dp932
g62
(dp933
g89
g90
ssg71
g922
sg64
(lp934
S':'
asbag57
(g78
g59
NtRp935
(dp936
g62
(dp937
sg71
g922
sg64
(lp938
g57
(g58
g59
NtRp939
(dp940
g62
(dp941
g70
I4
ssg71
g935
sg64
(lp942
S'keep-alive'
p943
asbasbasbag57
(g73
g59
NtRp944
(dp945
g62
(dp946
sg71
g674
sg64
(lp947
g57
(g78
g59
NtRp948
(dp949
g62
(dp950
g82
g83
ssg71
g944
sg64
(lp951
S'http_cookie'
p952
asbag57
(g78
g59
NtRp953
(dp954
g62
(dp955
g89
g90
ssg71
g944
sg64
(lp956
S':'
asbag57
(g78
g59
NtRp957
(dp958
g62
(dp959
sg71
g944
sg64
(lp960
g57
(g58
g59
NtRp961
(dp962
g62
(dp963
g70
I4
ssg71
g957
sg64
(lp964
S'session_id_welcome=127.0.0.1-7ff9ecdd-07e5-4ecb-bf3c-2658d2caa017; session_id_admin=127.0.0.1-c1f37714-b311-41f1-baa1-6e08c53e8d61'
p965
asbasbasbag57
(g73
g59
NtRp966
(dp967
g62
(dp968
sg71
g674
sg64
(lp969
g57
(g78
g59
NtRp970
(dp971
g62
(dp972
g82
g83
ssg71
g966
sg64
(lp973
S'http_host'
p974
asbag57
(g78
g59
NtRp975
(dp976
g62
(dp977
g89
g90
ssg71
g966
sg64
(lp978
S':'
asbag57
(g78
g59
NtRp979
(dp980
g62
(dp981
sg71
g966
sg64
(lp982
g57
(g58
g59
NtRp983
(dp984
g62
(dp985
g70
I4
ssg71
g979
sg64
(lp986
S'127.0.0.1:8000'
p987
asbasbasbag57
(g73
g59
NtRp988
(dp989
g62
(dp990
sg71
g674
sg64
(lp991
g57
(g78
g59
NtRp992
(dp993
g62
(dp994
g82
g83
ssg71
g988
sg64
(lp995
S'http_user_agent'
p996
asbag57
(g78
g59
NtRp997
(dp998
g62
(dp999
g89
g90
ssg71
g988
sg64
(lp1000
S':'
asbag57
(g78
g59
NtRp1001
(dp1002
g62
(dp1003
sg71
g988
sg64
(lp1004
g57
(g58
g59
NtRp1005
(dp1006
g62
(dp1007
g70
I4
ssg71
g1001
sg64
(lp1008
S'Mozilla/5.0 (Windows NT 6.1; WOW64) AppleWebKit/537.27 (KHTML, like Gecko) Chrome/26.0.1386.0 Safari/537.27'
p1009
asbasbasbag57
(g73
g59
NtRp1010
(dp1011
g62
(dp1012
sg71
g674
sg64
(lp1013
g57
(g78
g59
NtRp1014
(dp1015
g62
(dp1016
g82
g83
ssg71
g1010
sg64
(lp1017
S'is_jython'
p1018
asbag57
(g78
g59
NtRp1019
(dp1020
g62
(dp1021
g89
g90
ssg71
g1010
sg64
(lp1022
S':'
asbag57
(g78
g59
NtRp1023
(dp1024
g62
(dp1025
sg71
g1010
sg64
(lp1026
g57
(g58
g59
NtRp1027
(dp1028
g62
(dp1029
g70
I4
ssg71
g1023
sg64
(lp1030
g100
asbasbasbag57
(g73
g59
NtRp1031
(dp1032
g62
(dp1033
sg71
g674
sg64
(lp1034
g57
(g78
g59
NtRp1035
(dp1036
g62
(dp1037
g82
g83
ssg71
g1031
sg64
(lp1038
S'is_pypy'
p1039
asbag57
(g78
g59
NtRp1040
(dp1041
g62
(dp1042
g89
g90
ssg71
g1031
sg64
(lp1043
S':'
asbag57
(g78
g59
NtRp1044
(dp1045
g62
(dp1046
sg71
g1031
sg64
(lp1047
g57
(g58
g59
NtRp1048
(dp1049
g62
(dp1050
g70
I4
ssg71
g1044
sg64
(lp1051
g100
asbasbasbag57
(g73
g59
NtRp1052
(dp1053
g62
(dp1054
sg71
g674
sg64
(lp1055
g57
(g78
g59
NtRp1056
(dp1057
g62
(dp1058
g82
g83
ssg71
g1052
sg64
(lp1059
S'local_hosts'
p1060
asbag57
(g78
g59
NtRp1061
(dp1062
g62
(dp1063
g89
g90
ssg71
g1052
sg64
(lp1064
S':'
asbag57
(g78
g59
NtRp1065
(dp1066
g62
(dp1067
sg71
g1052
sg64
(lp1068
g57
(g58
g59
NtRp1069
(dp1070
g62
(dp1071
g70
I4
ssg71
g1065
sg64
(lp1072
g57
(g66
g59
NtRp1073
(dp1074
g62
(dp1075
g70
I3
ssg71
Nsg64
(lp1076
g57
(g73
g59
NtRp1077
(dp1078
g62
(dp1079
sg71
g1073
sg64
(lp1080
g57
(g78
g59
NtRp1081
(dp1082
g62
(dp1083
sg71
g1077
sg64
(lp1084
g57
(g58
g59
NtRp1085
(dp1086
g62
(dp1087
g70
I3
ssg71
g1081
sg64
(lp1088
S'SonTHN-Hoiio'
p1089
asbasbasbag57
(g73
g59
NtRp1090
(dp1091
g62
(dp1092
sg71
g1073
sg64
(lp1093
g57
(g78
g59
NtRp1094
(dp1095
g62
(dp1096
sg71
g1090
sg64
(lp1097
g57
(g58
g59
NtRp1098
(dp1099
g62
(dp1100
g70
I3
ssg71
g1094
sg64
(lp1101
S'fe80::91ec:31f9:5083:69f3%15'
p1102
asbasbasbag57
(g73
g59
NtRp1103
(dp1104
g62
(dp1105
sg71
g1073
sg64
(lp1106
g57
(g78
g59
NtRp1107
(dp1108
g62
(dp1109
sg71
g1103
sg64
(lp1110
g57
(g58
g59
NtRp1111
(dp1112
g62
(dp1113
g70
I3
ssg71
g1107
sg64
(lp1114
S'fe80::24b1:2bb4:8e5e:bea5%14'
p1115
asbasbasbag57
(g73
g59
NtRp1116
(dp1117
g62
(dp1118
sg71
g1073
sg64
(lp1119
g57
(g78
g59
NtRp1120
(dp1121
g62
(dp1122
sg71
g1116
sg64
(lp1123
g57
(g58
g59
NtRp1124
(dp1125
g62
(dp1126
g70
I3
ssg71
g1120
sg64
(lp1127
S'::ffff:127.0.0.1'
p1128
asbasbasbag57
(g73
g59
NtRp1129
(dp1130
g62
(dp1131
sg71
g1073
sg64
(lp1132
g57
(g78
g59
NtRp1133
(dp1134
g62
(dp1135
sg71
g1129
sg64
(lp1136
g57
(g58
g59
NtRp1137
(dp1138
g62
(dp1139
g70
I3
ssg71
g1133
sg64
(lp1140
S'::1'
p1141
asbasbasbag57
(g73
g59
NtRp1142
(dp1143
g62
(dp1144
sg71
g1073
sg64
(lp1145
g57
(g78
g59
NtRp1146
(dp1147
g62
(dp1148
sg71
g1142
sg64
(lp1149
g57
(g58
g59
NtRp1150
(dp1151
g62
(dp1152
g70
I3
ssg71
g1146
sg64
(lp1153
S'192.168.0.112'
p1154
asbasbasbag57
(g73
g59
NtRp1155
(dp1156
g62
(dp1157
sg71
g1073
sg64
(lp1158
g57
(g78
g59
NtRp1159
(dp1160
g62
(dp1161
sg71
g1155
sg64
(lp1162
g57
(g58
g59
NtRp1163
(dp1164
g62
(dp1165
g70
I3
ssg71
g1159
sg64
(lp1166
S'2001:0:9d38:6ab8:24b1:2bb4:8e5e:bea5'
p1167
asbasbasbag57
(g73
g59
NtRp1168
(dp1169
g62
(dp1170
sg71
g1073
sg64
(lp1171
g57
(g78
g59
NtRp1172
(dp1173
g62
(dp1174
sg71
g1168
sg64
(lp1175
g57
(g58
g59
NtRp1176
(dp1177
g62
(dp1178
g70
I3
ssg71
g1172
sg64
(lp1179
S'127.0.0.1'
p1180
asbasbasbasbasbasbasbag57
(g73
g59
NtRp1181
(dp1182
g62
(dp1183
sg71
g674
sg64
(lp1184
g57
(g78
g59
NtRp1185
(dp1186
g62
(dp1187
g82
g83
ssg71
g1181
sg64
(lp1188
S'path_info'
p1189
asbag57
(g78
g59
NtRp1190
(dp1191
g62
(dp1192
g89
g90
ssg71
g1181
sg64
(lp1193
S':'
asbag57
(g78
g59
NtRp1194
(dp1195
g62
(dp1196
sg71
g1181
sg64
(lp1197
g57
(g58
g59
NtRp1198
(dp1199
g62
(dp1200
g70
I4
ssg71
g1194
sg64
(lp1201
S'/welcome/webrtc/student/se0566'
p1202
asbasbasbag57
(g73
g59
NtRp1203
(dp1204
g62
(dp1205
sg71
g674
sg64
(lp1206
g57
(g78
g59
NtRp1207
(dp1208
g62
(dp1209
g82
g83
ssg71
g1203
sg64
(lp1210
S'query_string'
p1211
asbag57
(g78
g59
NtRp1212
(dp1213
g62
(dp1214
g89
g90
ssg71
g1203
sg64
(lp1215
S':'
asbag57
(g78
g59
NtRp1216
(dp1217
g62
(dp1218
sg71
g1203
sg64
(lp1219
g57
(g58
g59
NtRp1220
(dp1221
g62
(dp1222
g70
I4
ssg71
g1216
sg64
(lp1223
S''
asbasbasbag57
(g73
g59
NtRp1224
(dp1225
g62
(dp1226
sg71
g674
sg64
(lp1227
g57
(g78
g59
NtRp1228
(dp1229
g62
(dp1230
g82
g83
ssg71
g1224
sg64
(lp1231
S'remote_addr'
p1232
asbag57
(g78
g59
NtRp1233
(dp1234
g62
(dp1235
g89
g90
ssg71
g1224
sg64
(lp1236
S':'
asbag57
(g78
g59
NtRp1237
(dp1238
g62
(dp1239
sg71
g1224
sg64
(lp1240
g57
(g58
g59
NtRp1241
(dp1242
g62
(dp1243
g70
I4
ssg71
g1237
sg64
(lp1244
g225
asbasbasbag57
(g73
g59
NtRp1245
(dp1246
g62
(dp1247
sg71
g674
sg64
(lp1248
g57
(g78
g59
NtRp1249
(dp1250
g62
(dp1251
g82
g83
ssg71
g1245
sg64
(lp1252
S'remote_port'
p1253
asbag57
(g78
g59
NtRp1254
(dp1255
g62
(dp1256
g89
g90
ssg71
g1245
sg64
(lp1257
S':'
asbag57
(g78
g59
NtRp1258
(dp1259
g62
(dp1260
sg71
g1245
sg64
(lp1261
g57
(g58
g59
NtRp1262
(dp1263
g62
(dp1264
g70
I4
ssg71
g1258
sg64
(lp1265
S'58966'
p1266
asbasbasbag57
(g73
g59
NtRp1267
(dp1268
g62
(dp1269
sg71
g674
sg64
(lp1270
g57
(g78
g59
NtRp1271
(dp1272
g62
(dp1273
g82
g83
ssg71
g1267
sg64
(lp1274
S'request_method'
p1275
asbag57
(g78
g59
NtRp1276
(dp1277
g62
(dp1278
g89
g90
ssg71
g1267
sg64
(lp1279
S':'
asbag57
(g78
g59
NtRp1280
(dp1281
g62
(dp1282
sg71
g1267
sg64
(lp1283
g57
(g58
g59
NtRp1284
(dp1285
g62
(dp1286
g70
I4
ssg71
g1280
sg64
(lp1287
S'GET'
p1288
asbasbasbag57
(g73
g59
NtRp1289
(dp1290
g62
(dp1291
sg71
g674
sg64
(lp1292
g57
(g78
g59
NtRp1293
(dp1294
g62
(dp1295
g82
g83
ssg71
g1289
sg64
(lp1296
S'request_uri'
p1297
asbag57
(g78
g59
NtRp1298
(dp1299
g62
(dp1300
g89
g90
ssg71
g1289
sg64
(lp1301
S':'
asbag57
(g78
g59
NtRp1302
(dp1303
g62
(dp1304
sg71
g1289
sg64
(lp1305
g57
(g58
g59
NtRp1306
(dp1307
g62
(dp1308
g70
I4
ssg71
g1302
sg64
(lp1309
g1202
asbasbasbag57
(g73
g59
NtRp1310
(dp1311
g62
(dp1312
sg71
g674
sg64
(lp1313
g57
(g78
g59
NtRp1314
(dp1315
g62
(dp1316
g82
g83
ssg71
g1310
sg64
(lp1317
S'script_name'
p1318
asbag57
(g78
g59
NtRp1319
(dp1320
g62
(dp1321
g89
g90
ssg71
g1310
sg64
(lp1322
S':'
asbag57
(g78
g59
NtRp1323
(dp1324
g62
(dp1325
sg71
g1310
sg64
(lp1326
g57
(g58
g59
NtRp1327
(dp1328
g62
(dp1329
g70
I4
ssg71
g1323
sg64
(lp1330
S''
asbasbasbag57
(g73
g59
NtRp1331
(dp1332
g62
(dp1333
sg71
g674
sg64
(lp1334
g57
(g78
g59
NtRp1335
(dp1336
g62
(dp1337
g82
g83
ssg71
g1331
sg64
(lp1338
S'server_name'
p1339
asbag57
(g78
g59
NtRp1340
(dp1341
g62
(dp1342
g89
g90
ssg71
g1331
sg64
(lp1343
S':'
asbag57
(g78
g59
NtRp1344
(dp1345
g62
(dp1346
sg71
g1331
sg64
(lp1347
g57
(g58
g59
NtRp1348
(dp1349
g62
(dp1350
g70
I4
ssg71
g1344
sg64
(lp1351
S'SonTHN-Hoiio'
p1352
asbasbasbag57
(g73
g59
NtRp1353
(dp1354
g62
(dp1355
sg71
g674
sg64
(lp1356
g57
(g78
g59
NtRp1357
(dp1358
g62
(dp1359
g82
g83
ssg71
g1353
sg64
(lp1360
S'server_port'
p1361
asbag57
(g78
g59
NtRp1362
(dp1363
g62
(dp1364
g89
g90
ssg71
g1353
sg64
(lp1365
S':'
asbag57
(g78
g59
NtRp1366
(dp1367
g62
(dp1368
sg71
g1353
sg64
(lp1369
g57
(g58
g59
NtRp1370
(dp1371
g62
(dp1372
g70
I4
ssg71
g1366
sg64
(lp1373
S'8000'
p1374
asbasbasbag57
(g73
g59
NtRp1375
(dp1376
g62
(dp1377
sg71
g674
sg64
(lp1378
g57
(g78
g59
NtRp1379
(dp1380
g62
(dp1381
g82
g83
ssg71
g1375
sg64
(lp1382
S'server_protocol'
p1383
asbag57
(g78
g59
NtRp1384
(dp1385
g62
(dp1386
g89
g90
ssg71
g1375
sg64
(lp1387
S':'
asbag57
(g78
g59
NtRp1388
(dp1389
g62
(dp1390
sg71
g1375
sg64
(lp1391
g57
(g58
g59
NtRp1392
(dp1393
g62
(dp1394
g70
I4
ssg71
g1388
sg64
(lp1395
S'HTTP/1.1'
p1396
asbasbasbag57
(g73
g59
NtRp1397
(dp1398
g62
(dp1399
sg71
g674
sg64
(lp1400
g57
(g78
g59
NtRp1401
(dp1402
g62
(dp1403
g82
g83
ssg71
g1397
sg64
(lp1404
S'server_software'
p1405
asbag57
(g78
g59
NtRp1406
(dp1407
g62
(dp1408
g89
g90
ssg71
g1397
sg64
(lp1409
S':'
asbag57
(g78
g59
NtRp1410
(dp1411
g62
(dp1412
sg71
g1397
sg64
(lp1413
g57
(g58
g59
NtRp1414
(dp1415
g62
(dp1416
g70
I4
ssg71
g1410
sg64
(lp1417
S'Rocket 1.2.6'
p1418
asbasbasbag57
(g73
g59
NtRp1419
(dp1420
g62
(dp1421
sg71
g674
sg64
(lp1422
g57
(g78
g59
NtRp1423
(dp1424
g62
(dp1425
g82
g83
ssg71
g1419
sg64
(lp1426
S'web2py_path'
p1427
asbag57
(g78
g59
NtRp1428
(dp1429
g62
(dp1430
g89
g90
ssg71
g1419
sg64
(lp1431
S':'
asbag57
(g78
g59
NtRp1432
(dp1433
g62
(dp1434
sg71
g1419
sg64
(lp1435
g57
(g58
g59
NtRp1436
(dp1437
g62
(dp1438
g70
I4
ssg71
g1432
sg64
(lp1439
g721
asbasbasbag57
(g73
g59
NtRp1440
(dp1441
g62
(dp1442
sg71
g674
sg64
(lp1443
g57
(g78
g59
NtRp1444
(dp1445
g62
(dp1446
g82
g83
ssg71
g1440
sg64
(lp1447
S'web2py_version'
p1448
asbag57
(g78
g59
NtRp1449
(dp1450
g62
(dp1451
g89
g90
ssg71
g1440
sg64
(lp1452
S':'
asbag57
(g78
g59
NtRp1453
(dp1454
g62
(dp1455
sg71
g1440
sg64
(lp1456
g57
(g58
g59
NtRp1457
(dp1458
g62
(dp1459
g70
I4
ssg71
g1453
sg64
(lp1460
g57
(g66
g59
NtRp1461
(dp1462
g62
(dp1463
g70
I3
ssg71
Nsg64
(lp1464
g57
(g73
g59
NtRp1465
(dp1466
g62
(dp1467
sg71
g1461
sg64
(lp1468
g57
(g78
g59
NtRp1469
(dp1470
g62
(dp1471
sg71
g1465
sg64
(lp1472
g57
(g58
g59
NtRp1473
(dp1474
g62
(dp1475
g70
I3
ssg71
g1469
sg64
(lp1476
S'2'
asbasbasbag57
(g73
g59
NtRp1477
(dp1478
g62
(dp1479
sg71
g1461
sg64
(lp1480
g57
(g78
g59
NtRp1481
(dp1482
g62
(dp1483
sg71
g1477
sg64
(lp1484
g57
(g58
g59
NtRp1485
(dp1486
g62
(dp1487
g70
I3
ssg71
g1481
sg64
(lp1488
S'4'
asbasbasbag57
(g73
g59
NtRp1489
(dp1490
g62
(dp1491
sg71
g1461
sg64
(lp1492
g57
(g78
g59
NtRp1493
(dp1494
g62
(dp1495
sg71
g1489
sg64
(lp1496
g57
(g58
g59
NtRp1497
(dp1498
g62
(dp1499
g70
I3
ssg71
g1493
sg64
(lp1500
S'1'
asbasbasbag57
(g73
g59
NtRp1501
(dp1502
g62
(dp1503
sg71
g1461
sg64
(lp1504
g57
(g78
g59
NtRp1505
(dp1506
g62
(dp1507
sg71
g1501
sg64
(lp1508
g57
(g58
g59
NtRp1509
(dp1510
g62
(dp1511
g70
I3
ssg71
g1505
sg64
(lp1512
S'alpha.1'
p1513
asbasbasbag57
(g73
g59
NtRp1514
(dp1515
g62
(dp1516
sg71
g1461
sg64
(lp1517
g57
(g78
g59
NtRp1518
(dp1519
g62
(dp1520
sg71
g1514
sg64
(lp1521
g57
(g58
g59
NtRp1522
(dp1523
g62
(dp1524
g70
I3
ssg71
g1518
sg64
(lp1525
S'datetime.datetime(2012, 12, 20, 18, 16, 2)'
p1526
asbasbasbasbasbasbasbag57
(g73
g59
NtRp1527
(dp1528
g62
(dp1529
sg71
g674
sg64
(lp1530
g57
(g78
g59
NtRp1531
(dp1532
g62
(dp1533
g82
g83
ssg71
g1527
sg64
(lp1534
S'wsgi_errors'
p1535
asbag57
(g78
g59
NtRp1536
(dp1537
g62
(dp1538
g89
g90
ssg71
g1527
sg64
(lp1539
S':'
asbag57
(g78
g59
NtRp1540
(dp1541
g62
(dp1542
sg71
g1527
sg64
(lp1543
g57
(g58
g59
NtRp1544
(dp1545
g62
(dp1546
g70
I4
ssg71
g1540
sg64
(lp1547
S"<open file '<stderr>', mode 'w' at 0x0000000001D061E0>"
p1548
asbasbasbag57
(g73
g59
NtRp1549
(dp1550
g62
(dp1551
sg71
g674
sg64
(lp1552
g57
(g78
g59
NtRp1553
(dp1554
g62
(dp1555
g82
g83
ssg71
g1549
sg64
(lp1556
S'wsgi_file_wrapper'
p1557
asbag57
(g78
g59
NtRp1558
(dp1559
g62
(dp1560
g89
g90
ssg71
g1549
sg64
(lp1561
S':'
asbag57
(g78
g59
NtRp1562
(dp1563
g62
(dp1564
sg71
g1549
sg64
(lp1565
g57
(g58
g59
NtRp1566
(dp1567
g62
(dp1568
g70
I4
ssg71
g1562
sg64
(lp1569
S'<class wsgiref.util.FileWrapper at 0x00000000036FCEE8>'
p1570
asbasbasbag57
(g73
g59
NtRp1571
(dp1572
g62
(dp1573
sg71
g674
sg64
(lp1574
g57
(g78
g59
NtRp1575
(dp1576
g62
(dp1577
g82
g83
ssg71
g1571
sg64
(lp1578
S'wsgi_input'
p1579
asbag57
(g78
g59
NtRp1580
(dp1581
g62
(dp1582
g89
g90
ssg71
g1571
sg64
(lp1583
S':'
asbag57
(g78
g59
NtRp1584
(dp1585
g62
(dp1586
sg71
g1571
sg64
(lp1587
g57
(g58
g59
NtRp1588
(dp1589
g62
(dp1590
g70
I4
ssg71
g1584
sg64
(lp1591
S'<socket._fileobject object at 0x00000000058FF138>'
p1592
asbasbasbag57
(g73
g59
NtRp1593
(dp1594
g62
(dp1595
sg71
g674
sg64
(lp1596
g57
(g78
g59
NtRp1597
(dp1598
g62
(dp1599
g82
g83
ssg71
g1593
sg64
(lp1600
S'wsgi_multiprocess'
p1601
asbag57
(g78
g59
NtRp1602
(dp1603
g62
(dp1604
g89
g90
ssg71
g1593
sg64
(lp1605
S':'
asbag57
(g78
g59
NtRp1606
(dp1607
g62
(dp1608
sg71
g1593
sg64
(lp1609
g57
(g58
g59
NtRp1610
(dp1611
g62
(dp1612
g70
I4
ssg71
g1606
sg64
(lp1613
g100
asbasbasbag57
(g73
g59
NtRp1614
(dp1615
g62
(dp1616
sg71
g674
sg64
(lp1617
g57
(g78
g59
NtRp1618
(dp1619
g62
(dp1620
g82
g83
ssg71
g1614
sg64
(lp1621
S'wsgi_multithread'
p1622
asbag57
(g78
g59
NtRp1623
(dp1624
g62
(dp1625
g89
g90
ssg71
g1614
sg64
(lp1626
S':'
asbag57
(g78
g59
NtRp1627
(dp1628
g62
(dp1629
sg71
g1614
sg64
(lp1630
g57
(g58
g59
NtRp1631
(dp1632
g62
(dp1633
g70
I4
ssg71
g1627
sg64
(lp1634
S'True'
p1635
asbasbasbag57
(g73
g59
NtRp1636
(dp1637
g62
(dp1638
sg71
g674
sg64
(lp1639
g57
(g78
g59
NtRp1640
(dp1641
g62
(dp1642
g82
g83
ssg71
g1636
sg64
(lp1643
S'wsgi_run_once'
p1644
asbag57
(g78
g59
NtRp1645
(dp1646
g62
(dp1647
g89
g90
ssg71
g1636
sg64
(lp1648
S':'
asbag57
(g78
g59
NtRp1649
(dp1650
g62
(dp1651
sg71
g1636
sg64
(lp1652
g57
(g58
g59
NtRp1653
(dp1654
g62
(dp1655
g70
I4
ssg71
g1649
sg64
(lp1656
g100
asbasbasbag57
(g73
g59
NtRp1657
(dp1658
g62
(dp1659
sg71
g674
sg64
(lp1660
g57
(g78
g59
NtRp1661
(dp1662
g62
(dp1663
g82
g83
ssg71
g1657
sg64
(lp1664
S'wsgi_url_scheme'
p1665
asbag57
(g78
g59
NtRp1666
(dp1667
g62
(dp1668
g89
g90
ssg71
g1657
sg64
(lp1669
S':'
asbag57
(g78
g59
NtRp1670
(dp1671
g62
(dp1672
sg71
g1657
sg64
(lp1673
g57
(g58
g59
NtRp1674
(dp1675
g62
(dp1676
g70
I4
ssg71
g1670
sg64
(lp1677
S'http'
p1678
asbasbasbag57
(g73
g59
NtRp1679
(dp1680
g62
(dp1681
sg71
g674
sg64
(lp1682
g57
(g78
g59
NtRp1683
(dp1684
g62
(dp1685
g82
g83
ssg71
g1679
sg64
(lp1686
S'wsgi_version'
p1687
asbag57
(g78
g59
NtRp1688
(dp1689
g62
(dp1690
g89
g90
ssg71
g1679
sg64
(lp1691
S':'
asbag57
(g78
g59
NtRp1692
(dp1693
g62
(dp1694
sg71
g1679
sg64
(lp1695
g57
(g58
g59
NtRp1696
(dp1697
g62
(dp1698
g70
I4
ssg71
g1692
sg64
(lp1699
g57
(g66
g59
NtRp1700
(dp1701
g62
(dp1702
g70
I3
ssg71
Nsg64
(lp1703
g57
(g73
g59
NtRp1704
(dp1705
g62
(dp1706
sg71
g1700
sg64
(lp1707
g57
(g78
g59
NtRp1708
(dp1709
g62
(dp1710
sg71
g1704
sg64
(lp1711
g57
(g58
g59
NtRp1712
(dp1713
g62
(dp1714
g70
I3
ssg71
g1708
sg64
(lp1715
S'1'
asbasbasbag57
(g73
g59
NtRp1716
(dp1717
g62
(dp1718
sg71
g1700
sg64
(lp1719
g57
(g78
g59
NtRp1720
(dp1721
g62
(dp1722
sg71
g1716
sg64
(lp1723
g57
(g58
g59
NtRp1724
(dp1725
g62
(dp1726
g70
I3
ssg71
g1720
sg64
(lp1727
S'0'
asbasbasbasbasbasbasbasbasbasbasbag57
(g73
g59
NtRp1728
(dp1729
g62
(dp1730
sg71
g67
sg64
(lp1731
g57
(g78
g59
NtRp1732
(dp1733
g62
(dp1734
g82
g83
ssg71
g1728
sg64
(lp1735
S'extension'
p1736
asbag57
(g78
g59
NtRp1737
(dp1738
g62
(dp1739
g89
g90
ssg71
g1728
sg64
(lp1740
S':'
asbag57
(g78
g59
NtRp1741
(dp1742
g62
(dp1743
sg71
g1728
sg64
(lp1744
g57
(g58
g59
NtRp1745
(dp1746
g62
(dp1747
g70
I5
ssg71
g1741
sg64
(lp1748
S'html'
p1749
asbasbasbag57
(g73
g59
NtRp1750
(dp1751
g62
(dp1752
sg71
g67
sg64
(lp1753
g57
(g78
g59
NtRp1754
(dp1755
g62
(dp1756
g82
g83
ssg71
g1750
sg64
(lp1757
S'folder'
p1758
asbag57
(g78
g59
NtRp1759
(dp1760
g62
(dp1761
g89
g90
ssg71
g1750
sg64
(lp1762
S':'
asbag57
(g78
g59
NtRp1763
(dp1764
g62
(dp1765
sg71
g1750
sg64
(lp1766
g57
(g58
g59
NtRp1767
(dp1768
g62
(dp1769
g70
I5
ssg71
g1763
sg64
(lp1770
S'D:\\Work\\webRTC\\web2py\\applications\\welcome\\'
p1771
asbasbasbag57
(g73
g59
NtRp1772
(dp1773
g62
(dp1774
sg71
g67
sg64
(lp1775
g57
(g78
g59
NtRp1776
(dp1777
g62
(dp1778
g82
g83
ssg71
g1772
sg64
(lp1779
S'function'
p1780
asbag57
(g78
g59
NtRp1781
(dp1782
g62
(dp1783
g89
g90
ssg71
g1772
sg64
(lp1784
S':'
asbag57
(g78
g59
NtRp1785
(dp1786
g62
(dp1787
sg71
g1772
sg64
(lp1788
g57
(g58
g59
NtRp1789
(dp1790
g62
(dp1791
g70
I5
ssg71
g1785
sg64
(lp1792
S'student'
p1793
asbasbasbag57
(g73
g59
NtRp1794
(dp1795
g62
(dp1796
sg71
g67
sg64
(lp1797
g57
(g78
g59
NtRp1798
(dp1799
g62
(dp1800
g82
g83
ssg71
g1794
sg64
(lp1801
S'get_vars'
p1802
asbag57
(g78
g59
NtRp1803
(dp1804
g62
(dp1805
g89
g90
ssg71
g1794
sg64
(lp1806
S':'
asbag57
(g78
g59
NtRp1807
(dp1808
g62
(dp1809
sg71
g1794
sg64
(lp1810
g57
(g58
g59
NtRp1811
(dp1812
g62
(dp1813
g70
I5
ssg71
g1807
sg64
(lp1814
g57
(g66
g59
NtRp1815
(dp1816
g62
(dp1817
g70
I4
ssg71
Nsg64
(lp1818
sbasbasbasbag57
(g73
g59
NtRp1819
(dp1820
g62
(dp1821
sg71
g67
sg64
(lp1822
g57
(g78
g59
NtRp1823
(dp1824
g62
(dp1825
g82
g83
ssg71
g1819
sg64
(lp1826
S'global_settings'
p1827
asbag57
(g78
g59
NtRp1828
(dp1829
g62
(dp1830
g89
g90
ssg71
g1819
sg64
(lp1831
S':'
asbag57
(g78
g59
NtRp1832
(dp1833
g62
(dp1834
sg71
g1819
sg64
(lp1835
g57
(g58
g59
NtRp1836
(dp1837
g62
(dp1838
g70
I5
ssg71
g1832
sg64
(lp1839
g57
(g66
g59
NtRp1840
(dp1841
g62
(dp1842
g70
I4
ssg71
Nsg64
(lp1843
g57
(g73
g59
NtRp1844
(dp1845
g62
(dp1846
sg71
g1840
sg64
(lp1847
g57
(g78
g59
NtRp1848
(dp1849
g62
(dp1850
g82
g83
ssg71
g1844
sg64
(lp1851
g686
asbag57
(g78
g59
NtRp1852
(dp1853
g62
(dp1854
g89
g90
ssg71
g1844
sg64
(lp1855
S':'
asbag57
(g78
g59
NtRp1856
(dp1857
g62
(dp1858
sg71
g1844
sg64
(lp1859
g57
(g58
g59
NtRp1860
(dp1861
g62
(dp1862
g70
I4
ssg71
g1856
sg64
(lp1863
S"set(['D:\\\\Work\\\\webRTC\\\\web2py\\\\applications\\\\welcome\\\\', 'D:\\\\Work\\\\webRTC\\\\web2py\\\\applications\\\\admin\\\\'])"
p1864
asbasbasbag57
(g73
g59
NtRp1865
(dp1866
g62
(dp1867
sg71
g1840
sg64
(lp1868
g57
(g78
g59
NtRp1869
(dp1870
g62
(dp1871
g82
g83
ssg71
g1865
sg64
(lp1872
g708
asbag57
(g78
g59
NtRp1873
(dp1874
g62
(dp1875
g89
g90
ssg71
g1865
sg64
(lp1876
S':'
asbag57
(g78
g59
NtRp1877
(dp1878
g62
(dp1879
sg71
g1865
sg64
(lp1880
g57
(g58
g59
NtRp1881
(dp1882
g62
(dp1883
g70
I4
ssg71
g1877
sg64
(lp1884
g721
asbasbasbag57
(g73
g59
NtRp1885
(dp1886
g62
(dp1887
sg71
g1840
sg64
(lp1888
g57
(g78
g59
NtRp1889
(dp1890
g62
(dp1891
g82
g83
ssg71
g1885
sg64
(lp1892
g730
asbag57
(g78
g59
NtRp1893
(dp1894
g62
(dp1895
g89
g90
ssg71
g1885
sg64
(lp1896
S':'
asbag57
(g78
g59
NtRp1897
(dp1898
g62
(dp1899
sg71
g1885
sg64
(lp1900
g57
(g58
g59
NtRp1901
(dp1902
g62
(dp1903
g70
I4
ssg71
g1897
sg64
(lp1904
g57
(g66
g59
NtRp1905
(dp1906
g62
(dp1907
g70
I3
ssg71
Nsg64
(lp1908
sbasbasbasbag57
(g73
g59
NtRp1909
(dp1910
g62
(dp1911
sg71
g1840
sg64
(lp1912
g57
(g78
g59
NtRp1913
(dp1914
g62
(dp1915
g82
g83
ssg71
g1909
sg64
(lp1916
g755
asbag57
(g78
g59
NtRp1917
(dp1918
g62
(dp1919
g89
g90
ssg71
g1909
sg64
(lp1920
S':'
asbag57
(g78
g59
NtRp1921
(dp1922
g62
(dp1923
sg71
g1909
sg64
(lp1924
g57
(g58
g59
NtRp1925
(dp1926
g62
(dp1927
g70
I4
ssg71
g1921
sg64
(lp1928
S"<Values at 0x3779cc8: {'verbose': False, 'ip': '127.0.0.1', 'with_scheduler': False, 'ips': ['192.168.0.112', '2001:0:9d38:6ab8:24b1:2bb4:8e5e:bea5', 'fe80::24b1:2bb4:8e5e:bea5%14', 'fe80::91ec:31f9:5083:69f3%15'], 'shutdown_timeout': 5, 'taskbar': False, 'port': 8000, 'maxthreads': None, 'softcron': False, 'server_name': 'SonTHN-Hoiio', 'bpython': False, 'nogui': False, 'pid_filename': 'httpserver.pid', 'extcron': False, 'runcron': False, 'run_system_tests': False, 'test': None, 'folder': 'D:\\\\Work\\\\webRTC\\\\web2py', 'config': '', 'import_models': False, 'winservice': '', 'shell': None, 'run': '', 'log_filename': 'httpserver.log', 'debuglevel': 30, 'args': [''], 'socket_timeout': 5, 'ssl_ca_certificate': None, 'scheduler': None, 'profiler_filename': None, 'ssl_private_key': '', 'scheduler_groups': None, 'password': '<ask>', 'request_queue_size': 5, 'ssl_certificate': '', 'cronjob': False, 'numthreads': None, 'quiet': False, 'interfaces': None, 'minthreads': None, 'timeout': 10, 'plain': False, 'nobanner': False}>"
p1929
asbasbasbag57
(g73
g59
NtRp1930
(dp1931
g62
(dp1932
sg71
g1840
sg64
(lp1933
g57
(g78
g59
NtRp1934
(dp1935
g62
(dp1936
g82
g83
ssg71
g1930
sg64
(lp1937
g777
asbag57
(g78
g59
NtRp1938
(dp1939
g62
(dp1940
g89
g90
ssg71
g1930
sg64
(lp1941
S':'
asbag57
(g78
g59
NtRp1942
(dp1943
g62
(dp1944
sg71
g1930
sg64
(lp1945
g57
(g58
g59
NtRp1946
(dp1947
g62
(dp1948
g70
I4
ssg71
g1942
sg64
(lp1949
S'set([])'
p1950
asbasbasbag57
(g73
g59
NtRp1951
(dp1952
g62
(dp1953
sg71
g1840
sg64
(lp1954
g57
(g78
g59
NtRp1955
(dp1956
g62
(dp1957
g82
g83
ssg71
g1951
sg64
(lp1958
g799
asbag57
(g78
g59
NtRp1959
(dp1960
g62
(dp1961
g89
g90
ssg71
g1951
sg64
(lp1962
S':'
asbag57
(g78
g59
NtRp1963
(dp1964
g62
(dp1965
sg71
g1951
sg64
(lp1966
g57
(g58
g59
NtRp1967
(dp1968
g62
(dp1969
g70
I4
ssg71
g1963
sg64
(lp1970
g100
asbasbasbag57
(g73
g59
NtRp1971
(dp1972
g62
(dp1973
sg71
g1840
sg64
(lp1974
g57
(g78
g59
NtRp1975
(dp1976
g62
(dp1977
g82
g83
ssg71
g1971
sg64
(lp1978
g820
asbag57
(g78
g59
NtRp1979
(dp1980
g62
(dp1981
g89
g90
ssg71
g1971
sg64
(lp1982
S':'
asbag57
(g78
g59
NtRp1983
(dp1984
g62
(dp1985
sg71
g1971
sg64
(lp1986
g57
(g58
g59
NtRp1987
(dp1988
g62
(dp1989
g70
I4
ssg71
g1983
sg64
(lp1990
g833
asbasbasbag57
(g73
g59
NtRp1991
(dp1992
g62
(dp1993
sg71
g1840
sg64
(lp1994
g57
(g78
g59
NtRp1995
(dp1996
g62
(dp1997
g82
g83
ssg71
g1991
sg64
(lp1998
g1018
asbag57
(g78
g59
NtRp1999
(dp2000
g62
(dp2001
g89
g90
ssg71
g1991
sg64
(lp2002
S':'
asbag57
(g78
g59
NtRp2003
(dp2004
g62
(dp2005
sg71
g1991
sg64
(lp2006
g57
(g58
g59
NtRp2007
(dp2008
g62
(dp2009
g70
I4
ssg71
g2003
sg64
(lp2010
g100
asbasbasbag57
(g73
g59
NtRp2011
(dp2012
g62
(dp2013
sg71
g1840
sg64
(lp2014
g57
(g78
g59
NtRp2015
(dp2016
g62
(dp2017
g82
g83
ssg71
g2011
sg64
(lp2018
g1039
asbag57
(g78
g59
NtRp2019
(dp2020
g62
(dp2021
g89
g90
ssg71
g2011
sg64
(lp2022
S':'
asbag57
(g78
g59
NtRp2023
(dp2024
g62
(dp2025
sg71
g2011
sg64
(lp2026
g57
(g58
g59
NtRp2027
(dp2028
g62
(dp2029
g70
I4
ssg71
g2023
sg64
(lp2030
g100
asbasbasbag57
(g73
g59
NtRp2031
(dp2032
g62
(dp2033
sg71
g1840
sg64
(lp2034
g57
(g78
g59
NtRp2035
(dp2036
g62
(dp2037
g82
g83
ssg71
g2031
sg64
(lp2038
g1060
asbag57
(g78
g59
NtRp2039
(dp2040
g62
(dp2041
g89
g90
ssg71
g2031
sg64
(lp2042
S':'
asbag57
(g78
g59
NtRp2043
(dp2044
g62
(dp2045
sg71
g2031
sg64
(lp2046
g57
(g58
g59
NtRp2047
(dp2048
g62
(dp2049
g70
I4
ssg71
g2043
sg64
(lp2050
g57
(g66
g59
NtRp2051
(dp2052
g62
(dp2053
g70
I3
ssg71
Nsg64
(lp2054
g57
(g73
g59
NtRp2055
(dp2056
g62
(dp2057
sg71
g2051
sg64
(lp2058
g57
(g78
g59
NtRp2059
(dp2060
g62
(dp2061
sg71
g2055
sg64
(lp2062
g57
(g58
g59
NtRp2063
(dp2064
g62
(dp2065
g70
I3
ssg71
g2059
sg64
(lp2066
g1089
asbasbasbag57
(g73
g59
NtRp2067
(dp2068
g62
(dp2069
sg71
g2051
sg64
(lp2070
g57
(g78
g59
NtRp2071
(dp2072
g62
(dp2073
sg71
g2067
sg64
(lp2074
g57
(g58
g59
NtRp2075
(dp2076
g62
(dp2077
g70
I3
ssg71
g2071
sg64
(lp2078
g1102
asbasbasbag57
(g73
g59
NtRp2079
(dp2080
g62
(dp2081
sg71
g2051
sg64
(lp2082
g57
(g78
g59
NtRp2083
(dp2084
g62
(dp2085
sg71
g2079
sg64
(lp2086
g57
(g58
g59
NtRp2087
(dp2088
g62
(dp2089
g70
I3
ssg71
g2083
sg64
(lp2090
g1115
asbasbasbag57
(g73
g59
NtRp2091
(dp2092
g62
(dp2093
sg71
g2051
sg64
(lp2094
g57
(g78
g59
NtRp2095
(dp2096
g62
(dp2097
sg71
g2091
sg64
(lp2098
g57
(g58
g59
NtRp2099
(dp2100
g62
(dp2101
g70
I3
ssg71
g2095
sg64
(lp2102
g1128
asbasbasbag57
(g73
g59
NtRp2103
(dp2104
g62
(dp2105
sg71
g2051
sg64
(lp2106
g57
(g78
g59
NtRp2107
(dp2108
g62
(dp2109
sg71
g2103
sg64
(lp2110
g57
(g58
g59
NtRp2111
(dp2112
g62
(dp2113
g70
I3
ssg71
g2107
sg64
(lp2114
g1141
asbasbasbag57
(g73
g59
NtRp2115
(dp2116
g62
(dp2117
sg71
g2051
sg64
(lp2118
g57
(g78
g59
NtRp2119
(dp2120
g62
(dp2121
sg71
g2115
sg64
(lp2122
g57
(g58
g59
NtRp2123
(dp2124
g62
(dp2125
g70
I3
ssg71
g2119
sg64
(lp2126
g1154
asbasbasbag57
(g73
g59
NtRp2127
(dp2128
g62
(dp2129
sg71
g2051
sg64
(lp2130
g57
(g78
g59
NtRp2131
(dp2132
g62
(dp2133
sg71
g2127
sg64
(lp2134
g57
(g58
g59
NtRp2135
(dp2136
g62
(dp2137
g70
I3
ssg71
g2131
sg64
(lp2138
g1167
asbasbasbag57
(g73
g59
NtRp2139
(dp2140
g62
(dp2141
sg71
g2051
sg64
(lp2142
g57
(g78
g59
NtRp2143
(dp2144
g62
(dp2145
sg71
g2139
sg64
(lp2146
g57
(g58
g59
NtRp2147
(dp2148
g62
(dp2149
g70
I3
ssg71
g2143
sg64
(lp2150
g1180
asbasbasbasbasbasbasbag57
(g73
g59
NtRp2151
(dp2152
g62
(dp2153
sg71
g1840
sg64
(lp2154
g57
(g78
g59
NtRp2155
(dp2156
g62
(dp2157
g82
g83
ssg71
g2151
sg64
(lp2158
g1448
asbag57
(g78
g59
NtRp2159
(dp2160
g62
(dp2161
g89
g90
ssg71
g2151
sg64
(lp2162
S':'
asbag57
(g78
g59
NtRp2163
(dp2164
g62
(dp2165
sg71
g2151
sg64
(lp2166
g57
(g58
g59
NtRp2167
(dp2168
g62
(dp2169
g70
I4
ssg71
g2163
sg64
(lp2170
g57
(g66
g59
NtRp2171
(dp2172
g62
(dp2173
g70
I3
ssg71
Nsg64
(lp2174
g57
(g73
g59
NtRp2175
(dp2176
g62
(dp2177
sg71
g2171
sg64
(lp2178
g57
(g78
g59
NtRp2179
(dp2180
g62
(dp2181
sg71
g2175
sg64
(lp2182
g57
(g58
g59
NtRp2183
(dp2184
g62
(dp2185
g70
I3
ssg71
g2179
sg64
(lp2186
S'2'
asbasbasbag57
(g73
g59
NtRp2187
(dp2188
g62
(dp2189
sg71
g2171
sg64
(lp2190
g57
(g78
g59
NtRp2191
(dp2192
g62
(dp2193
sg71
g2187
sg64
(lp2194
g57
(g58
g59
NtRp2195
(dp2196
g62
(dp2197
g70
I3
ssg71
g2191
sg64
(lp2198
S'4'
asbasbasbag57
(g73
g59
NtRp2199
(dp2200
g62
(dp2201
sg71
g2171
sg64
(lp2202
g57
(g78
g59
NtRp2203
(dp2204
g62
(dp2205
sg71
g2199
sg64
(lp2206
g57
(g58
g59
NtRp2207
(dp2208
g62
(dp2209
g70
I3
ssg71
g2203
sg64
(lp2210
S'1'
asbasbasbag57
(g73
g59
NtRp2211
(dp2212
g62
(dp2213
sg71
g2171
sg64
(lp2214
g57
(g78
g59
NtRp2215
(dp2216
g62
(dp2217
sg71
g2211
sg64
(lp2218
g57
(g58
g59
NtRp2219
(dp2220
g62
(dp2221
g70
I3
ssg71
g2215
sg64
(lp2222
g1513
asbasbasbag57
(g73
g59
NtRp2223
(dp2224
g62
(dp2225
sg71
g2171
sg64
(lp2226
g57
(g78
g59
NtRp2227
(dp2228
g62
(dp2229
sg71
g2223
sg64
(lp2230
g57
(g58
g59
NtRp2231
(dp2232
g62
(dp2233
g70
I3
ssg71
g2227
sg64
(lp2234
S'datetime.datetime(2012, 12, 20, 18, 16, 2)'
p2235
asbasbasbasbasbasbasbasbasbasbasbag57
(g73
g59
NtRp2236
(dp2237
g62
(dp2238
sg71
g67
sg64
(lp2239
g57
(g78
g59
NtRp2240
(dp2241
g62
(dp2242
g82
g83
ssg71
g2236
sg64
(lp2243
S'is_https'
p2244
asbag57
(g78
g59
NtRp2245
(dp2246
g62
(dp2247
g89
g90
ssg71
g2236
sg64
(lp2248
S':'
asbag57
(g78
g59
NtRp2249
(dp2250
g62
(dp2251
sg71
g2236
sg64
(lp2252
g57
(g58
g59
NtRp2253
(dp2254
g62
(dp2255
g70
I5
ssg71
g2249
sg64
(lp2256
g100
asbasbasbag57
(g73
g59
NtRp2257
(dp2258
g62
(dp2259
sg71
g67
sg64
(lp2260
g57
(g78
g59
NtRp2261
(dp2262
g62
(dp2263
g82
g83
ssg71
g2257
sg64
(lp2264
S'is_local'
p2265
asbag57
(g78
g59
NtRp2266
(dp2267
g62
(dp2268
g89
g90
ssg71
g2257
sg64
(lp2269
S':'
asbag57
(g78
g59
NtRp2270
(dp2271
g62
(dp2272
sg71
g2257
sg64
(lp2273
g57
(g58
g59
NtRp2274
(dp2275
g62
(dp2276
g70
I5
ssg71
g2270
sg64
(lp2277
g1635
asbasbasbag57
(g73
g59
NtRp2278
(dp2279
g62
(dp2280
sg71
g67
sg64
(lp2281
g57
(g78
g59
NtRp2282
(dp2283
g62
(dp2284
g82
g83
ssg71
g2278
sg64
(lp2285
S'is_restful'
p2286
asbag57
(g78
g59
NtRp2287
(dp2288
g62
(dp2289
g89
g90
ssg71
g2278
sg64
(lp2290
S':'
asbag57
(g78
g59
NtRp2291
(dp2292
g62
(dp2293
sg71
g2278
sg64
(lp2294
g57
(g58
g59
NtRp2295
(dp2296
g62
(dp2297
g70
I5
ssg71
g2291
sg64
(lp2298
g100
asbasbasbag57
(g73
g59
NtRp2299
(dp2300
g62
(dp2301
sg71
g67
sg64
(lp2302
g57
(g78
g59
NtRp2303
(dp2304
g62
(dp2305
g82
g83
ssg71
g2299
sg64
(lp2306
S'now'
p2307
asbag57
(g78
g59
NtRp2308
(dp2309
g62
(dp2310
g89
g90
ssg71
g2299
sg64
(lp2311
S':'
asbag57
(g78
g59
NtRp2312
(dp2313
g62
(dp2314
sg71
g2299
sg64
(lp2315
g57
(g58
g59
NtRp2316
(dp2317
g62
(dp2318
g70
I5
ssg71
g2312
sg64
(lp2319
S'datetime.datetime(2013, 1, 30, 17, 37, 30, 957000)'
p2320
asbasbasbag57
(g73
g59
NtRp2321
(dp2322
g62
(dp2323
sg71
g67
sg64
(lp2324
g57
(g78
g59
NtRp2325
(dp2326
g62
(dp2327
g82
g83
ssg71
g2321
sg64
(lp2328
S'post_vars'
p2329
asbag57
(g78
g59
NtRp2330
(dp2331
g62
(dp2332
g89
g90
ssg71
g2321
sg64
(lp2333
S':'
asbag57
(g78
g59
NtRp2334
(dp2335
g62
(dp2336
sg71
g2321
sg64
(lp2337
g57
(g58
g59
NtRp2338
(dp2339
g62
(dp2340
g70
I5
ssg71
g2334
sg64
(lp2341
g57
(g66
g59
NtRp2342
(dp2343
g62
(dp2344
g70
I4
ssg71
Nsg64
(lp2345
sbasbasbasbag57
(g73
g59
NtRp2346
(dp2347
g62
(dp2348
sg71
g67
sg64
(lp2349
g57
(g78
g59
NtRp2350
(dp2351
g62
(dp2352
g82
g83
ssg71
g2346
sg64
(lp2353
S'raw_args'
p2354
asbag57
(g78
g59
NtRp2355
(dp2356
g62
(dp2357
g89
g90
ssg71
g2346
sg64
(lp2358
S':'
asbag57
(g78
g59
NtRp2359
(dp2360
g62
(dp2361
sg71
g2346
sg64
(lp2362
g57
(g58
g59
NtRp2363
(dp2364
g62
(dp2365
g70
I5
ssg71
g2359
sg64
(lp2366
g159
asbasbasbag57
(g73
g59
NtRp2367
(dp2368
g62
(dp2369
sg71
g67
sg64
(lp2370
g57
(g78
g59
NtRp2371
(dp2372
g62
(dp2373
g82
g83
ssg71
g2367
sg64
(lp2374
S'raw_extension'
p2375
asbag57
(g78
g59
NtRp2376
(dp2377
g62
(dp2378
g89
g90
ssg71
g2367
sg64
(lp2379
S':'
asbag57
(g78
g59
NtRp2380
(dp2381
g62
(dp2382
sg71
g2367
sg64
(lp2383
g57
(g58
g59
NtRp2384
(dp2385
g62
(dp2386
g70
I5
ssg71
g2380
sg64
(lp2387
S'None'
p2388
asbasbasbag57
(g73
g59
NtRp2389
(dp2390
g62
(dp2391
sg71
g67
sg64
(lp2392
g57
(g78
g59
NtRp2393
(dp2394
g62
(dp2395
g82
g83
ssg71
g2389
sg64
(lp2396
S'url'
p2397
asbag57
(g78
g59
NtRp2398
(dp2399
g62
(dp2400
g89
g90
ssg71
g2389
sg64
(lp2401
S':'
asbag57
(g78
g59
NtRp2402
(dp2403
g62
(dp2404
sg71
g2389
sg64
(lp2405
g57
(g58
g59
NtRp2406
(dp2407
g62
(dp2408
g70
I5
ssg71
g2402
sg64
(lp2409
g1202
asbasbasbag57
(g73
g59
NtRp2410
(dp2411
g62
(dp2412
sg71
g67
sg64
(lp2413
g57
(g78
g59
NtRp2414
(dp2415
g62
(dp2416
g82
g83
ssg71
g2410
sg64
(lp2417
S'utcnow'
p2418
asbag57
(g78
g59
NtRp2419
(dp2420
g62
(dp2421
g89
g90
ssg71
g2410
sg64
(lp2422
S':'
asbag57
(g78
g59
NtRp2423
(dp2424
g62
(dp2425
sg71
g2410
sg64
(lp2426
g57
(g58
g59
NtRp2427
(dp2428
g62
(dp2429
g70
I5
ssg71
g2423
sg64
(lp2430
S'datetime.datetime(2013, 1, 30, 10, 37, 30, 957000)'
p2431
asbasbasbag57
(g73
g59
NtRp2432
(dp2433
g62
(dp2434
sg71
g67
sg64
(lp2435
g57
(g78
g59
NtRp2436
(dp2437
g62
(dp2438
g82
g83
ssg71
g2432
sg64
(lp2439
S'uuid'
p2440
asbag57
(g78
g59
NtRp2441
(dp2442
g62
(dp2443
g89
g90
ssg71
g2432
sg64
(lp2444
S':'
asbag57
(g78
g59
NtRp2445
(dp2446
g62
(dp2447
sg71
g2432
sg64
(lp2448
g57
(g58
g59
NtRp2449
(dp2450
g62
(dp2451
g70
I5
ssg71
g2445
sg64
(lp2452
S'welcome/127.0.0.1.2013-01-30.17-37-30.19c676e1-2279-4ffe-a5bb-70b18d393dcf'
p2453
asbasbasbag57
(g73
g59
NtRp2454
(dp2455
g62
(dp2456
sg71
g67
sg64
(lp2457
g57
(g78
g59
NtRp2458
(dp2459
g62
(dp2460
g82
g83
ssg71
g2454
sg64
(lp2461
S'vars'
p2462
asbag57
(g78
g59
NtRp2463
(dp2464
g62
(dp2465
g89
g90
ssg71
g2454
sg64
(lp2466
S':'
asbag57
(g78
g59
NtRp2467
(dp2468
g62
(dp2469
sg71
g2454
sg64
(lp2470
g57
(g58
g59
NtRp2471
(dp2472
g62
(dp2473
g70
I5
ssg71
g2467
sg64
(lp2474
g57
(g66
g59
NtRp2475
(dp2476
g62
(dp2477
g70
I4
ssg71
Nsg64
(lp2478
sbasbasbasbag57
(g73
g59
NtRp2479
(dp2480
g62
(dp2481
sg71
g67
sg64
(lp2482
g57
(g78
g59
NtRp2483
(dp2484
g62
(dp2485
g82
g83
ssg71
g2479
sg64
(lp2486
S'wsgi'
p2487
asbag57
(g78
g59
NtRp2488
(dp2489
g62
(dp2490
g89
g90
ssg71
g2479
sg64
(lp2491
S':'
asbag57
(g78
g59
NtRp2492
(dp2493
g62
(dp2494
sg71
g2479
sg64
(lp2495
g57
(g58
g59
NtRp2496
(dp2497
g62
(dp2498
g70
I5
ssg71
g2492
sg64
(lp2499
g57
(g66
g59
NtRp2500
(dp2501
g62
(dp2502
g70
I4
ssg71
Nsg64
(lp2503
g57
(g73
g59
NtRp2504
(dp2505
g62
(dp2506
sg71
g2500
sg64
(lp2507
g57
(g78
g59
NtRp2508
(dp2509
g62
(dp2510
g82
g83
ssg71
g2504
sg64
(lp2511
S'environ'
p2512
asbag57
(g78
g59
NtRp2513
(dp2514
g62
(dp2515
g89
g90
ssg71
g2504
sg64
(lp2516
S':'
asbag57
(g78
g59
NtRp2517
(dp2518
g62
(dp2519
sg71
g2504
sg64
(lp2520
g57
(g58
g59
NtRp2521
(dp2522
g62
(dp2523
g70
I4
ssg71
g2517
sg64
(lp2524
g57
(g66
g59
NtRp2525
(dp2526
g62
(dp2527
g70
I3
ssg71
Nsg64
(lp2528
g57
(g73
g59
NtRp2529
(dp2530
g62
(dp2531
sg71
g2525
sg64
(lp2532
g57
(g78
g59
NtRp2533
(dp2534
g62
(dp2535
g82
g83
ssg71
g2529
sg64
(lp2536
S'HTTP_ACCEPT'
p2537
asbag57
(g78
g59
NtRp2538
(dp2539
g62
(dp2540
g89
g90
ssg71
g2529
sg64
(lp2541
S':'
asbag57
(g78
g59
NtRp2542
(dp2543
g62
(dp2544
sg71
g2529
sg64
(lp2545
g57
(g58
g59
NtRp2546
(dp2547
g62
(dp2548
g70
I3
ssg71
g2542
sg64
(lp2549
g855
asbasbasbag57
(g73
g59
NtRp2550
(dp2551
g62
(dp2552
sg71
g2525
sg64
(lp2553
g57
(g78
g59
NtRp2554
(dp2555
g62
(dp2556
g82
g83
ssg71
g2550
sg64
(lp2557
S'HTTP_ACCEPT_CHARSET'
p2558
asbag57
(g78
g59
NtRp2559
(dp2560
g62
(dp2561
g89
g90
ssg71
g2550
sg64
(lp2562
S':'
asbag57
(g78
g59
NtRp2563
(dp2564
g62
(dp2565
sg71
g2550
sg64
(lp2566
g57
(g58
g59
NtRp2567
(dp2568
g62
(dp2569
g70
I3
ssg71
g2563
sg64
(lp2570
g877
asbasbasbag57
(g73
g59
NtRp2571
(dp2572
g62
(dp2573
sg71
g2525
sg64
(lp2574
g57
(g78
g59
NtRp2575
(dp2576
g62
(dp2577
g82
g83
ssg71
g2571
sg64
(lp2578
S'HTTP_ACCEPT_ENCODING'
p2579
asbag57
(g78
g59
NtRp2580
(dp2581
g62
(dp2582
g89
g90
ssg71
g2571
sg64
(lp2583
S':'
asbag57
(g78
g59
NtRp2584
(dp2585
g62
(dp2586
sg71
g2571
sg64
(lp2587
g57
(g58
g59
NtRp2588
(dp2589
g62
(dp2590
g70
I3
ssg71
g2584
sg64
(lp2591
g899
asbasbasbag57
(g73
g59
NtRp2592
(dp2593
g62
(dp2594
sg71
g2525
sg64
(lp2595
g57
(g78
g59
NtRp2596
(dp2597
g62
(dp2598
g82
g83
ssg71
g2592
sg64
(lp2599
S'HTTP_ACCEPT_LANGUAGE'
p2600
asbag57
(g78
g59
NtRp2601
(dp2602
g62
(dp2603
g89
g90
ssg71
g2592
sg64
(lp2604
S':'
asbag57
(g78
g59
NtRp2605
(dp2606
g62
(dp2607
sg71
g2592
sg64
(lp2608
g57
(g58
g59
NtRp2609
(dp2610
g62
(dp2611
g70
I3
ssg71
g2605
sg64
(lp2612
g921
asbasbasbag57
(g73
g59
NtRp2613
(dp2614
g62
(dp2615
sg71
g2525
sg64
(lp2616
g57
(g78
g59
NtRp2617
(dp2618
g62
(dp2619
g82
g83
ssg71
g2613
sg64
(lp2620
S'HTTP_CONNECTION'
p2621
asbag57
(g78
g59
NtRp2622
(dp2623
g62
(dp2624
g89
g90
ssg71
g2613
sg64
(lp2625
S':'
asbag57
(g78
g59
NtRp2626
(dp2627
g62
(dp2628
sg71
g2613
sg64
(lp2629
g57
(g58
g59
NtRp2630
(dp2631
g62
(dp2632
g70
I3
ssg71
g2626
sg64
(lp2633
g943
asbasbasbag57
(g73
g59
NtRp2634
(dp2635
g62
(dp2636
sg71
g2525
sg64
(lp2637
g57
(g78
g59
NtRp2638
(dp2639
g62
(dp2640
g82
g83
ssg71
g2634
sg64
(lp2641
S'HTTP_COOKIE'
p2642
asbag57
(g78
g59
NtRp2643
(dp2644
g62
(dp2645
g89
g90
ssg71
g2634
sg64
(lp2646
S':'
asbag57
(g78
g59
NtRp2647
(dp2648
g62
(dp2649
sg71
g2634
sg64
(lp2650
g57
(g58
g59
NtRp2651
(dp2652
g62
(dp2653
g70
I3
ssg71
g2647
sg64
(lp2654
g965
asbasbasbag57
(g73
g59
NtRp2655
(dp2656
g62
(dp2657
sg71
g2525
sg64
(lp2658
g57
(g78
g59
NtRp2659
(dp2660
g62
(dp2661
g82
g83
ssg71
g2655
sg64
(lp2662
S'HTTP_HOST'
p2663
asbag57
(g78
g59
NtRp2664
(dp2665
g62
(dp2666
g89
g90
ssg71
g2655
sg64
(lp2667
S':'
asbag57
(g78
g59
NtRp2668
(dp2669
g62
(dp2670
sg71
g2655
sg64
(lp2671
g57
(g58
g59
NtRp2672
(dp2673
g62
(dp2674
g70
I3
ssg71
g2668
sg64
(lp2675
g987
asbasbasbag57
(g73
g59
NtRp2676
(dp2677
g62
(dp2678
sg71
g2525
sg64
(lp2679
g57
(g78
g59
NtRp2680
(dp2681
g62
(dp2682
g82
g83
ssg71
g2676
sg64
(lp2683
S'HTTP_USER_AGENT'
p2684
asbag57
(g78
g59
NtRp2685
(dp2686
g62
(dp2687
g89
g90
ssg71
g2676
sg64
(lp2688
S':'
asbag57
(g78
g59
NtRp2689
(dp2690
g62
(dp2691
sg71
g2676
sg64
(lp2692
g57
(g58
g59
NtRp2693
(dp2694
g62
(dp2695
g70
I3
ssg71
g2689
sg64
(lp2696
g1009
asbasbasbag57
(g73
g59
NtRp2697
(dp2698
g62
(dp2699
sg71
g2525
sg64
(lp2700
g57
(g78
g59
NtRp2701
(dp2702
g62
(dp2703
g82
g83
ssg71
g2697
sg64
(lp2704
S'PATH_INFO'
p2705
asbag57
(g78
g59
NtRp2706
(dp2707
g62
(dp2708
g89
g90
ssg71
g2697
sg64
(lp2709
S':'
asbag57
(g78
g59
NtRp2710
(dp2711
g62
(dp2712
sg71
g2697
sg64
(lp2713
g57
(g58
g59
NtRp2714
(dp2715
g62
(dp2716
g70
I3
ssg71
g2710
sg64
(lp2717
g1202
asbasbasbag57
(g73
g59
NtRp2718
(dp2719
g62
(dp2720
sg71
g2525
sg64
(lp2721
g57
(g78
g59
NtRp2722
(dp2723
g62
(dp2724
g82
g83
ssg71
g2718
sg64
(lp2725
S'QUERY_STRING'
p2726
asbag57
(g78
g59
NtRp2727
(dp2728
g62
(dp2729
g89
g90
ssg71
g2718
sg64
(lp2730
S':'
asbag57
(g78
g59
NtRp2731
(dp2732
g62
(dp2733
sg71
g2718
sg64
(lp2734
g57
(g58
g59
NtRp2735
(dp2736
g62
(dp2737
g70
I3
ssg71
g2731
sg64
(lp2738
S''
asbasbasbag57
(g73
g59
NtRp2739
(dp2740
g62
(dp2741
sg71
g2525
sg64
(lp2742
g57
(g78
g59
NtRp2743
(dp2744
g62
(dp2745
g82
g83
ssg71
g2739
sg64
(lp2746
S'REMOTE_ADDR'
p2747
asbag57
(g78
g59
NtRp2748
(dp2749
g62
(dp2750
g89
g90
ssg71
g2739
sg64
(lp2751
S':'
asbag57
(g78
g59
NtRp2752
(dp2753
g62
(dp2754
sg71
g2739
sg64
(lp2755
g57
(g58
g59
NtRp2756
(dp2757
g62
(dp2758
g70
I3
ssg71
g2752
sg64
(lp2759
g225
asbasbasbag57
(g73
g59
NtRp2760
(dp2761
g62
(dp2762
sg71
g2525
sg64
(lp2763
g57
(g78
g59
NtRp2764
(dp2765
g62
(dp2766
g82
g83
ssg71
g2760
sg64
(lp2767
S'REMOTE_PORT'
p2768
asbag57
(g78
g59
NtRp2769
(dp2770
g62
(dp2771
g89
g90
ssg71
g2760
sg64
(lp2772
S':'
asbag57
(g78
g59
NtRp2773
(dp2774
g62
(dp2775
sg71
g2760
sg64
(lp2776
g57
(g58
g59
NtRp2777
(dp2778
g62
(dp2779
g70
I3
ssg71
g2773
sg64
(lp2780
g1266
asbasbasbag57
(g73
g59
NtRp2781
(dp2782
g62
(dp2783
sg71
g2525
sg64
(lp2784
g57
(g78
g59
NtRp2785
(dp2786
g62
(dp2787
g82
g83
ssg71
g2781
sg64
(lp2788
S'REQUEST_METHOD'
p2789
asbag57
(g78
g59
NtRp2790
(dp2791
g62
(dp2792
g89
g90
ssg71
g2781
sg64
(lp2793
S':'
asbag57
(g78
g59
NtRp2794
(dp2795
g62
(dp2796
sg71
g2781
sg64
(lp2797
g57
(g58
g59
NtRp2798
(dp2799
g62
(dp2800
g70
I3
ssg71
g2794
sg64
(lp2801
g1288
asbasbasbag57
(g73
g59
NtRp2802
(dp2803
g62
(dp2804
sg71
g2525
sg64
(lp2805
g57
(g78
g59
NtRp2806
(dp2807
g62
(dp2808
g82
g83
ssg71
g2802
sg64
(lp2809
S'REQUEST_URI'
p2810
asbag57
(g78
g59
NtRp2811
(dp2812
g62
(dp2813
g89
g90
ssg71
g2802
sg64
(lp2814
S':'
asbag57
(g78
g59
NtRp2815
(dp2816
g62
(dp2817
sg71
g2802
sg64
(lp2818
g57
(g58
g59
NtRp2819
(dp2820
g62
(dp2821
g70
I3
ssg71
g2815
sg64
(lp2822
g1202
asbasbasbag57
(g73
g59
NtRp2823
(dp2824
g62
(dp2825
sg71
g2525
sg64
(lp2826
g57
(g78
g59
NtRp2827
(dp2828
g62
(dp2829
g82
g83
ssg71
g2823
sg64
(lp2830
S'SCRIPT_NAME'
p2831
asbag57
(g78
g59
NtRp2832
(dp2833
g62
(dp2834
g89
g90
ssg71
g2823
sg64
(lp2835
S':'
asbag57
(g78
g59
NtRp2836
(dp2837
g62
(dp2838
sg71
g2823
sg64
(lp2839
g57
(g58
g59
NtRp2840
(dp2841
g62
(dp2842
g70
I3
ssg71
g2836
sg64
(lp2843
S''
asbasbasbag57
(g73
g59
NtRp2844
(dp2845
g62
(dp2846
sg71
g2525
sg64
(lp2847
g57
(g78
g59
NtRp2848
(dp2849
g62
(dp2850
g82
g83
ssg71
g2844
sg64
(lp2851
S'SERVER_NAME'
p2852
asbag57
(g78
g59
NtRp2853
(dp2854
g62
(dp2855
g89
g90
ssg71
g2844
sg64
(lp2856
S':'
asbag57
(g78
g59
NtRp2857
(dp2858
g62
(dp2859
sg71
g2844
sg64
(lp2860
g57
(g58
g59
NtRp2861
(dp2862
g62
(dp2863
g70
I3
ssg71
g2857
sg64
(lp2864
g1352
asbasbasbag57
(g73
g59
NtRp2865
(dp2866
g62
(dp2867
sg71
g2525
sg64
(lp2868
g57
(g78
g59
NtRp2869
(dp2870
g62
(dp2871
g82
g83
ssg71
g2865
sg64
(lp2872
S'SERVER_PORT'
p2873
asbag57
(g78
g59
NtRp2874
(dp2875
g62
(dp2876
g89
g90
ssg71
g2865
sg64
(lp2877
S':'
asbag57
(g78
g59
NtRp2878
(dp2879
g62
(dp2880
sg71
g2865
sg64
(lp2881
g57
(g58
g59
NtRp2882
(dp2883
g62
(dp2884
g70
I3
ssg71
g2878
sg64
(lp2885
g1374
asbasbasbag57
(g73
g59
NtRp2886
(dp2887
g62
(dp2888
sg71
g2525
sg64
(lp2889
g57
(g78
g59
NtRp2890
(dp2891
g62
(dp2892
g82
g83
ssg71
g2886
sg64
(lp2893
S'SERVER_PROTOCOL'
p2894
asbag57
(g78
g59
NtRp2895
(dp2896
g62
(dp2897
g89
g90
ssg71
g2886
sg64
(lp2898
S':'
asbag57
(g78
g59
NtRp2899
(dp2900
g62
(dp2901
sg71
g2886
sg64
(lp2902
g57
(g58
g59
NtRp2903
(dp2904
g62
(dp2905
g70
I3
ssg71
g2899
sg64
(lp2906
g1396
asbasbasbag57
(g73
g59
NtRp2907
(dp2908
g62
(dp2909
sg71
g2525
sg64
(lp2910
g57
(g78
g59
NtRp2911
(dp2912
g62
(dp2913
g82
g83
ssg71
g2907
sg64
(lp2914
S'SERVER_SOFTWARE'
p2915
asbag57
(g78
g59
NtRp2916
(dp2917
g62
(dp2918
g89
g90
ssg71
g2907
sg64
(lp2919
S':'
asbag57
(g78
g59
NtRp2920
(dp2921
g62
(dp2922
sg71
g2907
sg64
(lp2923
g57
(g58
g59
NtRp2924
(dp2925
g62
(dp2926
g70
I3
ssg71
g2920
sg64
(lp2927
g1418
asbasbasbag57
(g73
g59
NtRp2928
(dp2929
g62
(dp2930
sg71
g2525
sg64
(lp2931
g57
(g78
g59
NtRp2932
(dp2933
g62
(dp2934
g82
g83
ssg71
g2928
sg64
(lp2935
S'wsgi.errors'
p2936
asbag57
(g78
g59
NtRp2937
(dp2938
g62
(dp2939
g89
g90
ssg71
g2928
sg64
(lp2940
S':'
asbag57
(g78
g59
NtRp2941
(dp2942
g62
(dp2943
sg71
g2928
sg64
(lp2944
g57
(g58
g59
NtRp2945
(dp2946
g62
(dp2947
g70
I3
ssg71
g2941
sg64
(lp2948
S"<open file '<stderr>', mode 'w' at 0x0000000001D061E0>"
p2949
asbasbasbag57
(g73
g59
NtRp2950
(dp2951
g62
(dp2952
sg71
g2525
sg64
(lp2953
g57
(g78
g59
NtRp2954
(dp2955
g62
(dp2956
g82
g83
ssg71
g2950
sg64
(lp2957
S'wsgi.file_wrapper'
p2958
asbag57
(g78
g59
NtRp2959
(dp2960
g62
(dp2961
g89
g90
ssg71
g2950
sg64
(lp2962
S':'
asbag57
(g78
g59
NtRp2963
(dp2964
g62
(dp2965
sg71
g2950
sg64
(lp2966
g57
(g58
g59
NtRp2967
(dp2968
g62
(dp2969
g70
I3
ssg71
g2963
sg64
(lp2970
S'<class wsgiref.util.FileWrapper at 0x00000000036FCEE8>'
p2971
asbasbasbag57
(g73
g59
NtRp2972
(dp2973
g62
(dp2974
sg71
g2525
sg64
(lp2975
g57
(g78
g59
NtRp2976
(dp2977
g62
(dp2978
g82
g83
ssg71
g2972
sg64
(lp2979
S'wsgi.input'
p2980
asbag57
(g78
g59
NtRp2981
(dp2982
g62
(dp2983
g89
g90
ssg71
g2972
sg64
(lp2984
S':'
asbag57
(g78
g59
NtRp2985
(dp2986
g62
(dp2987
sg71
g2972
sg64
(lp2988
g57
(g58
g59
NtRp2989
(dp2990
g62
(dp2991
g70
I3
ssg71
g2985
sg64
(lp2992
S'<cStringIO.StringO object at 0x0000000003782308>'
p2993
asbasbasbag57
(g73
g59
NtRp2994
(dp2995
g62
(dp2996
sg71
g2525
sg64
(lp2997
g57
(g78
g59
NtRp2998
(dp2999
g62
(dp3000
g82
g83
ssg71
g2994
sg64
(lp3001
S'wsgi.multiprocess'
p3002
asbag57
(g78
g59
NtRp3003
(dp3004
g62
(dp3005
g89
g90
ssg71
g2994
sg64
(lp3006
S':'
asbag57
(g78
g59
NtRp3007
(dp3008
g62
(dp3009
sg71
g2994
sg64
(lp3010
g57
(g58
g59
NtRp3011
(dp3012
g62
(dp3013
g70
I3
ssg71
g3007
sg64
(lp3014
g100
asbasbasbag57
(g73
g59
NtRp3015
(dp3016
g62
(dp3017
sg71
g2525
sg64
(lp3018
g57
(g78
g59
NtRp3019
(dp3020
g62
(dp3021
g82
g83
ssg71
g3015
sg64
(lp3022
S'wsgi.multithread'
p3023
asbag57
(g78
g59
NtRp3024
(dp3025
g62
(dp3026
g89
g90
ssg71
g3015
sg64
(lp3027
S':'
asbag57
(g78
g59
NtRp3028
(dp3029
g62
(dp3030
sg71
g3015
sg64
(lp3031
g57
(g58
g59
NtRp3032
(dp3033
g62
(dp3034
g70
I3
ssg71
g3028
sg64
(lp3035
g1635
asbasbasbag57
(g73
g59
NtRp3036
(dp3037
g62
(dp3038
sg71
g2525
sg64
(lp3039
g57
(g78
g59
NtRp3040
(dp3041
g62
(dp3042
g82
g83
ssg71
g3036
sg64
(lp3043
S'wsgi.run_once'
p3044
asbag57
(g78
g59
NtRp3045
(dp3046
g62
(dp3047
g89
g90
ssg71
g3036
sg64
(lp3048
S':'
asbag57
(g78
g59
NtRp3049
(dp3050
g62
(dp3051
sg71
g3036
sg64
(lp3052
g57
(g58
g59
NtRp3053
(dp3054
g62
(dp3055
g70
I3
ssg71
g3049
sg64
(lp3056
g100
asbasbasbag57
(g73
g59
NtRp3057
(dp3058
g62
(dp3059
sg71
g2525
sg64
(lp3060
g57
(g78
g59
NtRp3061
(dp3062
g62
(dp3063
g82
g83
ssg71
g3057
sg64
(lp3064
S'wsgi.url_scheme'
p3065
asbag57
(g78
g59
NtRp3066
(dp3067
g62
(dp3068
g89
g90
ssg71
g3057
sg64
(lp3069
S':'
asbag57
(g78
g59
NtRp3070
(dp3071
g62
(dp3072
sg71
g3057
sg64
(lp3073
g57
(g58
g59
NtRp3074
(dp3075
g62
(dp3076
g70
I3
ssg71
g3070
sg64
(lp3077
g1678
asbasbasbag57
(g73
g59
NtRp3078
(dp3079
g62
(dp3080
sg71
g2525
sg64
(lp3081
g57
(g78
g59
NtRp3082
(dp3083
g62
(dp3084
g82
g83
ssg71
g3078
sg64
(lp3085
S'wsgi.version'
p3086
asbag57
(g78
g59
NtRp3087
(dp3088
g62
(dp3089
g89
g90
ssg71
g3078
sg64
(lp3090
S':'
asbag57
(g78
g59
NtRp3091
(dp3092
g62
(dp3093
sg71
g3078
sg64
(lp3094
g57
(g58
g59
NtRp3095
(dp3096
g62
(dp3097
g70
I3
ssg71
g3091
sg64
(lp3098
S'1'
asbasbasbasbasbasbasbasbasbasbasbasbasbsS'frames'
p3099
(lp3100
(dp3101
S'file'
p3102
S'D:\\Work\\webRTC\\web2py\\gluon\\restricted.py'
p3103
sS'dump'
p3104
(dp3105
S'environment'
p3106
S"{'A': <class 'gluon.html.A'>, 'Auth': <class 'gluon.tools.Auth'>, 'B': <class 'gluon.html.B'>, 'BEAUTIFY': <class 'gluon.html.BEAUTIFY'>, 'BODY': <class 'gluon.html.BODY'>, 'BR': <class 'gluon.html.BR'>, 'BUTTON': <class 'gluon.html.BUTTON'>, 'CAT': <class 'gluon.html.CAT'>, 'CENTER': <class 'gluon.html.CENTER'>, 'CLEANUP': <class 'gluon.validators.CLEANUP'>, ...}"
p3107
sS'ccode'
p3108
S'<code object <module> at 000000000A0C4DB0, file ...lications\\welcome\\controllers/webrtc.py", line 3>'
p3109
ssS'lnum'
p3110
I212
sS'lines'
p3111
(dp3112
I207
S'    try:'
p3113
sI208
S'        if isinstance(code, types.CodeType):'
p3114
sI209
S'            ccode = code'
p3115
sI210
S'        else:'
p3116
sI211
S'            ccode = compile2(code, layer)'
p3117
sI212
S'        exec ccode in environment'
p3118
sI213
S'    except HTTP:'
p3119
sI214
S'        raise'
p3120
sI215
S'    except RestrictedError:'
p3121
sI216
S'        # do not encapsulate (obfuscate) the original RestrictedError'
p3122
ssS'call'
p3123
S"(code='# coding: utf8\\n# try something like\\nhost_name = ...dict()\\n\\nresponse._vars=response._caller(student)\\n', environment={'A': <class 'gluon.html.A'>, 'Auth': <class 'gluon.tools.Auth'>, 'B': <class 'gluon.html.B'>, 'BEAUTIFY': <class 'gluon.html.BEAUTIFY'>, 'BODY': <class 'gluon.html.BODY'>, 'BR': <class 'gluon.html.BR'>, 'BUTTON': <class 'gluon.html.BUTTON'>, 'CAT': <class 'gluon.html.CAT'>, 'CENTER': <class 'gluon.html.CENTER'>, 'CLEANUP': <class 'gluon.validators.CLEANUP'>, ...}, layer=r'D:\\Work\\webRTC\\web2py\\applications\\welcome\\controllers/webrtc.py')"
p3124
sS'func'
p3125
S'restricted'
p3126
sa(dp3127
g3102
S'D:\\Work\\webRTC\\web2py\\applications\\welcome\\controllers\\webrtc.py'
p3128
sg3104
(dp3129
sg3110
I24
sg3111
(dp3130
I13
S'    id = db.rtc.insert(access_token = key_gen)'
p3131
sI14
S'    relate_keys_db = db(db.rtc.id < id).select(db.rtc.access_token).first()'
p3132
sI15
S'    relate_keys = [str(item.access_token) for item in relate_keys_db]'
p3133
sI16
S'    return dict(host = host_name,access_token = key_gen,class_name=request.args[0],relate_keys= XML(relate_keys))'
p3134
sI17
S'def connect():'
p3135
sI18
S'   from gluon.contrib.websocket_messaging import websocket_send'
p3136
sI19
S"   websocket_send('http://'+host_name+':8888',request.vars.msg,'rtc',request.args[0])"
p3137
sI20
S'def demo():'
p3138
sI21
S"    response.files.append(URL('static','js/adapter.js'))"
p3139
sI22
S'    return dict()'
p3140
ssg3123
S'()'
p3141
sg3125
S'<module>'
p3142
sa(dp3143
g3102
S'D:\\Work\\webRTC\\web2py\\gluon\\globals.py'
p3144
sg3104
(dp3145
S'self'
p3146
S'undefined'
p3147
sS'f'
S'<function student>'
p3148
ssg3110
I193
sg3111
(dp3149
I192
S'        self._vars = None'
p3150
sI193
S'        self._caller = lambda f: f()'
p3151
sI194
S'        self._view_environment = None'
p3152
sI195
S'        self._custom_commit = None'
p3153
sI196
S'        self._custom_rollback = None'
p3154
sI197
S''
sI188
S'        self.menu = []             # used by the default view layout'
p3155
sI189
S'        self.files = []            # used by web2py_ajax.html'
p3156
sI190
S'        self.generic_patterns = []  # patterns to allow generic views'
p3157
sI191
S"        self.delimiters = ('{{', '}}')"
p3158
ssg3123
S'(f=<function student>)'
p3159
sg3125
S'<lambda>'
p3160
sa(dp3161
g3102
S'D:\\Work\\webRTC\\web2py\\applications\\welcome\\controllers\\webrtc.py'
p3162
sg3104
(dp3163
S'builtinstr'
p3164
S"<type 'str'>"
p3165
sS'item'
p3166
g3147
sS'relate_keys'
p3167
g3147
sS'relate_keys_db'
p3168
S'None'
p3169
ssg3110
I15
sg3111
(dp3170
I10
S'def student():'
p3171
sI11
S'    import sha, random, base64'
p3172
sI12
S'    key_gen = base64.b64encode(sha.sha(str(random.random())).hexdigest())[:8]'
p3173
sI13
S'    id = db.rtc.insert(access_token = key_gen)'
p3174
sI14
S'    relate_keys_db = db(db.rtc.id < id).select(db.rtc.access_token).first()'
p3175
sI15
S'    relate_keys = [str(item.access_token) for item in relate_keys_db]'
p3176
sI16
S'    return dict(host = host_name,access_token = key_gen,class_name=request.args[0],relate_keys= XML(relate_keys))'
p3177
sI17
S'def connect():'
p3178
sI18
S'   from gluon.contrib.websocket_messaging import websocket_send'
p3179
sI19
S"   websocket_send('http://'+host_name+':8888',request.vars.msg,'rtc',request.args[0])"
p3180
ssg3123
S'()'
p3181
sg3125
S'student'
p3182
sasS'pyver'
p3183
S'Python 2.7.3: d:\\python27\\python.exe\xa0'
p3184
sS'session'
p3185
g57
(g58
g59
NtRp3186
(dp3187
g62
(dp3188
sg64
(lp3189
g57
(g66
g59
NtRp3190
(dp3191
g62
(dp3192
g70
I5
ssg71
Nsg64
(lp3193
g57
(g73
g59
NtRp3194
(dp3195
g62
(dp3196
sg71
g3190
sg64
(lp3197
g57
(g78
g59
NtRp3198
(dp3199
g62
(dp3200
g82
g83
ssg71
g3194
sg64
(lp3201
S'flash'
p3202
asbag57
(g78
g59
NtRp3203
(dp3204
g62
(dp3205
g89
g90
ssg71
g3194
sg64
(lp3206
S':'
asbag57
(g78
g59
NtRp3207
(dp3208
g62
(dp3209
sg71
g3194
sg64
(lp3210
g57
(g58
g59
NtRp3211
(dp3212
g62
(dp3213
g70
I5
ssg71
g3207
sg64
(lp3214
S'None'
p3215
asbasbasbag57
(g73
g59
NtRp3216
(dp3217
g62
(dp3218
sg71
g3190
sg64
(lp3219
g57
(g78
g59
NtRp3220
(dp3221
g62
(dp3222
g82
g83
ssg71
g3216
sg64
(lp3223
S'last_orderby'
p3224
asbag57
(g78
g59
NtRp3225
(dp3226
g62
(dp3227
g89
g90
ssg71
g3216
sg64
(lp3228
S':'
asbag57
(g78
g59
NtRp3229
(dp3230
g62
(dp3231
sg71
g3216
sg64
(lp3232
g57
(g58
g59
NtRp3233
(dp3234
g62
(dp3235
g70
I5
ssg71
g3229
sg64
(lp3236
S'None'
p3237
asbasbasbag57
(g73
g59
NtRp3238
(dp3239
g62
(dp3240
sg71
g3190
sg64
(lp3241
g57
(g78
g59
NtRp3242
(dp3243
g62
(dp3244
g82
g83
ssg71
g3238
sg64
(lp3245
S'last_query'
p3246
asbag57
(g78
g59
NtRp3247
(dp3248
g62
(dp3249
g89
g90
ssg71
g3238
sg64
(lp3250
S':'
asbag57
(g78
g59
NtRp3251
(dp3252
g62
(dp3253
sg71
g3238
sg64
(lp3254
g57
(g58
g59
NtRp3255
(dp3256
g62
(dp3257
g70
I5
ssg71
g3251
sg64
(lp3258
S'db.rtc.id>0'
p3259
asbasbasbasbasbsS'etype'
p3260
S"<type 'exceptions.TypeError'>"
p3261
sS'date'
p3262
S'Wed Jan 30 17:37:31 2013'
p3263
sS'response'
p3264
g57
(g58
g59
NtRp3265
(dp3266
g62
(dp3267
sg64
(lp3268
g57
(g66
g59
NtRp3269
(dp3270
g62
(dp3271
g70
I5
ssg71
Nsg64
(lp3272
g57
(g73
g59
NtRp3273
(dp3274
g62
(dp3275
sg71
g3269
sg64
(lp3276
g57
(g78
g59
NtRp3277
(dp3278
g62
(dp3279
g82
g83
ssg71
g3273
sg64
(lp3280
g168
asbag57
(g78
g59
NtRp3281
(dp3282
g62
(dp3283
g89
g90
ssg71
g3273
sg64
(lp3284
S':'
asbag57
(g78
g59
NtRp3285
(dp3286
g62
(dp3287
sg71
g3273
sg64
(lp3288
g57
(g58
g59
NtRp3289
(dp3290
g62
(dp3291
g70
I5
ssg71
g3285
sg64
(lp3292
S'<cStringIO.StringO object at 0x0000000008B1BCE0>'
p3293
asbasbasbag57
(g73
g59
NtRp3294
(dp3295
g62
(dp3296
sg71
g3269
sg64
(lp3297
g57
(g78
g59
NtRp3298
(dp3299
g62
(dp3300
g82
g83
ssg71
g3294
sg64
(lp3301
g256
asbag57
(g78
g59
NtRp3302
(dp3303
g62
(dp3304
g89
g90
ssg71
g3294
sg64
(lp3305
S':'
asbag57
(g78
g59
NtRp3306
(dp3307
g62
(dp3308
sg71
g3294
sg64
(lp3309
g57
(g58
g59
NtRp3310
(dp3311
g62
(dp3312
g70
I5
ssg71
g3306
sg64
(lp3313
g57
(g66
g59
NtRp3314
(dp3315
g62
(dp3316
g70
I4
ssg71
Nsg64
(lp3317
g57
(g73
g59
NtRp3318
(dp3319
g62
(dp3320
sg71
g3314
sg64
(lp3321
g57
(g78
g59
NtRp3322
(dp3323
g62
(dp3324
g82
g83
ssg71
g3318
sg64
(lp3325
S'session_id_welcome'
p3326
asbag57
(g78
g59
NtRp3327
(dp3328
g62
(dp3329
g89
g90
ssg71
g3318
sg64
(lp3330
S':'
asbag57
(g78
g59
NtRp3331
(dp3332
g62
(dp3333
sg71
g3318
sg64
(lp3334
g57
(g58
g59
NtRp3335
(dp3336
g62
(dp3337
g70
I4
ssg71
g3331
sg64
(lp3338
g488
ag57
(g66
g59
NtRp3339
(dp3340
g62
(dp3341
g70
I3
ssg71
Nsg64
(lp3342
g57
(g73
g59
NtRp3343
(dp3344
g62
(dp3345
sg71
g3339
sg64
(lp3346
g57
(g78
g59
NtRp3347
(dp3348
g62
(dp3349
g82
g83
ssg71
g3343
sg64
(lp3350
g307
asbag57
(g78
g59
NtRp3351
(dp3352
g62
(dp3353
g89
g90
ssg71
g3343
sg64
(lp3354
S':'
asbag57
(g78
g59
NtRp3355
(dp3356
g62
(dp3357
sg71
g3343
sg64
(lp3358
g57
(g58
g59
NtRp3359
(dp3360
g62
(dp3361
g70
I3
ssg71
g3355
sg64
(lp3362
S''
asbasbasbag57
(g73
g59
NtRp3363
(dp3364
g62
(dp3365
sg71
g3339
sg64
(lp3366
g57
(g78
g59
NtRp3367
(dp3368
g62
(dp3369
g82
g83
ssg71
g3363
sg64
(lp3370
g328
asbag57
(g78
g59
NtRp3371
(dp3372
g62
(dp3373
g89
g90
ssg71
g3363
sg64
(lp3374
S':'
asbag57
(g78
g59
NtRp3375
(dp3376
g62
(dp3377
sg71
g3363
sg64
(lp3378
g57
(g58
g59
NtRp3379
(dp3380
g62
(dp3381
g70
I3
ssg71
g3375
sg64
(lp3382
S''
asbasbasbag57
(g73
g59
NtRp3383
(dp3384
g62
(dp3385
sg71
g3339
sg64
(lp3386
g57
(g78
g59
NtRp3387
(dp3388
g62
(dp3389
g82
g83
ssg71
g3383
sg64
(lp3390
g349
asbag57
(g78
g59
NtRp3391
(dp3392
g62
(dp3393
g89
g90
ssg71
g3383
sg64
(lp3394
S':'
asbag57
(g78
g59
NtRp3395
(dp3396
g62
(dp3397
sg71
g3383
sg64
(lp3398
g57
(g58
g59
NtRp3399
(dp3400
g62
(dp3401
g70
I3
ssg71
g3395
sg64
(lp3402
S''
asbasbasbag57
(g73
g59
NtRp3403
(dp3404
g62
(dp3405
sg71
g3339
sg64
(lp3406
g57
(g78
g59
NtRp3407
(dp3408
g62
(dp3409
g82
g83
ssg71
g3403
sg64
(lp3410
g370
asbag57
(g78
g59
NtRp3411
(dp3412
g62
(dp3413
g89
g90
ssg71
g3403
sg64
(lp3414
S':'
asbag57
(g78
g59
NtRp3415
(dp3416
g62
(dp3417
sg71
g3403
sg64
(lp3418
g57
(g58
g59
NtRp3419
(dp3420
g62
(dp3421
g70
I3
ssg71
g3415
sg64
(lp3422
S''
asbasbasbag57
(g73
g59
NtRp3423
(dp3424
g62
(dp3425
sg71
g3339
sg64
(lp3426
g57
(g78
g59
NtRp3427
(dp3428
g62
(dp3429
g82
g83
ssg71
g3423
sg64
(lp3430
g391
asbag57
(g78
g59
NtRp3431
(dp3432
g62
(dp3433
g89
g90
ssg71
g3423
sg64
(lp3434
S':'
asbag57
(g78
g59
NtRp3435
(dp3436
g62
(dp3437
sg71
g3423
sg64
(lp3438
g57
(g58
g59
NtRp3439
(dp3440
g62
(dp3441
g70
I3
ssg71
g3435
sg64
(lp3442
S''
asbasbasbag57
(g73
g59
NtRp3443
(dp3444
g62
(dp3445
sg71
g3339
sg64
(lp3446
g57
(g78
g59
NtRp3447
(dp3448
g62
(dp3449
g82
g83
ssg71
g3443
sg64
(lp3450
g412
asbag57
(g78
g59
NtRp3451
(dp3452
g62
(dp3453
g89
g90
ssg71
g3443
sg64
(lp3454
S':'
asbag57
(g78
g59
NtRp3455
(dp3456
g62
(dp3457
sg71
g3443
sg64
(lp3458
g57
(g58
g59
NtRp3459
(dp3460
g62
(dp3461
g70
I3
ssg71
g3455
sg64
(lp3462
S'/'
asbasbasbag57
(g73
g59
NtRp3463
(dp3464
g62
(dp3465
sg71
g3339
sg64
(lp3466
g57
(g78
g59
NtRp3467
(dp3468
g62
(dp3469
g82
g83
ssg71
g3463
sg64
(lp3470
g433
asbag57
(g78
g59
NtRp3471
(dp3472
g62
(dp3473
g89
g90
ssg71
g3463
sg64
(lp3474
S':'
asbag57
(g78
g59
NtRp3475
(dp3476
g62
(dp3477
sg71
g3463
sg64
(lp3478
g57
(g58
g59
NtRp3479
(dp3480
g62
(dp3481
g70
I3
ssg71
g3475
sg64
(lp3482
S''
asbasbasbag57
(g73
g59
NtRp3483
(dp3484
g62
(dp3485
sg71
g3339
sg64
(lp3486
g57
(g78
g59
NtRp3487
(dp3488
g62
(dp3489
g82
g83
ssg71
g3483
sg64
(lp3490
g454
asbag57
(g78
g59
NtRp3491
(dp3492
g62
(dp3493
g89
g90
ssg71
g3483
sg64
(lp3494
S':'
asbag57
(g78
g59
NtRp3495
(dp3496
g62
(dp3497
sg71
g3483
sg64
(lp3498
g57
(g58
g59
NtRp3499
(dp3500
g62
(dp3501
g70
I3
ssg71
g3495
sg64
(lp3502
S''
asbasbasbasbasbasbasbasbasbasbasbag57
(g73
g59
NtRp3503
(dp3504
g62
(dp3505
sg71
g3269
sg64
(lp3506
g57
(g78
g59
NtRp3507
(dp3508
g62
(dp3509
g82
g83
ssg71
g3503
sg64
(lp3510
S'delimiters'
p3511
asbag57
(g78
g59
NtRp3512
(dp3513
g62
(dp3514
g89
g90
ssg71
g3503
sg64
(lp3515
S':'
asbag57
(g78
g59
NtRp3516
(dp3517
g62
(dp3518
sg71
g3503
sg64
(lp3519
g57
(g58
g59
NtRp3520
(dp3521
g62
(dp3522
g70
I5
ssg71
g3516
sg64
(lp3523
g57
(g66
g59
NtRp3524
(dp3525
g62
(dp3526
g70
I4
ssg71
Nsg64
(lp3527
g57
(g73
g59
NtRp3528
(dp3529
g62
(dp3530
sg71
g3524
sg64
(lp3531
g57
(g78
g59
NtRp3532
(dp3533
g62
(dp3534
sg71
g3528
sg64
(lp3535
g57
(g58
g59
NtRp3536
(dp3537
g62
(dp3538
g70
I4
ssg71
g3532
sg64
(lp3539
S'{{'
p3540
asbasbasbag57
(g73
g59
NtRp3541
(dp3542
g62
(dp3543
sg71
g3524
sg64
(lp3544
g57
(g78
g59
NtRp3545
(dp3546
g62
(dp3547
sg71
g3541
sg64
(lp3548
g57
(g58
g59
NtRp3549
(dp3550
g62
(dp3551
g70
I4
ssg71
g3545
sg64
(lp3552
S'}}'
p3553
asbasbasbasbasbasbasbag57
(g73
g59
NtRp3554
(dp3555
g62
(dp3556
sg71
g3269
sg64
(lp3557
g57
(g78
g59
NtRp3558
(dp3559
g62
(dp3560
g82
g83
ssg71
g3554
sg64
(lp3561
S'files'
p3562
asbag57
(g78
g59
NtRp3563
(dp3564
g62
(dp3565
g89
g90
ssg71
g3554
sg64
(lp3566
S':'
asbag57
(g78
g59
NtRp3567
(dp3568
g62
(dp3569
sg71
g3554
sg64
(lp3570
g57
(g58
g59
NtRp3571
(dp3572
g62
(dp3573
g70
I5
ssg71
g3567
sg64
(lp3574
g57
(g66
g59
NtRp3575
(dp3576
g62
(dp3577
g70
I4
ssg71
Nsg64
(lp3578
sbasbasbasbag57
(g73
g59
NtRp3579
(dp3580
g62
(dp3581
sg71
g3269
sg64
(lp3582
g57
(g78
g59
NtRp3583
(dp3584
g62
(dp3585
g82
g83
ssg71
g3579
sg64
(lp3586
S'flash'
p3587
asbag57
(g78
g59
NtRp3588
(dp3589
g62
(dp3590
g89
g90
ssg71
g3579
sg64
(lp3591
S':'
asbag57
(g78
g59
NtRp3592
(dp3593
g62
(dp3594
sg71
g3579
sg64
(lp3595
g57
(g58
g59
NtRp3596
(dp3597
g62
(dp3598
g70
I5
ssg71
g3592
sg64
(lp3599
S''
asbasbasbag57
(g73
g59
NtRp3600
(dp3601
g62
(dp3602
sg71
g3269
sg64
(lp3603
g57
(g78
g59
NtRp3604
(dp3605
g62
(dp3606
g82
g83
ssg71
g3600
sg64
(lp3607
S'generic_patterns'
p3608
asbag57
(g78
g59
NtRp3609
(dp3610
g62
(dp3611
g89
g90
ssg71
g3600
sg64
(lp3612
S':'
asbag57
(g78
g59
NtRp3613
(dp3614
g62
(dp3615
sg71
g3600
sg64
(lp3616
g57
(g58
g59
NtRp3617
(dp3618
g62
(dp3619
g70
I5
ssg71
g3613
sg64
(lp3620
g57
(g66
g59
NtRp3621
(dp3622
g62
(dp3623
g70
I4
ssg71
Nsg64
(lp3624
g57
(g73
g59
NtRp3625
(dp3626
g62
(dp3627
sg71
g3621
sg64
(lp3628
g57
(g78
g59
NtRp3629
(dp3630
g62
(dp3631
sg71
g3625
sg64
(lp3632
g57
(g58
g59
NtRp3633
(dp3634
g62
(dp3635
g70
I4
ssg71
g3629
sg64
(lp3636
S'*'
asbasbasbasbasbasbasbag57
(g73
g59
NtRp3637
(dp3638
g62
(dp3639
sg71
g3269
sg64
(lp3640
g57
(g78
g59
NtRp3641
(dp3642
g62
(dp3643
g82
g83
ssg71
g3637
sg64
(lp3644
S'google_analytics_id'
p3645
asbag57
(g78
g59
NtRp3646
(dp3647
g62
(dp3648
g89
g90
ssg71
g3637
sg64
(lp3649
S':'
asbag57
(g78
g59
NtRp3650
(dp3651
g62
(dp3652
sg71
g3637
sg64
(lp3653
g57
(g58
g59
NtRp3654
(dp3655
g62
(dp3656
g70
I5
ssg71
g3650
sg64
(lp3657
S'None'
p3658
asbasbasbag57
(g73
g59
NtRp3659
(dp3660
g62
(dp3661
sg71
g3269
sg64
(lp3662
g57
(g78
g59
NtRp3663
(dp3664
g62
(dp3665
g82
g83
ssg71
g3659
sg64
(lp3666
S'headers'
p3667
asbag57
(g78
g59
NtRp3668
(dp3669
g62
(dp3670
g89
g90
ssg71
g3659
sg64
(lp3671
S':'
asbag57
(g78
g59
NtRp3672
(dp3673
g62
(dp3674
sg71
g3659
sg64
(lp3675
g57
(g58
g59
NtRp3676
(dp3677
g62
(dp3678
g70
I5
ssg71
g3672
sg64
(lp3679
g57
(g66
g59
NtRp3680
(dp3681
g62
(dp3682
g70
I4
ssg71
Nsg64
(lp3683
g57
(g73
g59
NtRp3684
(dp3685
g62
(dp3686
sg71
g3680
sg64
(lp3687
g57
(g78
g59
NtRp3688
(dp3689
g62
(dp3690
g82
g83
ssg71
g3684
sg64
(lp3691
S'X-Powered-By'
p3692
asbag57
(g78
g59
NtRp3693
(dp3694
g62
(dp3695
g89
g90
ssg71
g3684
sg64
(lp3696
S':'
asbag57
(g78
g59
NtRp3697
(dp3698
g62
(dp3699
sg71
g3684
sg64
(lp3700
g57
(g58
g59
NtRp3701
(dp3702
g62
(dp3703
g70
I4
ssg71
g3697
sg64
(lp3704
S'web2py'
p3705
asbasbasbasbasbasbasbag57
(g73
g59
NtRp3706
(dp3707
g62
(dp3708
sg71
g3269
sg64
(lp3709
g57
(g78
g59
NtRp3710
(dp3711
g62
(dp3712
g82
g83
ssg71
g3706
sg64
(lp3713
S'logo'
p3714
asbag57
(g78
g59
NtRp3715
(dp3716
g62
(dp3717
g89
g90
ssg71
g3706
sg64
(lp3718
S':'
asbag57
(g78
g59
NtRp3719
(dp3720
g62
(dp3721
sg71
g3706
sg64
(lp3722
g57
(g58
g59
NtRp3723
(dp3724
g62
(dp3725
g70
I5
ssg71
g3719
sg64
(lp3726
g57
(cgluon.html
A
p3727
g59
NtRp3728
(dp3729
g62
(dp3730
S'_class'
p3731
S'brand'
p3732
sS'_href'
p3733
S'http://www.web2py.com/'
p3734
ssg71
Nsg64
(lp3735
g57
(cgluon.html
B
p3736
g59
NtRp3737
(dp3738
g62
(dp3739
sg71
g3728
sg64
(lp3740
S'web'
p3741
ag57
(cgluon.html
SPAN
p3742
g59
NtRp3743
(dp3744
g62
(dp3745
sg71
g3737
sg64
(lp3746
I2
asbaS'py'
p3747
asbacgluon.html
XML_unpickle
p3748
(S's\r\x00\x00\x00&trade;&nbsp;'
tRp3749
asbasbasbasbag57
(g73
g59
NtRp3750
(dp3751
g62
(dp3752
sg71
g3269
sg64
(lp3753
g57
(g78
g59
NtRp3754
(dp3755
g62
(dp3756
g82
g83
ssg71
g3750
sg64
(lp3757
S'menu'
p3758
asbag57
(g78
g59
NtRp3759
(dp3760
g62
(dp3761
g89
g90
ssg71
g3750
sg64
(lp3762
S':'
asbag57
(g78
g59
NtRp3763
(dp3764
g62
(dp3765
sg71
g3750
sg64
(lp3766
g57
(g58
g59
NtRp3767
(dp3768
g62
(dp3769
g70
I5
ssg71
g3763
sg64
(lp3770
g57
(g66
g59
NtRp3771
(dp3772
g62
(dp3773
g70
I4
ssg71
Nsg64
(lp3774
g57
(g73
g59
NtRp3775
(dp3776
g62
(dp3777
sg71
g3771
sg64
(lp3778
g57
(g78
g59
NtRp3779
(dp3780
g62
(dp3781
sg71
g3775
sg64
(lp3782
g57
(g58
g59
NtRp3783
(dp3784
g62
(dp3785
g70
I4
ssg71
g3779
sg64
(lp3786
g57
(g66
g59
NtRp3787
(dp3788
g62
(dp3789
g70
I3
ssg71
Nsg64
(lp3790
g57
(g73
g59
NtRp3791
(dp3792
g62
(dp3793
sg71
g3787
sg64
(lp3794
g57
(g78
g59
NtRp3795
(dp3796
g62
(dp3797
sg71
g3791
sg64
(lp3798
g57
(g58
g59
NtRp3799
(dp3800
g62
(dp3801
g70
I3
ssg71
g3795
sg64
(lp3802
cgluon.languages
lazyT_unpickle
p3803
(S's\x04\x00\x00\x00Home'
tRp3804
asbasbasbag57
(g73
g59
NtRp3805
(dp3806
g62
(dp3807
sg71
g3787
sg64
(lp3808
g57
(g78
g59
NtRp3809
(dp3810
g62
(dp3811
sg71
g3805
sg64
(lp3812
g57
(g58
g59
NtRp3813
(dp3814
g62
(dp3815
g70
I3
ssg71
g3809
sg64
(lp3816
g100
asbasbasbag57
(g73
g59
NtRp3817
(dp3818
g62
(dp3819
sg71
g3787
sg64
(lp3820
g57
(g78
g59
NtRp3821
(dp3822
g62
(dp3823
sg71
g3817
sg64
(lp3824
g57
(g58
g59
NtRp3825
(dp3826
g62
(dp3827
g70
I3
ssg71
g3821
sg64
(lp3828
S'/welcome/default/index'
p3829
asbasbasbag57
(g73
g59
NtRp3830
(dp3831
g62
(dp3832
sg71
g3787
sg64
(lp3833
g57
(g78
g59
NtRp3834
(dp3835
g62
(dp3836
sg71
g3830
sg64
(lp3837
g57
(g58
g59
NtRp3838
(dp3839
g62
(dp3840
g70
I3
ssg71
g3834
sg64
(lp3841
g57
(g66
g59
NtRp3842
(dp3843
g62
(dp3844
g70
I2
ssg71
Nsg64
(lp3845
sbasbasbasbasbasbasbasbag57
(g73
g59
NtRp3846
(dp3847
g62
(dp3848
sg71
g3771
sg64
(lp3849
g57
(g78
g59
NtRp3850
(dp3851
g62
(dp3852
sg71
g3846
sg64
(lp3853
g57
(g58
g59
NtRp3854
(dp3855
g62
(dp3856
g70
I4
ssg71
g3850
sg64
(lp3857
g57
(g66
g59
NtRp3858
(dp3859
g62
(dp3860
g70
I3
ssg71
Nsg64
(lp3861
g57
(g73
g59
NtRp3862
(dp3863
g62
(dp3864
sg71
g3858
sg64
(lp3865
g57
(g78
g59
NtRp3866
(dp3867
g62
(dp3868
sg71
g3862
sg64
(lp3869
g57
(g58
g59
NtRp3870
(dp3871
g62
(dp3872
g70
I3
ssg71
g3866
sg64
(lp3873
g57
(g3742
g59
NtRp3874
(dp3875
g62
(dp3876
g3731
S'highlighted'
p3877
ssg71
Nsg64
(lp3878
g3705
asbasbasbasbag57
(g73
g59
NtRp3879
(dp3880
g62
(dp3881
sg71
g3858
sg64
(lp3882
g57
(g78
g59
NtRp3883
(dp3884
g62
(dp3885
sg71
g3879
sg64
(lp3886
g57
(g58
g59
NtRp3887
(dp3888
g62
(dp3889
g70
I3
ssg71
g3883
sg64
(lp3890
g100
asbasbasbag57
(g73
g59
NtRp3891
(dp3892
g62
(dp3893
sg71
g3858
sg64
(lp3894
g57
(g78
g59
NtRp3895
(dp3896
g62
(dp3897
sg71
g3891
sg64
(lp3898
g57
(g58
g59
NtRp3899
(dp3900
g62
(dp3901
g70
I3
ssg71
g3895
sg64
(lp3902
S'http://web2py.com'
p3903
asbasbasbag57
(g73
g59
NtRp3904
(dp3905
g62
(dp3906
sg71
g3858
sg64
(lp3907
g57
(g78
g59
NtRp3908
(dp3909
g62
(dp3910
sg71
g3904
sg64
(lp3911
g57
(g58
g59
NtRp3912
(dp3913
g62
(dp3914
g70
I3
ssg71
g3908
sg64
(lp3915
g57
(g66
g59
NtRp3916
(dp3917
g62
(dp3918
g70
I2
ssg71
Nsg64
(lp3919
g57
(g73
g59
NtRp3920
(dp3921
g62
(dp3922
sg71
g3916
sg64
(lp3923
g57
(g78
g59
NtRp3924
(dp3925
g62
(dp3926
sg71
g3920
sg64
(lp3927
g57
(g58
g59
NtRp3928
(dp3929
g62
(dp3930
g70
I2
ssg71
g3924
sg64
(lp3931
g57
(g66
g59
NtRp3932
(dp3933
g62
(dp3934
g70
I1
ssg71
Nsg64
(lp3935
g57
(g73
g59
NtRp3936
(dp3937
g62
(dp3938
sg71
g3932
sg64
(lp3939
g57
(g78
g59
NtRp3940
(dp3941
g62
(dp3942
sg71
g3936
sg64
(lp3943
g57
(g58
g59
NtRp3944
(dp3945
g62
(dp3946
g70
I1
ssg71
g3940
sg64
(lp3947
g3803
(S's\x08\x00\x00\x00My Sites'
tRp3948
asbasbasbag57
(g73
g59
NtRp3949
(dp3950
g62
(dp3951
sg71
g3932
sg64
(lp3952
g57
(g78
g59
NtRp3953
(dp3954
g62
(dp3955
sg71
g3949
sg64
(lp3956
g57
(g58
g59
NtRp3957
(dp3958
g62
(dp3959
g70
I1
ssg71
g3953
sg64
(lp3960
I00
asbasbasbag57
(g73
g59
NtRp3961
(dp3962
g62
(dp3963
sg71
g3932
sg64
(lp3964
g57
(g78
g59
NtRp3965
(dp3966
g62
(dp3967
sg71
g3961
sg64
(lp3968
g57
(g58
g59
NtRp3969
(dp3970
g62
(dp3971
g70
I1
ssg71
g3965
sg64
(lp3972
S'/admin/default/site'
p3973
asbasbasbasbasbasbasbag57
(g73
g59
NtRp3974
(dp3975
g62
(dp3976
sg71
g3916
sg64
(lp3977
g57
(g78
g59
NtRp3978
(dp3979
g62
(dp3980
sg71
g3974
sg64
(lp3981
g57
(g58
g59
NtRp3982
(dp3983
g62
(dp3984
g70
I2
ssg71
g3978
sg64
(lp3985
g57
(g66
g59
NtRp3986
(dp3987
g62
(dp3988
g70
I1
ssg71
Nsg64
(lp3989
g57
(g73
g59
NtRp3990
(dp3991
g62
(dp3992
sg71
g3986
sg64
(lp3993
g57
(g78
g59
NtRp3994
(dp3995
g62
(dp3996
sg71
g3990
sg64
(lp3997
g57
(g58
g59
NtRp3998
(dp3999
g62
(dp4000
g70
I1
ssg71
g3994
sg64
(lp4001
g3803
(S's\x08\x00\x00\x00This App'
tRp4002
asbasbasbag57
(g73
g59
NtRp4003
(dp4004
g62
(dp4005
sg71
g3986
sg64
(lp4006
g57
(g78
g59
NtRp4007
(dp4008
g62
(dp4009
sg71
g4003
sg64
(lp4010
g57
(g58
g59
NtRp4011
(dp4012
g62
(dp4013
g70
I1
ssg71
g4007
sg64
(lp4014
I00
asbasbasbag57
(g73
g59
NtRp4015
(dp4016
g62
(dp4017
sg71
g3986
sg64
(lp4018
g57
(g78
g59
NtRp4019
(dp4020
g62
(dp4021
sg71
g4015
sg64
(lp4022
g57
(g58
g59
NtRp4023
(dp4024
g62
(dp4025
g70
I1
ssg71
g4019
sg64
(lp4026
S'/admin/default/design/welcome'
p4027
asbasbasbag57
(g73
g59
NtRp4028
(dp4029
g62
(dp4030
sg71
g3986
sg64
(lp4031
g57
(g78
g59
NtRp4032
(dp4033
g62
(dp4034
sg71
g4028
sg64
(lp4035
g57
(g58
g59
NtRp4036
(dp4037
g62
(dp4038
g70
I1
ssg71
g4032
sg64
(lp4039
(lp4040
(g3803
(S's\n\x00\x00\x00Controller'
tRp4041
I00
S'/admin/default/edit/welcome/controllers/webrtc.py'
tp4042
a(g3803
(S's\x04\x00\x00\x00View'
tRp4043
I00
S'/admin/default/edit/welcome/views/webrtc/student.html'
tp4044
a(g3803
(S's\x06\x00\x00\x00Layout'
tRp4045
I00
S'/admin/default/edit/welcome/views/layout.html'
tp4046
a(g3803
(S's\n\x00\x00\x00Stylesheet'
tRp4047
I00
S'/admin/default/edit/welcome/static/css/web2py.css'
tp4048
a(g3803
(S's\x08\x00\x00\x00DB Model'
tRp4049
I00
S'/admin/default/edit/welcome/models/db.py'
tp4050
a(g3803
(S's\n\x00\x00\x00Menu Model'
tRp4051
I00
S'/admin/default/edit/welcome/models/menu.py'
tp4052
a(g3803
(S's\x08\x00\x00\x00Database'
tRp4053
I00
S'/welcome/appadmin/index'
tp4054
a(g3803
(S's\x06\x00\x00\x00Errors'
tRp4055
I00
S'/admin/default/errors/welcome'
tp4056
a(g3803
(S's\x05\x00\x00\x00About'
tRp4057
I00
S'/admin/default/about/welcome'
tp4058
aasbasbasbasbasbasbasbag57
(g73
g59
NtRp4059
(dp4060
g62
(dp4061
sg71
g3916
sg64
(lp4062
g57
(g78
g59
NtRp4063
(dp4064
g62
(dp4065
sg71
g4059
sg64
(lp4066
g57
(g58
g59
NtRp4067
(dp4068
g62
(dp4069
g70
I2
ssg71
g4063
sg64
(lp4070
g57
(g66
g59
NtRp4071
(dp4072
g62
(dp4073
g70
I1
ssg71
Nsg64
(lp4074
g57
(g73
g59
NtRp4075
(dp4076
g62
(dp4077
sg71
g4071
sg64
(lp4078
g57
(g78
g59
NtRp4079
(dp4080
g62
(dp4081
sg71
g4075
sg64
(lp4082
g57
(g58
g59
NtRp4083
(dp4084
g62
(dp4085
g70
I1
ssg71
g4079
sg64
(lp4086
S'web2py.com'
p4087
asbasbasbag57
(g73
g59
NtRp4088
(dp4089
g62
(dp4090
sg71
g4071
sg64
(lp4091
g57
(g78
g59
NtRp4092
(dp4093
g62
(dp4094
sg71
g4088
sg64
(lp4095
g57
(g58
g59
NtRp4096
(dp4097
g62
(dp4098
g70
I1
ssg71
g4092
sg64
(lp4099
I00
asbasbasbag57
(g73
g59
NtRp4100
(dp4101
g62
(dp4102
sg71
g4071
sg64
(lp4103
g57
(g78
g59
NtRp4104
(dp4105
g62
(dp4106
sg71
g4100
sg64
(lp4107
g57
(g58
g59
NtRp4108
(dp4109
g62
(dp4110
g70
I1
ssg71
g4104
sg64
(lp4111
S'http://www.web2py.com'
p4112
asbasbasbag57
(g73
g59
NtRp4113
(dp4114
g62
(dp4115
sg71
g4071
sg64
(lp4116
g57
(g78
g59
NtRp4117
(dp4118
g62
(dp4119
sg71
g4113
sg64
(lp4120
g57
(g58
g59
NtRp4121
(dp4122
g62
(dp4123
g70
I1
ssg71
g4117
sg64
(lp4124
(lp4125
(g3803
(S's\x08\x00\x00\x00Download'
tRp4126
I00
S'http://www.web2py.com/examples/default/download'
p4127
tp4128
a(g3803
(S's\x07\x00\x00\x00Support'
tRp4129
I00
S'http://www.web2py.com/examples/default/support'
p4130
tp4131
a(g3803
(S's\x04\x00\x00\x00Demo'
tRp4132
I00
S'http://web2py.com/demo_admin'
p4133
tp4134
a(g3803
(S's\x0e\x00\x00\x00Quick Examples'
tRp4135
I00
S'http://web2py.com/examples/default/examples'
p4136
tp4137
a(g3803
(S's\x03\x00\x00\x00FAQ'
tRp4138
I00
S'http://web2py.com/AlterEgo'
p4139
tp4140
a(g3803
(S's\x06\x00\x00\x00Videos'
tRp4141
I00
S'http://www.web2py.com/examples/default/videos/'
p4142
tp4143
a(g3803
(S's\x11\x00\x00\x00Free Applications'
tRp4144
I00
S'http://web2py.com/appliances'
p4145
tp4146
a(g3803
(S's\x07\x00\x00\x00Plugins'
tRp4147
I00
S'http://web2py.com/plugins'
p4148
tp4149
a(g3803
(S's\x07\x00\x00\x00Layouts'
tRp4150
I00
S'http://web2py.com/layouts'
p4151
tp4152
a(g3803
(S's\x07\x00\x00\x00Recipes'
tRp4153
I00
S'http://web2pyslices.com/'
p4154
tp4155
a(g3803
(S's\x08\x00\x00\x00Semantic'
tRp4156
I00
S'http://web2py.com/semantic'
p4157
tp4158
aasbasbasbasbasbasbasbag57
(g73
g59
NtRp4159
(dp4160
g62
(dp4161
sg71
g3916
sg64
(lp4162
g57
(g78
g59
NtRp4163
(dp4164
g62
(dp4165
sg71
g4159
sg64
(lp4166
g57
(g58
g59
NtRp4167
(dp4168
g62
(dp4169
g70
I2
ssg71
g4163
sg64
(lp4170
g57
(g66
g59
NtRp4171
(dp4172
g62
(dp4173
g70
I1
ssg71
Nsg64
(lp4174
g57
(g73
g59
NtRp4175
(dp4176
g62
(dp4177
sg71
g4171
sg64
(lp4178
g57
(g78
g59
NtRp4179
(dp4180
g62
(dp4181
sg71
g4175
sg64
(lp4182
g57
(g58
g59
NtRp4183
(dp4184
g62
(dp4185
g70
I1
ssg71
g4179
sg64
(lp4186
g3803
(S's\r\x00\x00\x00Documentation'
tRp4187
asbasbasbag57
(g73
g59
NtRp4188
(dp4189
g62
(dp4190
sg71
g4171
sg64
(lp4191
g57
(g78
g59
NtRp4192
(dp4193
g62
(dp4194
sg71
g4188
sg64
(lp4195
g57
(g58
g59
NtRp4196
(dp4197
g62
(dp4198
g70
I1
ssg71
g4192
sg64
(lp4199
I00
asbasbasbag57
(g73
g59
NtRp4200
(dp4201
g62
(dp4202
sg71
g4171
sg64
(lp4203
g57
(g78
g59
NtRp4204
(dp4205
g62
(dp4206
sg71
g4200
sg64
(lp4207
g57
(g58
g59
NtRp4208
(dp4209
g62
(dp4210
g70
I1
ssg71
g4204
sg64
(lp4211
S'http://www.web2py.com/book'
p4212
asbasbasbag57
(g73
g59
NtRp4213
(dp4214
g62
(dp4215
sg71
g4171
sg64
(lp4216
g57
(g78
g59
NtRp4217
(dp4218
g62
(dp4219
sg71
g4213
sg64
(lp4220
g57
(g58
g59
NtRp4221
(dp4222
g62
(dp4223
g70
I1
ssg71
g4217
sg64
(lp4224
(lp4225
(g3803
(S's\x07\x00\x00\x00Preface'
tRp4226
I00
S'http://www.web2py.com/book/default/chapter/00'
p4227
tp4228
a(g3803
(S's\x0c\x00\x00\x00Introduction'
tRp4229
I00
S'http://www.web2py.com/book/default/chapter/01'
p4230
tp4231
a(g3803
(S's\x06\x00\x00\x00Python'
tRp4232
I00
S'http://www.web2py.com/book/default/chapter/02'
p4233
tp4234
a(g3803
(S's\x08\x00\x00\x00Overview'
tRp4235
I00
S'http://www.web2py.com/book/default/chapter/03'
p4236
tp4237
a(g3803
(S's\x08\x00\x00\x00The Core'
tRp4238
I00
S'http://www.web2py.com/book/default/chapter/04'
p4239
tp4240
a(g3803
(S's\t\x00\x00\x00The Views'
tRp4241
I00
S'http://www.web2py.com/book/default/chapter/05'
p4242
tp4243
a(g3803
(S's\x08\x00\x00\x00Database'
tRp4244
I00
S'http://www.web2py.com/book/default/chapter/06'
p4245
tp4246
a(g3803
(S's\x14\x00\x00\x00Forms and Validators'
tRp4247
I00
S'http://www.web2py.com/book/default/chapter/07'
p4248
tp4249
a(g3803
(S's\r\x00\x00\x00Email and SMS'
tRp4250
I00
S'http://www.web2py.com/book/default/chapter/08'
p4251
tp4252
a(g3803
(S's\x0e\x00\x00\x00Access Control'
tRp4253
I00
S'http://www.web2py.com/book/default/chapter/09'
p4254
tp4255
a(g3803
(S's\x08\x00\x00\x00Services'
tRp4256
I00
S'http://www.web2py.com/book/default/chapter/10'
p4257
tp4258
a(g3803
(S's\x0c\x00\x00\x00Ajax Recipes'
tRp4259
I00
S'http://www.web2py.com/book/default/chapter/11'
p4260
tp4261
a(g3803
(S's\x16\x00\x00\x00Components and Plugins'
tRp4262
I00
S'http://www.web2py.com/book/default/chapter/12'
p4263
tp4264
a(g3803
(S's\x12\x00\x00\x00Deployment Recipes'
tRp4265
I00
S'http://www.web2py.com/book/default/chapter/13'
p4266
tp4267
a(g3803
(S's\r\x00\x00\x00Other Recipes'
tRp4268
I00
S'http://www.web2py.com/book/default/chapter/14'
p4269
tp4270
a(g3803
(S's\r\x00\x00\x00Buy this book'
tRp4271
I00
S'http://stores.lulu.com/web2py'
p4272
tp4273
aasbasbasbasbasbasbasbag57
(g73
g59
NtRp4274
(dp4275
g62
(dp4276
sg71
g3916
sg64
(lp4277
g57
(g78
g59
NtRp4278
(dp4279
g62
(dp4280
sg71
g4274
sg64
(lp4281
g57
(g58
g59
NtRp4282
(dp4283
g62
(dp4284
g70
I2
ssg71
g4278
sg64
(lp4285
g57
(g66
g59
NtRp4286
(dp4287
g62
(dp4288
g70
I1
ssg71
Nsg64
(lp4289
g57
(g73
g59
NtRp4290
(dp4291
g62
(dp4292
sg71
g4286
sg64
(lp4293
g57
(g78
g59
NtRp4294
(dp4295
g62
(dp4296
sg71
g4290
sg64
(lp4297
g57
(g58
g59
NtRp4298
(dp4299
g62
(dp4300
g70
I1
ssg71
g4294
sg64
(lp4301
g3803
(S's\t\x00\x00\x00Community'
tRp4302
asbasbasbag57
(g73
g59
NtRp4303
(dp4304
g62
(dp4305
sg71
g4286
sg64
(lp4306
g57
(g78
g59
NtRp4307
(dp4308
g62
(dp4309
sg71
g4303
sg64
(lp4310
g57
(g58
g59
NtRp4311
(dp4312
g62
(dp4313
g70
I1
ssg71
g4307
sg64
(lp4314
I00
asbasbasbag57
(g73
g59
NtRp4315
(dp4316
g62
(dp4317
sg71
g4286
sg64
(lp4318
g57
(g78
g59
NtRp4319
(dp4320
g62
(dp4321
sg71
g4315
sg64
(lp4322
g57
(g58
g59
NtRp4323
(dp4324
g62
(dp4325
g70
I1
ssg71
g4319
sg64
(lp4326
Nasbasbasbag57
(g73
g59
NtRp4327
(dp4328
g62
(dp4329
sg71
g4286
sg64
(lp4330
g57
(g78
g59
NtRp4331
(dp4332
g62
(dp4333
sg71
g4327
sg64
(lp4334
g57
(g58
g59
NtRp4335
(dp4336
g62
(dp4337
g70
I1
ssg71
g4331
sg64
(lp4338
(lp4339
(g3803
(S's\x06\x00\x00\x00Groups'
tRp4340
I00
S'http://www.web2py.com/examples/default/usergroups'
p4341
tp4342
a(g3803
(S's\x07\x00\x00\x00Twitter'
tRp4343
I00
S'http://twitter.com/web2py'
p4344
tp4345
a(g3803
(S's\t\x00\x00\x00Live Chat'
tRp4346
I00
S'http://webchat.freenode.net/?channels=web2py'
p4347
tp4348
aasbasbasbasbasbasbasbag57
(g73
g59
NtRp4349
(dp4350
g62
(dp4351
sg71
g3916
sg64
(lp4352
g57
(g78
g59
NtRp4353
(dp4354
g62
(dp4355
sg71
g4349
sg64
(lp4356
g57
(g58
g59
NtRp4357
(dp4358
g62
(dp4359
g70
I2
ssg71
g4353
sg64
(lp4360
g57
(g66
g59
NtRp4361
(dp4362
g62
(dp4363
g70
I1
ssg71
Nsg64
(lp4364
g57
(g73
g59
NtRp4365
(dp4366
g62
(dp4367
sg71
g4361
sg64
(lp4368
g57
(g78
g59
NtRp4369
(dp4370
g62
(dp4371
sg71
g4365
sg64
(lp4372
g57
(g58
g59
NtRp4373
(dp4374
g62
(dp4375
g70
I1
ssg71
g4369
sg64
(lp4376
g3803
(S's\x07\x00\x00\x00Plugins'
tRp4377
asbasbasbag57
(g73
g59
NtRp4378
(dp4379
g62
(dp4380
sg71
g4361
sg64
(lp4381
g57
(g78
g59
NtRp4382
(dp4383
g62
(dp4384
sg71
g4378
sg64
(lp4385
g57
(g58
g59
NtRp4386
(dp4387
g62
(dp4388
g70
I1
ssg71
g4382
sg64
(lp4389
I00
asbasbasbag57
(g73
g59
NtRp4390
(dp4391
g62
(dp4392
sg71
g4361
sg64
(lp4393
g57
(g78
g59
NtRp4394
(dp4395
g62
(dp4396
sg71
g4390
sg64
(lp4397
g57
(g58
g59
NtRp4398
(dp4399
g62
(dp4400
g70
I1
ssg71
g4394
sg64
(lp4401
Nasbasbasbag57
(g73
g59
NtRp4402
(dp4403
g62
(dp4404
sg71
g4361
sg64
(lp4405
g57
(g78
g59
NtRp4406
(dp4407
g62
(dp4408
sg71
g4402
sg64
(lp4409
g57
(g58
g59
NtRp4410
(dp4411
g62
(dp4412
g70
I1
ssg71
g4406
sg64
(lp4413
(lp4414
(S'plugin_wiki'
p4415
I00
S'http://web2py.com/examples/default/download'
p4416
tp4417
a(g3803
(S's\r\x00\x00\x00Other Plugins'
tRp4418
I00
g4148
tp4419
a(g3803
(S's\x0e\x00\x00\x00Layout Plugins'
tRp4420
I00
g4151
tp4421
aasbasbasbasbasbasbasbasbasbasbasbasbasbasbasbasbasbasbasbag57
(g73
g59
NtRp4422
(dp4423
g62
(dp4424
sg71
g3269
sg64
(lp4425
g57
(g78
g59
NtRp4426
(dp4427
g62
(dp4428
g82
g83
ssg71
g4422
sg64
(lp4429
S'meta'
p4430
asbag57
(g78
g59
NtRp4431
(dp4432
g62
(dp4433
g89
g90
ssg71
g4422
sg64
(lp4434
S':'
asbag57
(g78
g59
NtRp4435
(dp4436
g62
(dp4437
sg71
g4422
sg64
(lp4438
g57
(g58
g59
NtRp4439
(dp4440
g62
(dp4441
g70
I5
ssg71
g4435
sg64
(lp4442
g57
(g66
g59
NtRp4443
(dp4444
g62
(dp4445
g70
I4
ssg71
Nsg64
(lp4446
g57
(g73
g59
NtRp4447
(dp4448
g62
(dp4449
sg71
g4443
sg64
(lp4450
g57
(g78
g59
NtRp4451
(dp4452
g62
(dp4453
g82
g83
ssg71
g4447
sg64
(lp4454
S'author'
p4455
asbag57
(g78
g59
NtRp4456
(dp4457
g62
(dp4458
g89
g90
ssg71
g4447
sg64
(lp4459
S':'
asbag57
(g78
g59
NtRp4460
(dp4461
g62
(dp4462
sg71
g4447
sg64
(lp4463
g57
(g58
g59
NtRp4464
(dp4465
g62
(dp4466
g70
I4
ssg71
g4460
sg64
(lp4467
S'Your Name <you@example.com>'
p4468
asbasbasbag57
(g73
g59
NtRp4469
(dp4470
g62
(dp4471
sg71
g4443
sg64
(lp4472
g57
(g78
g59
NtRp4473
(dp4474
g62
(dp4475
g82
g83
ssg71
g4469
sg64
(lp4476
S'description'
p4477
asbag57
(g78
g59
NtRp4478
(dp4479
g62
(dp4480
g89
g90
ssg71
g4469
sg64
(lp4481
S':'
asbag57
(g78
g59
NtRp4482
(dp4483
g62
(dp4484
sg71
g4469
sg64
(lp4485
g57
(g58
g59
NtRp4486
(dp4487
g62
(dp4488
g70
I4
ssg71
g4482
sg64
(lp4489
S'a cool new app'
p4490
asbasbasbag57
(g73
g59
NtRp4491
(dp4492
g62
(dp4493
sg71
g4443
sg64
(lp4494
g57
(g78
g59
NtRp4495
(dp4496
g62
(dp4497
g82
g83
ssg71
g4491
sg64
(lp4498
S'generator'
p4499
asbag57
(g78
g59
NtRp4500
(dp4501
g62
(dp4502
g89
g90
ssg71
g4491
sg64
(lp4503
S':'
asbag57
(g78
g59
NtRp4504
(dp4505
g62
(dp4506
sg71
g4491
sg64
(lp4507
g57
(g58
g59
NtRp4508
(dp4509
g62
(dp4510
g70
I4
ssg71
g4504
sg64
(lp4511
S'Web2py Web Framework'
p4512
asbasbasbag57
(g73
g59
NtRp4513
(dp4514
g62
(dp4515
sg71
g4443
sg64
(lp4516
g57
(g78
g59
NtRp4517
(dp4518
g62
(dp4519
g82
g83
ssg71
g4513
sg64
(lp4520
S'keywords'
p4521
asbag57
(g78
g59
NtRp4522
(dp4523
g62
(dp4524
g89
g90
ssg71
g4513
sg64
(lp4525
S':'
asbag57
(g78
g59
NtRp4526
(dp4527
g62
(dp4528
sg71
g4513
sg64
(lp4529
g57
(g58
g59
NtRp4530
(dp4531
g62
(dp4532
g70
I4
ssg71
g4526
sg64
(lp4533
S'web2py, python, framework'
p4534
asbasbasbasbasbasbasbag57
(g73
g59
NtRp4535
(dp4536
g62
(dp4537
sg71
g3269
sg64
(lp4538
g57
(g78
g59
NtRp4539
(dp4540
g62
(dp4541
g82
g83
ssg71
g4535
sg64
(lp4542
S'models_to_run'
p4543
asbag57
(g78
g59
NtRp4544
(dp4545
g62
(dp4546
g89
g90
ssg71
g4535
sg64
(lp4547
S':'
asbag57
(g78
g59
NtRp4548
(dp4549
g62
(dp4550
sg71
g4535
sg64
(lp4551
g57
(g58
g59
NtRp4552
(dp4553
g62
(dp4554
g70
I5
ssg71
g4548
sg64
(lp4555
g57
(g66
g59
NtRp4556
(dp4557
g62
(dp4558
g70
I4
ssg71
Nsg64
(lp4559
g57
(g73
g59
NtRp4560
(dp4561
g62
(dp4562
sg71
g4556
sg64
(lp4563
g57
(g78
g59
NtRp4564
(dp4565
g62
(dp4566
sg71
g4560
sg64
(lp4567
g57
(g58
g59
NtRp4568
(dp4569
g62
(dp4570
g70
I4
ssg71
g4564
sg64
(lp4571
S'^\\w+\\.py$'
p4572
asbasbasbag57
(g73
g59
NtRp4573
(dp4574
g62
(dp4575
sg71
g4556
sg64
(lp4576
g57
(g78
g59
NtRp4577
(dp4578
g62
(dp4579
sg71
g4573
sg64
(lp4580
g57
(g58
g59
NtRp4581
(dp4582
g62
(dp4583
g70
I4
ssg71
g4577
sg64
(lp4584
S'^webrtc/\\w+\\.py$'
p4585
asbasbasbag57
(g73
g59
NtRp4586
(dp4587
g62
(dp4588
sg71
g4556
sg64
(lp4589
g57
(g78
g59
NtRp4590
(dp4591
g62
(dp4592
sg71
g4586
sg64
(lp4593
g57
(g58
g59
NtRp4594
(dp4595
g62
(dp4596
g70
I4
ssg71
g4590
sg64
(lp4597
S'^webrtc/student/\\w+\\.py$'
p4598
asbasbasbasbasbasbasbag57
(g73
g59
NtRp4599
(dp4600
g62
(dp4601
sg71
g3269
sg64
(lp4602
g57
(g78
g59
NtRp4603
(dp4604
g62
(dp4605
g82
g83
ssg71
g4599
sg64
(lp4606
S'postprocessing'
p4607
asbag57
(g78
g59
NtRp4608
(dp4609
g62
(dp4610
g89
g90
ssg71
g4599
sg64
(lp4611
S':'
asbag57
(g78
g59
NtRp4612
(dp4613
g62
(dp4614
sg71
g4599
sg64
(lp4615
g57
(g58
g59
NtRp4616
(dp4617
g62
(dp4618
g70
I5
ssg71
g4612
sg64
(lp4619
g57
(g66
g59
NtRp4620
(dp4621
g62
(dp4622
g70
I4
ssg71
Nsg64
(lp4623
sbasbasbasbag57
(g73
g59
NtRp4624
(dp4625
g62
(dp4626
sg71
g3269
sg64
(lp4627
g57
(g78
g59
NtRp4628
(dp4629
g62
(dp4630
g82
g83
ssg71
g4624
sg64
(lp4631
S'session_cookie_expires'
p4632
asbag57
(g78
g59
NtRp4633
(dp4634
g62
(dp4635
g89
g90
ssg71
g4624
sg64
(lp4636
S':'
asbag57
(g78
g59
NtRp4637
(dp4638
g62
(dp4639
sg71
g4624
sg64
(lp4640
g57
(g58
g59
NtRp4641
(dp4642
g62
(dp4643
g70
I5
ssg71
g4637
sg64
(lp4644
S'None'
p4645
asbasbasbag57
(g73
g59
NtRp4646
(dp4647
g62
(dp4648
sg71
g3269
sg64
(lp4649
g57
(g78
g59
NtRp4650
(dp4651
g62
(dp4652
g82
g83
ssg71
g4646
sg64
(lp4653
S'session_data_name'
p4654
asbag57
(g78
g59
NtRp4655
(dp4656
g62
(dp4657
g89
g90
ssg71
g4646
sg64
(lp4658
S':'
asbag57
(g78
g59
NtRp4659
(dp4660
g62
(dp4661
sg71
g4646
sg64
(lp4662
g57
(g58
g59
NtRp4663
(dp4664
g62
(dp4665
g70
I5
ssg71
g4659
sg64
(lp4666
S'session_data_welcome'
p4667
asbasbasbag57
(g73
g59
NtRp4668
(dp4669
g62
(dp4670
sg71
g3269
sg64
(lp4671
g57
(g78
g59
NtRp4672
(dp4673
g62
(dp4674
g82
g83
ssg71
g4668
sg64
(lp4675
S'session_file'
p4676
asbag57
(g78
g59
NtRp4677
(dp4678
g62
(dp4679
g89
g90
ssg71
g4668
sg64
(lp4680
S':'
asbag57
(g78
g59
NtRp4681
(dp4682
g62
(dp4683
sg71
g4668
sg64
(lp4684
g57
(g58
g59
NtRp4685
(dp4686
g62
(dp4687
g70
I5
ssg71
g4681
sg64
(lp4688
S"<open file 'D:\\Work\\webRTC\\web2py\\applications\\welcome\\sessions\\127.0.0.1-7ff9ecdd-07e5-4ecb-bf3c-2658d2caa017', mode 'rb+' at 0x0000000009E0E300>"
p4689
asbasbasbag57
(g73
g59
NtRp4690
(dp4691
g62
(dp4692
sg71
g3269
sg64
(lp4693
g57
(g78
g59
NtRp4694
(dp4695
g62
(dp4696
g82
g83
ssg71
g4690
sg64
(lp4697
S'session_filename'
p4698
asbag57
(g78
g59
NtRp4699
(dp4700
g62
(dp4701
g89
g90
ssg71
g4690
sg64
(lp4702
S':'
asbag57
(g78
g59
NtRp4703
(dp4704
g62
(dp4705
sg71
g4690
sg64
(lp4706
g57
(g58
g59
NtRp4707
(dp4708
g62
(dp4709
g70
I5
ssg71
g4703
sg64
(lp4710
S'D:\\Work\\webRTC\\web2py\\applications\\welcome\\sessions\\127.0.0.1-7ff9ecdd-07e5-4ecb-bf3c-2658d2caa017'
p4711
asbasbasbag57
(g73
g59
NtRp4712
(dp4713
g62
(dp4714
sg71
g3269
sg64
(lp4715
g57
(g78
g59
NtRp4716
(dp4717
g62
(dp4718
g82
g83
ssg71
g4712
sg64
(lp4719
S'session_id'
p4720
asbag57
(g78
g59
NtRp4721
(dp4722
g62
(dp4723
g89
g90
ssg71
g4712
sg64
(lp4724
S':'
asbag57
(g78
g59
NtRp4725
(dp4726
g62
(dp4727
sg71
g4712
sg64
(lp4728
g57
(g58
g59
NtRp4729
(dp4730
g62
(dp4731
g70
I5
ssg71
g4725
sg64
(lp4732
g488
asbasbasbag57
(g73
g59
NtRp4733
(dp4734
g62
(dp4735
sg71
g3269
sg64
(lp4736
g57
(g78
g59
NtRp4737
(dp4738
g62
(dp4739
g82
g83
ssg71
g4733
sg64
(lp4740
S'session_id_name'
p4741
asbag57
(g78
g59
NtRp4742
(dp4743
g62
(dp4744
g89
g90
ssg71
g4733
sg64
(lp4745
S':'
asbag57
(g78
g59
NtRp4746
(dp4747
g62
(dp4748
sg71
g4733
sg64
(lp4749
g57
(g58
g59
NtRp4750
(dp4751
g62
(dp4752
g70
I5
ssg71
g4746
sg64
(lp4753
g3326
asbasbasbag57
(g73
g59
NtRp4754
(dp4755
g62
(dp4756
sg71
g3269
sg64
(lp4757
g57
(g78
g59
NtRp4758
(dp4759
g62
(dp4760
g82
g83
ssg71
g4754
sg64
(lp4761
S'session_locked'
p4762
asbag57
(g78
g59
NtRp4763
(dp4764
g62
(dp4765
g89
g90
ssg71
g4754
sg64
(lp4766
S':'
asbag57
(g78
g59
NtRp4767
(dp4768
g62
(dp4769
sg71
g4754
sg64
(lp4770
g57
(g58
g59
NtRp4771
(dp4772
g62
(dp4773
g70
I5
ssg71
g4767
sg64
(lp4774
g1635
asbasbasbag57
(g73
g59
NtRp4775
(dp4776
g62
(dp4777
sg71
g3269
sg64
(lp4778
g57
(g78
g59
NtRp4779
(dp4780
g62
(dp4781
g82
g83
ssg71
g4775
sg64
(lp4782
S'session_new'
p4783
asbag57
(g78
g59
NtRp4784
(dp4785
g62
(dp4786
g89
g90
ssg71
g4775
sg64
(lp4787
S':'
asbag57
(g78
g59
NtRp4788
(dp4789
g62
(dp4790
sg71
g4775
sg64
(lp4791
g57
(g58
g59
NtRp4792
(dp4793
g62
(dp4794
g70
I5
ssg71
g4788
sg64
(lp4795
g100
asbasbasbag57
(g73
g59
NtRp4796
(dp4797
g62
(dp4798
sg71
g3269
sg64
(lp4799
g57
(g78
g59
NtRp4800
(dp4801
g62
(dp4802
g82
g83
ssg71
g4796
sg64
(lp4803
S'session_storage_type'
p4804
asbag57
(g78
g59
NtRp4805
(dp4806
g62
(dp4807
g89
g90
ssg71
g4796
sg64
(lp4808
S':'
asbag57
(g78
g59
NtRp4809
(dp4810
g62
(dp4811
sg71
g4796
sg64
(lp4812
g57
(g58
g59
NtRp4813
(dp4814
g62
(dp4815
g70
I5
ssg71
g4809
sg64
(lp4816
g3102
asbasbasbag57
(g73
g59
NtRp4817
(dp4818
g62
(dp4819
sg71
g3269
sg64
(lp4820
g57
(g78
g59
NtRp4821
(dp4822
g62
(dp4823
g82
g83
ssg71
g4817
sg64
(lp4824
S'status'
p4825
asbag57
(g78
g59
NtRp4826
(dp4827
g62
(dp4828
g89
g90
ssg71
g4817
sg64
(lp4829
S':'
asbag57
(g78
g59
NtRp4830
(dp4831
g62
(dp4832
sg71
g4817
sg64
(lp4833
g57
(g58
g59
NtRp4834
(dp4835
g62
(dp4836
g70
I5
ssg71
g4830
sg64
(lp4837
S'200'
p4838
asbasbasbag57
(g73
g59
NtRp4839
(dp4840
g62
(dp4841
sg71
g3269
sg64
(lp4842
g57
(g78
g59
NtRp4843
(dp4844
g62
(dp4845
g82
g83
ssg71
g4839
sg64
(lp4846
S'subtitle'
p4847
asbag57
(g78
g59
NtRp4848
(dp4849
g62
(dp4850
g89
g90
ssg71
g4839
sg64
(lp4851
S':'
asbag57
(g78
g59
NtRp4852
(dp4853
g62
(dp4854
sg71
g4839
sg64
(lp4855
g57
(g58
g59
NtRp4856
(dp4857
g62
(dp4858
g70
I5
ssg71
g4852
sg64
(lp4859
g3803
(S's\r\x00\x00\x00customize me!'
tRp4860
asbasbasbag57
(g73
g59
NtRp4861
(dp4862
g62
(dp4863
sg71
g3269
sg64
(lp4864
g57
(g78
g59
NtRp4865
(dp4866
g62
(dp4867
g82
g83
ssg71
g4861
sg64
(lp4868
S'title'
p4869
asbag57
(g78
g59
NtRp4870
(dp4871
g62
(dp4872
g89
g90
ssg71
g4861
sg64
(lp4873
S':'
asbag57
(g78
g59
NtRp4874
(dp4875
g62
(dp4876
sg71
g4861
sg64
(lp4877
g57
(g58
g59
NtRp4878
(dp4879
g62
(dp4880
g70
I5
ssg71
g4874
sg64
(lp4881
S'Welcome'
p4882
asbasbasbag57
(g73
g59
NtRp4883
(dp4884
g62
(dp4885
sg71
g3269
sg64
(lp4886
g57
(g78
g59
NtRp4887
(dp4888
g62
(dp4889
g82
g83
ssg71
g4883
sg64
(lp4890
S'view'
p4891
asbag57
(g78
g59
NtRp4892
(dp4893
g62
(dp4894
g89
g90
ssg71
g4883
sg64
(lp4895
S':'
asbag57
(g78
g59
NtRp4896
(dp4897
g62
(dp4898
sg71
g4883
sg64
(lp4899
g57
(g58
g59
NtRp4900
(dp4901
g62
(dp4902
g70
I5
ssg71
g4896
sg64
(lp4903
S'webrtc/student.html'
p4904
asbasbasbasbasbsS'locals'
p4905
(dp4906
S'base64'
p4907
S"<module 'base64' from 'd:\\python27\\lib\\base64.pyc'>"
p4908
sS'random'
p4909
S"<module 'random' from 'd:\\python27\\lib\\random.pyc'>"
p4910
sS'relate_keys_db'
p4911
S'None'
p4912
sS'sha'
p4913
S"<module 'sha' from 'd:\\python27\\lib\\sha.pyc'>"
p4914
sS'key_gen'
p4915
S"'YWM5MDY2'"
p4916
sS'id'
p4917
S'207'
p4918
sssS'traceback'
p4919
S'Traceback (most recent call last):\n  File "D:\\Work\\webRTC\\web2py\\gluon\\restricted.py", line 212, in restricted\n    exec ccode in environment\n  File "D:\\Work\\webRTC\\web2py\\applications\\welcome\\controllers/webrtc.py", line 24, in <module>\n  File "D:\\Work\\webRTC\\web2py\\gluon\\globals.py", line 193, in <lambda>\n    self._caller = lambda f: f()\n  File "D:\\Work\\webRTC\\web2py\\applications\\welcome\\controllers/webrtc.py", line 15, in student\n    relate_keys = [str(item.access_token) for item in relate_keys_db]\nTypeError: \'NoneType\' object is not iterable\n'
p4920
s.