(dp1
S'output'
p2
S"<type 'exceptions.TypeError'> 'NoneType' object is not callable"
p3
sS'layer'
p4
S'D:\\Work\\webRTC\\web2py\\applications\\welcome\\controllers/webrtc.py'
p5
sS'code'
p6
S"# coding: utf8\n# try something like\nhost_name = request.env['http_host']\nhost_name = host_name[:host_name.find(':')]\ndef teacher():\n    import sha, random, base64\n    key_gen = base64.b64encode(sha.sha(str(random.random())).hexdigest())[:8]\n    db.rtc.insert(access_token = key_gen)\n    return dict(host = host_name,access_token = key_gen,class_name=request.args[0])\ndef student():\n    import sha, random, base64\n    key_gen = base64.b64encode(sha.sha(str(random.random())).hexdigest())[:8]\n    id = db.rtc.insert(access_token = key_gen)\n    relate_keys_db = db(db.rtc.id < id).select(db.rtc.access_token,limitby=(0, 2))\n    relate_keys = [str(item.access_token) for item in relate_keys_db]\n    session.flash(str(relate_keys))\n    return dict(host = host_name,access_token = key_gen,class_name=request.args[0],relate_keys= relate_keys)\ndef connect():\n   from gluon.contrib.websocket_messaging import websocket_send\n   websocket_send('http://'+host_name+':8888',request.vars.msg,'rtc',request.args[0])\ndef demo():\n    response.files.append(URL('static','js/adapter.js')) \n    return dict()\n\nresponse._vars=response._caller(student)\n"
p7
sS'snapshot'
p8
(dp9
S'exception'
p10
(dp11
S'__hash__'
p12
S"<method-wrapper '__hash__' of exceptions.TypeError object>"
p13
sS'__setattr__'
p14
S"<method-wrapper '__setattr__' of exceptions.TypeError object>"
p15
sS'__reduce_ex__'
p16
S'<built-in method __reduce_ex__ of exceptions.TypeError object>'
p17
sS'__getslice__'
p18
S"<method-wrapper '__getslice__' of exceptions.TypeError object>"
p19
sS'__getitem__'
p20
S"<method-wrapper '__getitem__' of exceptions.TypeError object>"
p21
sS'__setstate__'
p22
S'<built-in method __setstate__ of exceptions.TypeError object>'
p23
sS'__reduce__'
p24
S'<built-in method __reduce__ of exceptions.TypeError object>'
p25
sS'__str__'
p26
S"<method-wrapper '__str__' of exceptions.TypeError object>"
p27
sS'__format__'
p28
S'<built-in method __format__ of exceptions.TypeError object>'
p29
sS'__getattribute__'
p30
S"<method-wrapper '__getattribute__' of exceptions.TypeError object>"
p31
sS'__class__'
p32
S"<type 'exceptions.TypeError'>"
p33
sS'__unicode__'
p34
S'<built-in method __unicode__ of exceptions.TypeError object>'
p35
sS'__delattr__'
p36
S"<method-wrapper '__delattr__' of exceptions.TypeError object>"
p37
sS'__subclasshook__'
p38
S'<built-in method __subclasshook__ of type object>'
p39
sS'__repr__'
p40
S"<method-wrapper '__repr__' of exceptions.TypeError object>"
p41
sS'__dict__'
p42
S'{}'
p43
sS'args'
p44
S'("\'NoneType\' object is not callable",)'
p45
sS'__sizeof__'
p46
S'<built-in method __sizeof__ of exceptions.TypeError object>'
p47
sS'__doc__'
p48
S"'Inappropriate argument type.'"
p49
sS'__init__'
p50
S"<method-wrapper '__init__' of exceptions.TypeError object>"
p51
sS'__new__'
p52
S'<built-in method __new__ of type object>'
p53
ssS'evalue'
p54
S"'NoneType' object is not callable"
p55
sS'request'
p56
ccopy_reg
_reconstructor
p57
(cgluon.html
BEAUTIFY
p58
c__builtin__
object
p59
NtRp60
(dp61
S'attributes'
p62
(dp63
sS'components'
p64
(lp65
g57
(cgluon.html
TABLE
p66
g59
NtRp67
(dp68
g62
(dp69
S'level'
p70
I5
ssS'parent'
p71
Nsg64
(lp72
g57
(cgluon.html
TR
p73
g59
NtRp74
(dp75
g62
(dp76
sg71
g67
sg64
(lp77
g57
(cgluon.html
TD
p78
g59
NtRp79
(dp80
g62
(dp81
S'_style'
p82
S'font-weight:bold;vertical-align:top'
p83
ssg71
g74
sg64
(lp84
S'ajax'
p85
asbag57
(g78
g59
NtRp86
(dp87
g62
(dp88
S'_valign'
p89
S'top'
p90
ssg71
g74
sg64
(lp91
S':'
asbag57
(g78
g59
NtRp92
(dp93
g62
(dp94
sg71
g74
sg64
(lp95
g57
(g58
g59
NtRp96
(dp97
g62
(dp98
g70
I5
ssg71
g92
sg64
(lp99
S'False'
p100
asbasbasbag57
(g73
g59
NtRp101
(dp102
g62
(dp103
sg71
g67
sg64
(lp104
g57
(g78
g59
NtRp105
(dp106
g62
(dp107
g82
g83
ssg71
g101
sg64
(lp108
S'application'
p109
asbag57
(g78
g59
NtRp110
(dp111
g62
(dp112
g89
g90
ssg71
g101
sg64
(lp113
S':'
asbag57
(g78
g59
NtRp114
(dp115
g62
(dp116
sg71
g101
sg64
(lp117
g57
(g58
g59
NtRp118
(dp119
g62
(dp120
g70
I5
ssg71
g114
sg64
(lp121
S'welcome'
p122
asbasbasbag57
(g73
g59
NtRp123
(dp124
g62
(dp125
sg71
g67
sg64
(lp126
g57
(g78
g59
NtRp127
(dp128
g62
(dp129
g82
g83
ssg71
g123
sg64
(lp130
g44
asbag57
(g78
g59
NtRp131
(dp132
g62
(dp133
g89
g90
ssg71
g123
sg64
(lp134
S':'
asbag57
(g78
g59
NtRp135
(dp136
g62
(dp137
sg71
g123
sg64
(lp138
g57
(g58
g59
NtRp139
(dp140
g62
(dp141
g70
I5
ssg71
g135
sg64
(lp142
g57
(g66
g59
NtRp143
(dp144
g62
(dp145
g70
I4
ssg71
Nsg64
(lp146
g57
(g73
g59
NtRp147
(dp148
g62
(dp149
sg71
g143
sg64
(lp150
g57
(g78
g59
NtRp151
(dp152
g62
(dp153
sg71
g147
sg64
(lp154
g57
(g58
g59
NtRp155
(dp156
g62
(dp157
g70
I4
ssg71
g151
sg64
(lp158
S'se0566'
p159
asbasbasbasbasbasbasbag57
(g73
g59
NtRp160
(dp161
g62
(dp162
sg71
g67
sg64
(lp163
g57
(g78
g59
NtRp164
(dp165
g62
(dp166
g82
g83
ssg71
g160
sg64
(lp167
S'body'
p168
asbag57
(g78
g59
NtRp169
(dp170
g62
(dp171
g89
g90
ssg71
g160
sg64
(lp172
S':'
asbag57
(g78
g59
NtRp173
(dp174
g62
(dp175
sg71
g160
sg64
(lp176
g57
(g58
g59
NtRp177
(dp178
g62
(dp179
g70
I5
ssg71
g173
sg64
(lp180
S'<cStringIO.StringO object at 0x000000000372A8B8>'
p181
asbasbasbag57
(g73
g59
NtRp182
(dp183
g62
(dp184
sg71
g67
sg64
(lp185
g57
(g78
g59
NtRp186
(dp187
g62
(dp188
g82
g83
ssg71
g182
sg64
(lp189
S'cid'
p190
asbag57
(g78
g59
NtRp191
(dp192
g62
(dp193
g89
g90
ssg71
g182
sg64
(lp194
S':'
asbag57
(g78
g59
NtRp195
(dp196
g62
(dp197
sg71
g182
sg64
(lp198
g57
(g58
g59
NtRp199
(dp200
g62
(dp201
g70
I5
ssg71
g195
sg64
(lp202
S'None'
p203
asbasbasbag57
(g73
g59
NtRp204
(dp205
g62
(dp206
sg71
g67
sg64
(lp207
g57
(g78
g59
NtRp208
(dp209
g62
(dp210
g82
g83
ssg71
g204
sg64
(lp211
S'client'
p212
asbag57
(g78
g59
NtRp213
(dp214
g62
(dp215
g89
g90
ssg71
g204
sg64
(lp216
S':'
asbag57
(g78
g59
NtRp217
(dp218
g62
(dp219
sg71
g204
sg64
(lp220
g57
(g58
g59
NtRp221
(dp222
g62
(dp223
g70
I5
ssg71
g217
sg64
(lp224
S'127.0.0.1'
p225
asbasbasbag57
(g73
g59
NtRp226
(dp227
g62
(dp228
sg71
g67
sg64
(lp229
g57
(g78
g59
NtRp230
(dp231
g62
(dp232
g82
g83
ssg71
g226
sg64
(lp233
S'controller'
p234
asbag57
(g78
g59
NtRp235
(dp236
g62
(dp237
g89
g90
ssg71
g226
sg64
(lp238
S':'
asbag57
(g78
g59
NtRp239
(dp240
g62
(dp241
sg71
g226
sg64
(lp242
g57
(g58
g59
NtRp243
(dp244
g62
(dp245
g70
I5
ssg71
g239
sg64
(lp246
S'webrtc'
p247
asbasbasbag57
(g73
g59
NtRp248
(dp249
g62
(dp250
sg71
g67
sg64
(lp251
g57
(g78
g59
NtRp252
(dp253
g62
(dp254
g82
g83
ssg71
g248
sg64
(lp255
S'cookies'
p256
asbag57
(g78
g59
NtRp257
(dp258
g62
(dp259
g89
g90
ssg71
g248
sg64
(lp260
S':'
asbag57
(g78
g59
NtRp261
(dp262
g62
(dp263
sg71
g248
sg64
(lp264
g57
(g58
g59
NtRp265
(dp266
g62
(dp267
g70
I5
ssg71
g261
sg64
(lp268
g57
(g66
g59
NtRp269
(dp270
g62
(dp271
g70
I4
ssg71
Nsg64
(lp272
g57
(g73
g59
NtRp273
(dp274
g62
(dp275
sg71
g269
sg64
(lp276
g57
(g78
g59
NtRp277
(dp278
g62
(dp279
g82
g83
ssg71
g273
sg64
(lp280
S'session_id_admin'
p281
asbag57
(g78
g59
NtRp282
(dp283
g62
(dp284
g89
g90
ssg71
g273
sg64
(lp285
S':'
asbag57
(g78
g59
NtRp286
(dp287
g62
(dp288
sg71
g273
sg64
(lp289
g57
(g58
g59
NtRp290
(dp291
g62
(dp292
g70
I4
ssg71
g286
sg64
(lp293
S'127.0.0.1-badaaec6-5d3f-4673-8f7a-dc4d2c8041d6'
p294
ag57
(g66
g59
NtRp295
(dp296
g62
(dp297
g70
I3
ssg71
Nsg64
(lp298
g57
(g73
g59
NtRp299
(dp300
g62
(dp301
sg71
g295
sg64
(lp302
g57
(g78
g59
NtRp303
(dp304
g62
(dp305
g82
g83
ssg71
g299
sg64
(lp306
S'comment'
p307
asbag57
(g78
g59
NtRp308
(dp309
g62
(dp310
g89
g90
ssg71
g299
sg64
(lp311
S':'
asbag57
(g78
g59
NtRp312
(dp313
g62
(dp314
sg71
g299
sg64
(lp315
g57
(g58
g59
NtRp316
(dp317
g62
(dp318
g70
I3
ssg71
g312
sg64
(lp319
S''
asbasbasbag57
(g73
g59
NtRp320
(dp321
g62
(dp322
sg71
g295
sg64
(lp323
g57
(g78
g59
NtRp324
(dp325
g62
(dp326
g82
g83
ssg71
g320
sg64
(lp327
S'domain'
p328
asbag57
(g78
g59
NtRp329
(dp330
g62
(dp331
g89
g90
ssg71
g320
sg64
(lp332
S':'
asbag57
(g78
g59
NtRp333
(dp334
g62
(dp335
sg71
g320
sg64
(lp336
g57
(g58
g59
NtRp337
(dp338
g62
(dp339
g70
I3
ssg71
g333
sg64
(lp340
S''
asbasbasbag57
(g73
g59
NtRp341
(dp342
g62
(dp343
sg71
g295
sg64
(lp344
g57
(g78
g59
NtRp345
(dp346
g62
(dp347
g82
g83
ssg71
g341
sg64
(lp348
S'expires'
p349
asbag57
(g78
g59
NtRp350
(dp351
g62
(dp352
g89
g90
ssg71
g341
sg64
(lp353
S':'
asbag57
(g78
g59
NtRp354
(dp355
g62
(dp356
sg71
g341
sg64
(lp357
g57
(g58
g59
NtRp358
(dp359
g62
(dp360
g70
I3
ssg71
g354
sg64
(lp361
S''
asbasbasbag57
(g73
g59
NtRp362
(dp363
g62
(dp364
sg71
g295
sg64
(lp365
g57
(g78
g59
NtRp366
(dp367
g62
(dp368
g82
g83
ssg71
g362
sg64
(lp369
S'httponly'
p370
asbag57
(g78
g59
NtRp371
(dp372
g62
(dp373
g89
g90
ssg71
g362
sg64
(lp374
S':'
asbag57
(g78
g59
NtRp375
(dp376
g62
(dp377
sg71
g362
sg64
(lp378
g57
(g58
g59
NtRp379
(dp380
g62
(dp381
g70
I3
ssg71
g375
sg64
(lp382
S''
asbasbasbag57
(g73
g59
NtRp383
(dp384
g62
(dp385
sg71
g295
sg64
(lp386
g57
(g78
g59
NtRp387
(dp388
g62
(dp389
g82
g83
ssg71
g383
sg64
(lp390
S'max-age'
p391
asbag57
(g78
g59
NtRp392
(dp393
g62
(dp394
g89
g90
ssg71
g383
sg64
(lp395
S':'
asbag57
(g78
g59
NtRp396
(dp397
g62
(dp398
sg71
g383
sg64
(lp399
g57
(g58
g59
NtRp400
(dp401
g62
(dp402
g70
I3
ssg71
g396
sg64
(lp403
S''
asbasbasbag57
(g73
g59
NtRp404
(dp405
g62
(dp406
sg71
g295
sg64
(lp407
g57
(g78
g59
NtRp408
(dp409
g62
(dp410
g82
g83
ssg71
g404
sg64
(lp411
S'path'
p412
asbag57
(g78
g59
NtRp413
(dp414
g62
(dp415
g89
g90
ssg71
g404
sg64
(lp416
S':'
asbag57
(g78
g59
NtRp417
(dp418
g62
(dp419
sg71
g404
sg64
(lp420
g57
(g58
g59
NtRp421
(dp422
g62
(dp423
g70
I3
ssg71
g417
sg64
(lp424
S''
asbasbasbag57
(g73
g59
NtRp425
(dp426
g62
(dp427
sg71
g295
sg64
(lp428
g57
(g78
g59
NtRp429
(dp430
g62
(dp431
g82
g83
ssg71
g425
sg64
(lp432
S'secure'
p433
asbag57
(g78
g59
NtRp434
(dp435
g62
(dp436
g89
g90
ssg71
g425
sg64
(lp437
S':'
asbag57
(g78
g59
NtRp438
(dp439
g62
(dp440
sg71
g425
sg64
(lp441
g57
(g58
g59
NtRp442
(dp443
g62
(dp444
g70
I3
ssg71
g438
sg64
(lp445
S''
asbasbasbag57
(g73
g59
NtRp446
(dp447
g62
(dp448
sg71
g295
sg64
(lp449
g57
(g78
g59
NtRp450
(dp451
g62
(dp452
g82
g83
ssg71
g446
sg64
(lp453
S'version'
p454
asbag57
(g78
g59
NtRp455
(dp456
g62
(dp457
g89
g90
ssg71
g446
sg64
(lp458
S':'
asbag57
(g78
g59
NtRp459
(dp460
g62
(dp461
sg71
g446
sg64
(lp462
g57
(g58
g59
NtRp463
(dp464
g62
(dp465
g70
I3
ssg71
g459
sg64
(lp466
S''
asbasbasbasbasbasbasbag57
(g73
g59
NtRp467
(dp468
g62
(dp469
sg71
g269
sg64
(lp470
g57
(g78
g59
NtRp471
(dp472
g62
(dp473
g82
g83
ssg71
g467
sg64
(lp474
S'session_id_welcome'
p475
asbag57
(g78
g59
NtRp476
(dp477
g62
(dp478
g89
g90
ssg71
g467
sg64
(lp479
S':'
asbag57
(g78
g59
NtRp480
(dp481
g62
(dp482
sg71
g467
sg64
(lp483
g57
(g58
g59
NtRp484
(dp485
g62
(dp486
g70
I4
ssg71
g480
sg64
(lp487
S'127.0.0.1-e6406ed3-36fc-4bf4-81da-8304a3548287'
p488
ag57
(g66
g59
NtRp489
(dp490
g62
(dp491
g70
I3
ssg71
Nsg64
(lp492
g57
(g73
g59
NtRp493
(dp494
g62
(dp495
sg71
g489
sg64
(lp496
g57
(g78
g59
NtRp497
(dp498
g62
(dp499
g82
g83
ssg71
g493
sg64
(lp500
g307
asbag57
(g78
g59
NtRp501
(dp502
g62
(dp503
g89
g90
ssg71
g493
sg64
(lp504
S':'
asbag57
(g78
g59
NtRp505
(dp506
g62
(dp507
sg71
g493
sg64
(lp508
g57
(g58
g59
NtRp509
(dp510
g62
(dp511
g70
I3
ssg71
g505
sg64
(lp512
S''
asbasbasbag57
(g73
g59
NtRp513
(dp514
g62
(dp515
sg71
g489
sg64
(lp516
g57
(g78
g59
NtRp517
(dp518
g62
(dp519
g82
g83
ssg71
g513
sg64
(lp520
g328
asbag57
(g78
g59
NtRp521
(dp522
g62
(dp523
g89
g90
ssg71
g513
sg64
(lp524
S':'
asbag57
(g78
g59
NtRp525
(dp526
g62
(dp527
sg71
g513
sg64
(lp528
g57
(g58
g59
NtRp529
(dp530
g62
(dp531
g70
I3
ssg71
g525
sg64
(lp532
S''
asbasbasbag57
(g73
g59
NtRp533
(dp534
g62
(dp535
sg71
g489
sg64
(lp536
g57
(g78
g59
NtRp537
(dp538
g62
(dp539
g82
g83
ssg71
g533
sg64
(lp540
g349
asbag57
(g78
g59
NtRp541
(dp542
g62
(dp543
g89
g90
ssg71
g533
sg64
(lp544
S':'
asbag57
(g78
g59
NtRp545
(dp546
g62
(dp547
sg71
g533
sg64
(lp548
g57
(g58
g59
NtRp549
(dp550
g62
(dp551
g70
I3
ssg71
g545
sg64
(lp552
S''
asbasbasbag57
(g73
g59
NtRp553
(dp554
g62
(dp555
sg71
g489
sg64
(lp556
g57
(g78
g59
NtRp557
(dp558
g62
(dp559
g82
g83
ssg71
g553
sg64
(lp560
g370
asbag57
(g78
g59
NtRp561
(dp562
g62
(dp563
g89
g90
ssg71
g553
sg64
(lp564
S':'
asbag57
(g78
g59
NtRp565
(dp566
g62
(dp567
sg71
g553
sg64
(lp568
g57
(g58
g59
NtRp569
(dp570
g62
(dp571
g70
I3
ssg71
g565
sg64
(lp572
S''
asbasbasbag57
(g73
g59
NtRp573
(dp574
g62
(dp575
sg71
g489
sg64
(lp576
g57
(g78
g59
NtRp577
(dp578
g62
(dp579
g82
g83
ssg71
g573
sg64
(lp580
g391
asbag57
(g78
g59
NtRp581
(dp582
g62
(dp583
g89
g90
ssg71
g573
sg64
(lp584
S':'
asbag57
(g78
g59
NtRp585
(dp586
g62
(dp587
sg71
g573
sg64
(lp588
g57
(g58
g59
NtRp589
(dp590
g62
(dp591
g70
I3
ssg71
g585
sg64
(lp592
S''
asbasbasbag57
(g73
g59
NtRp593
(dp594
g62
(dp595
sg71
g489
sg64
(lp596
g57
(g78
g59
NtRp597
(dp598
g62
(dp599
g82
g83
ssg71
g593
sg64
(lp600
g412
asbag57
(g78
g59
NtRp601
(dp602
g62
(dp603
g89
g90
ssg71
g593
sg64
(lp604
S':'
asbag57
(g78
g59
NtRp605
(dp606
g62
(dp607
sg71
g593
sg64
(lp608
g57
(g58
g59
NtRp609
(dp610
g62
(dp611
g70
I3
ssg71
g605
sg64
(lp612
S''
asbasbasbag57
(g73
g59
NtRp613
(dp614
g62
(dp615
sg71
g489
sg64
(lp616
g57
(g78
g59
NtRp617
(dp618
g62
(dp619
g82
g83
ssg71
g613
sg64
(lp620
g433
asbag57
(g78
g59
NtRp621
(dp622
g62
(dp623
g89
g90
ssg71
g613
sg64
(lp624
S':'
asbag57
(g78
g59
NtRp625
(dp626
g62
(dp627
sg71
g613
sg64
(lp628
g57
(g58
g59
NtRp629
(dp630
g62
(dp631
g70
I3
ssg71
g625
sg64
(lp632
S''
asbasbasbag57
(g73
g59
NtRp633
(dp634
g62
(dp635
sg71
g489
sg64
(lp636
g57
(g78
g59
NtRp637
(dp638
g62
(dp639
g82
g83
ssg71
g633
sg64
(lp640
g454
asbag57
(g78
g59
NtRp641
(dp642
g62
(dp643
g89
g90
ssg71
g633
sg64
(lp644
S':'
asbag57
(g78
g59
NtRp645
(dp646
g62
(dp647
sg71
g633
sg64
(lp648
g57
(g58
g59
NtRp649
(dp650
g62
(dp651
g70
I3
ssg71
g645
sg64
(lp652
S''
asbasbasbasbasbasbasbasbasbasbasbag57
(g73
g59
NtRp653
(dp654
g62
(dp655
sg71
g67
sg64
(lp656
g57
(g78
g59
NtRp657
(dp658
g62
(dp659
g82
g83
ssg71
g653
sg64
(lp660
S'env'
p661
asbag57
(g78
g59
NtRp662
(dp663
g62
(dp664
g89
g90
ssg71
g653
sg64
(lp665
S':'
asbag57
(g78
g59
NtRp666
(dp667
g62
(dp668
sg71
g653
sg64
(lp669
g57
(g58
g59
NtRp670
(dp671
g62
(dp672
g70
I5
ssg71
g666
sg64
(lp673
g57
(g66
g59
NtRp674
(dp675
g62
(dp676
g70
I4
ssg71
Nsg64
(lp677
g57
(g73
g59
NtRp678
(dp679
g62
(dp680
sg71
g674
sg64
(lp681
g57
(g78
g59
NtRp682
(dp683
g62
(dp684
g82
g83
ssg71
g678
sg64
(lp685
S'app_folders'
p686
asbag57
(g78
g59
NtRp687
(dp688
g62
(dp689
g89
g90
ssg71
g678
sg64
(lp690
S':'
asbag57
(g78
g59
NtRp691
(dp692
g62
(dp693
sg71
g678
sg64
(lp694
g57
(g58
g59
NtRp695
(dp696
g62
(dp697
g70
I4
ssg71
g691
sg64
(lp698
S"set(['D:\\\\Work\\\\webRTC\\\\web2py\\\\applications\\\\welcome\\\\', 'D:\\\\Work\\\\webRTC\\\\web2py\\\\applications\\\\admin\\\\'])"
p699
asbasbasbag57
(g73
g59
NtRp700
(dp701
g62
(dp702
sg71
g674
sg64
(lp703
g57
(g78
g59
NtRp704
(dp705
g62
(dp706
g82
g83
ssg71
g700
sg64
(lp707
S'applications_parent'
p708
asbag57
(g78
g59
NtRp709
(dp710
g62
(dp711
g89
g90
ssg71
g700
sg64
(lp712
S':'
asbag57
(g78
g59
NtRp713
(dp714
g62
(dp715
sg71
g700
sg64
(lp716
g57
(g58
g59
NtRp717
(dp718
g62
(dp719
g70
I4
ssg71
g713
sg64
(lp720
S'D:\\Work\\webRTC\\web2py'
p721
asbasbasbag57
(g73
g59
NtRp722
(dp723
g62
(dp724
sg71
g674
sg64
(lp725
g57
(g78
g59
NtRp726
(dp727
g62
(dp728
g82
g83
ssg71
g722
sg64
(lp729
S'cmd_args'
p730
asbag57
(g78
g59
NtRp731
(dp732
g62
(dp733
g89
g90
ssg71
g722
sg64
(lp734
S':'
asbag57
(g78
g59
NtRp735
(dp736
g62
(dp737
sg71
g722
sg64
(lp738
g57
(g58
g59
NtRp739
(dp740
g62
(dp741
g70
I4
ssg71
g735
sg64
(lp742
g57
(g66
g59
NtRp743
(dp744
g62
(dp745
g70
I3
ssg71
Nsg64
(lp746
sbasbasbasbag57
(g73
g59
NtRp747
(dp748
g62
(dp749
sg71
g674
sg64
(lp750
g57
(g78
g59
NtRp751
(dp752
g62
(dp753
g82
g83
ssg71
g747
sg64
(lp754
S'cmd_options'
p755
asbag57
(g78
g59
NtRp756
(dp757
g62
(dp758
g89
g90
ssg71
g747
sg64
(lp759
S':'
asbag57
(g78
g59
NtRp760
(dp761
g62
(dp762
sg71
g747
sg64
(lp763
g57
(g58
g59
NtRp764
(dp765
g62
(dp766
g70
I4
ssg71
g760
sg64
(lp767
S"<Values at 0x3719cc8: {'verbose': False, 'ip': '127.0.0.1', 'with_scheduler': False, 'ips': ['2001:0:9d38:6ab8:2058:2e34:3f57:ff8f', '192.168.0.112', 'fe80::2058:2e34:3f57:ff8f%14', 'fe80::91ec:31f9:5083:69f3%15'], 'shutdown_timeout': 5, 'taskbar': False, 'port': 8000, 'maxthreads': None, 'softcron': False, 'server_name': 'SonTHN-Hoiio', 'bpython': False, 'nogui': False, 'pid_filename': 'httpserver.pid', 'extcron': False, 'runcron': False, 'run_system_tests': False, 'test': None, 'folder': 'D:\\\\Work\\\\webRTC\\\\web2py', 'config': '', 'import_models': False, 'winservice': '', 'shell': None, 'run': '', 'log_filename': 'httpserver.log', 'debuglevel': 30, 'args': [''], 'socket_timeout': 5, 'ssl_ca_certificate': None, 'scheduler': None, 'profiler_filename': None, 'ssl_private_key': '', 'scheduler_groups': None, 'password': '<ask>', 'request_queue_size': 5, 'ssl_certificate': '', 'cronjob': False, 'numthreads': None, 'quiet': False, 'interfaces': None, 'minthreads': None, 'timeout': 10, 'plain': False, 'nobanner': False}>"
p768
asbasbasbag57
(g73
g59
NtRp769
(dp770
g62
(dp771
sg71
g674
sg64
(lp772
g57
(g78
g59
NtRp773
(dp774
g62
(dp775
g82
g83
ssg71
g769
sg64
(lp776
S'db_sessions'
p777
asbag57
(g78
g59
NtRp778
(dp779
g62
(dp780
g89
g90
ssg71
g769
sg64
(lp781
S':'
asbag57
(g78
g59
NtRp782
(dp783
g62
(dp784
sg71
g769
sg64
(lp785
g57
(g58
g59
NtRp786
(dp787
g62
(dp788
g70
I4
ssg71
g782
sg64
(lp789
S'set([])'
p790
asbasbasbag57
(g73
g59
NtRp791
(dp792
g62
(dp793
sg71
g674
sg64
(lp794
g57
(g78
g59
NtRp795
(dp796
g62
(dp797
g82
g83
ssg71
g791
sg64
(lp798
S'debugging'
p799
asbag57
(g78
g59
NtRp800
(dp801
g62
(dp802
g89
g90
ssg71
g791
sg64
(lp803
S':'
asbag57
(g78
g59
NtRp804
(dp805
g62
(dp806
sg71
g791
sg64
(lp807
g57
(g58
g59
NtRp808
(dp809
g62
(dp810
g70
I4
ssg71
g804
sg64
(lp811
g100
asbasbasbag57
(g73
g59
NtRp812
(dp813
g62
(dp814
sg71
g674
sg64
(lp815
g57
(g78
g59
NtRp816
(dp817
g62
(dp818
g82
g83
ssg71
g812
sg64
(lp819
S'gluon_parent'
p820
asbag57
(g78
g59
NtRp821
(dp822
g62
(dp823
g89
g90
ssg71
g812
sg64
(lp824
S':'
asbag57
(g78
g59
NtRp825
(dp826
g62
(dp827
sg71
g812
sg64
(lp828
g57
(g58
g59
NtRp829
(dp830
g62
(dp831
g70
I4
ssg71
g825
sg64
(lp832
S'D:\\Work\\webRTC\\web2py'
p833
asbasbasbag57
(g73
g59
NtRp834
(dp835
g62
(dp836
sg71
g674
sg64
(lp837
g57
(g78
g59
NtRp838
(dp839
g62
(dp840
g82
g83
ssg71
g834
sg64
(lp841
S'http_accept'
p842
asbag57
(g78
g59
NtRp843
(dp844
g62
(dp845
g89
g90
ssg71
g834
sg64
(lp846
S':'
asbag57
(g78
g59
NtRp847
(dp848
g62
(dp849
sg71
g834
sg64
(lp850
g57
(g58
g59
NtRp851
(dp852
g62
(dp853
g70
I4
ssg71
g847
sg64
(lp854
S'text/html,application/xhtml+xml,application/xml;q=0.9,*/*;q=0.8'
p855
asbasbasbag57
(g73
g59
NtRp856
(dp857
g62
(dp858
sg71
g674
sg64
(lp859
g57
(g78
g59
NtRp860
(dp861
g62
(dp862
g82
g83
ssg71
g856
sg64
(lp863
S'http_accept_charset'
p864
asbag57
(g78
g59
NtRp865
(dp866
g62
(dp867
g89
g90
ssg71
g856
sg64
(lp868
S':'
asbag57
(g78
g59
NtRp869
(dp870
g62
(dp871
sg71
g856
sg64
(lp872
g57
(g58
g59
NtRp873
(dp874
g62
(dp875
g70
I4
ssg71
g869
sg64
(lp876
S'windows-1258,utf-8;q=0.7,*;q=0.3'
p877
asbasbasbag57
(g73
g59
NtRp878
(dp879
g62
(dp880
sg71
g674
sg64
(lp881
g57
(g78
g59
NtRp882
(dp883
g62
(dp884
g82
g83
ssg71
g878
sg64
(lp885
S'http_accept_encoding'
p886
asbag57
(g78
g59
NtRp887
(dp888
g62
(dp889
g89
g90
ssg71
g878
sg64
(lp890
S':'
asbag57
(g78
g59
NtRp891
(dp892
g62
(dp893
sg71
g878
sg64
(lp894
g57
(g58
g59
NtRp895
(dp896
g62
(dp897
g70
I4
ssg71
g891
sg64
(lp898
S'gzip,deflate,sdch'
p899
asbasbasbag57
(g73
g59
NtRp900
(dp901
g62
(dp902
sg71
g674
sg64
(lp903
g57
(g78
g59
NtRp904
(dp905
g62
(dp906
g82
g83
ssg71
g900
sg64
(lp907
S'http_accept_language'
p908
asbag57
(g78
g59
NtRp909
(dp910
g62
(dp911
g89
g90
ssg71
g900
sg64
(lp912
S':'
asbag57
(g78
g59
NtRp913
(dp914
g62
(dp915
sg71
g900
sg64
(lp916
g57
(g58
g59
NtRp917
(dp918
g62
(dp919
g70
I4
ssg71
g913
sg64
(lp920
S'en,vi;q=0.8,en-US;q=0.6'
p921
asbasbasbag57
(g73
g59
NtRp922
(dp923
g62
(dp924
sg71
g674
sg64
(lp925
g57
(g78
g59
NtRp926
(dp927
g62
(dp928
g82
g83
ssg71
g922
sg64
(lp929
S'http_cache_control'
p930
asbag57
(g78
g59
NtRp931
(dp932
g62
(dp933
g89
g90
ssg71
g922
sg64
(lp934
S':'
asbag57
(g78
g59
NtRp935
(dp936
g62
(dp937
sg71
g922
sg64
(lp938
g57
(g58
g59
NtRp939
(dp940
g62
(dp941
g70
I4
ssg71
g935
sg64
(lp942
S'max-age=0'
p943
asbasbasbag57
(g73
g59
NtRp944
(dp945
g62
(dp946
sg71
g674
sg64
(lp947
g57
(g78
g59
NtRp948
(dp949
g62
(dp950
g82
g83
ssg71
g944
sg64
(lp951
S'http_connection'
p952
asbag57
(g78
g59
NtRp953
(dp954
g62
(dp955
g89
g90
ssg71
g944
sg64
(lp956
S':'
asbag57
(g78
g59
NtRp957
(dp958
g62
(dp959
sg71
g944
sg64
(lp960
g57
(g58
g59
NtRp961
(dp962
g62
(dp963
g70
I4
ssg71
g957
sg64
(lp964
S'keep-alive'
p965
asbasbasbag57
(g73
g59
NtRp966
(dp967
g62
(dp968
sg71
g674
sg64
(lp969
g57
(g78
g59
NtRp970
(dp971
g62
(dp972
g82
g83
ssg71
g966
sg64
(lp973
S'http_cookie'
p974
asbag57
(g78
g59
NtRp975
(dp976
g62
(dp977
g89
g90
ssg71
g966
sg64
(lp978
S':'
asbag57
(g78
g59
NtRp979
(dp980
g62
(dp981
sg71
g966
sg64
(lp982
g57
(g58
g59
NtRp983
(dp984
g62
(dp985
g70
I4
ssg71
g979
sg64
(lp986
S'session_id_welcome=127.0.0.1-e6406ed3-36fc-4bf4-81da-8304a3548287; session_id_admin=127.0.0.1-badaaec6-5d3f-4673-8f7a-dc4d2c8041d6'
p987
asbasbasbag57
(g73
g59
NtRp988
(dp989
g62
(dp990
sg71
g674
sg64
(lp991
g57
(g78
g59
NtRp992
(dp993
g62
(dp994
g82
g83
ssg71
g988
sg64
(lp995
S'http_host'
p996
asbag57
(g78
g59
NtRp997
(dp998
g62
(dp999
g89
g90
ssg71
g988
sg64
(lp1000
S':'
asbag57
(g78
g59
NtRp1001
(dp1002
g62
(dp1003
sg71
g988
sg64
(lp1004
g57
(g58
g59
NtRp1005
(dp1006
g62
(dp1007
g70
I4
ssg71
g1001
sg64
(lp1008
S'127.0.0.1:8000'
p1009
asbasbasbag57
(g73
g59
NtRp1010
(dp1011
g62
(dp1012
sg71
g674
sg64
(lp1013
g57
(g78
g59
NtRp1014
(dp1015
g62
(dp1016
g82
g83
ssg71
g1010
sg64
(lp1017
S'http_user_agent'
p1018
asbag57
(g78
g59
NtRp1019
(dp1020
g62
(dp1021
g89
g90
ssg71
g1010
sg64
(lp1022
S':'
asbag57
(g78
g59
NtRp1023
(dp1024
g62
(dp1025
sg71
g1010
sg64
(lp1026
g57
(g58
g59
NtRp1027
(dp1028
g62
(dp1029
g70
I4
ssg71
g1023
sg64
(lp1030
S'Mozilla/5.0 (Windows NT 6.1; WOW64) AppleWebKit/537.27 (KHTML, like Gecko) Chrome/26.0.1386.0 Safari/537.27'
p1031
asbasbasbag57
(g73
g59
NtRp1032
(dp1033
g62
(dp1034
sg71
g674
sg64
(lp1035
g57
(g78
g59
NtRp1036
(dp1037
g62
(dp1038
g82
g83
ssg71
g1032
sg64
(lp1039
S'is_jython'
p1040
asbag57
(g78
g59
NtRp1041
(dp1042
g62
(dp1043
g89
g90
ssg71
g1032
sg64
(lp1044
S':'
asbag57
(g78
g59
NtRp1045
(dp1046
g62
(dp1047
sg71
g1032
sg64
(lp1048
g57
(g58
g59
NtRp1049
(dp1050
g62
(dp1051
g70
I4
ssg71
g1045
sg64
(lp1052
g100
asbasbasbag57
(g73
g59
NtRp1053
(dp1054
g62
(dp1055
sg71
g674
sg64
(lp1056
g57
(g78
g59
NtRp1057
(dp1058
g62
(dp1059
g82
g83
ssg71
g1053
sg64
(lp1060
S'is_pypy'
p1061
asbag57
(g78
g59
NtRp1062
(dp1063
g62
(dp1064
g89
g90
ssg71
g1053
sg64
(lp1065
S':'
asbag57
(g78
g59
NtRp1066
(dp1067
g62
(dp1068
sg71
g1053
sg64
(lp1069
g57
(g58
g59
NtRp1070
(dp1071
g62
(dp1072
g70
I4
ssg71
g1066
sg64
(lp1073
g100
asbasbasbag57
(g73
g59
NtRp1074
(dp1075
g62
(dp1076
sg71
g674
sg64
(lp1077
g57
(g78
g59
NtRp1078
(dp1079
g62
(dp1080
g82
g83
ssg71
g1074
sg64
(lp1081
S'local_hosts'
p1082
asbag57
(g78
g59
NtRp1083
(dp1084
g62
(dp1085
g89
g90
ssg71
g1074
sg64
(lp1086
S':'
asbag57
(g78
g59
NtRp1087
(dp1088
g62
(dp1089
sg71
g1074
sg64
(lp1090
g57
(g58
g59
NtRp1091
(dp1092
g62
(dp1093
g70
I4
ssg71
g1087
sg64
(lp1094
g57
(g66
g59
NtRp1095
(dp1096
g62
(dp1097
g70
I3
ssg71
Nsg64
(lp1098
g57
(g73
g59
NtRp1099
(dp1100
g62
(dp1101
sg71
g1095
sg64
(lp1102
g57
(g78
g59
NtRp1103
(dp1104
g62
(dp1105
sg71
g1099
sg64
(lp1106
g57
(g58
g59
NtRp1107
(dp1108
g62
(dp1109
g70
I3
ssg71
g1103
sg64
(lp1110
S'2001:0:9d38:6ab8:2058:2e34:3f57:ff8f'
p1111
asbasbasbag57
(g73
g59
NtRp1112
(dp1113
g62
(dp1114
sg71
g1095
sg64
(lp1115
g57
(g78
g59
NtRp1116
(dp1117
g62
(dp1118
sg71
g1112
sg64
(lp1119
g57
(g58
g59
NtRp1120
(dp1121
g62
(dp1122
g70
I3
ssg71
g1116
sg64
(lp1123
S'SonTHN-Hoiio'
p1124
asbasbasbag57
(g73
g59
NtRp1125
(dp1126
g62
(dp1127
sg71
g1095
sg64
(lp1128
g57
(g78
g59
NtRp1129
(dp1130
g62
(dp1131
sg71
g1125
sg64
(lp1132
g57
(g58
g59
NtRp1133
(dp1134
g62
(dp1135
g70
I3
ssg71
g1129
sg64
(lp1136
S'fe80::91ec:31f9:5083:69f3%15'
p1137
asbasbasbag57
(g73
g59
NtRp1138
(dp1139
g62
(dp1140
sg71
g1095
sg64
(lp1141
g57
(g78
g59
NtRp1142
(dp1143
g62
(dp1144
sg71
g1138
sg64
(lp1145
g57
(g58
g59
NtRp1146
(dp1147
g62
(dp1148
g70
I3
ssg71
g1142
sg64
(lp1149
S'::ffff:127.0.0.1'
p1150
asbasbasbag57
(g73
g59
NtRp1151
(dp1152
g62
(dp1153
sg71
g1095
sg64
(lp1154
g57
(g78
g59
NtRp1155
(dp1156
g62
(dp1157
sg71
g1151
sg64
(lp1158
g57
(g58
g59
NtRp1159
(dp1160
g62
(dp1161
g70
I3
ssg71
g1155
sg64
(lp1162
S'::1'
p1163
asbasbasbag57
(g73
g59
NtRp1164
(dp1165
g62
(dp1166
sg71
g1095
sg64
(lp1167
g57
(g78
g59
NtRp1168
(dp1169
g62
(dp1170
sg71
g1164
sg64
(lp1171
g57
(g58
g59
NtRp1172
(dp1173
g62
(dp1174
g70
I3
ssg71
g1168
sg64
(lp1175
S'192.168.0.112'
p1176
asbasbasbag57
(g73
g59
NtRp1177
(dp1178
g62
(dp1179
sg71
g1095
sg64
(lp1180
g57
(g78
g59
NtRp1181
(dp1182
g62
(dp1183
sg71
g1177
sg64
(lp1184
g57
(g58
g59
NtRp1185
(dp1186
g62
(dp1187
g70
I3
ssg71
g1181
sg64
(lp1188
S'fe80::2058:2e34:3f57:ff8f%14'
p1189
asbasbasbag57
(g73
g59
NtRp1190
(dp1191
g62
(dp1192
sg71
g1095
sg64
(lp1193
g57
(g78
g59
NtRp1194
(dp1195
g62
(dp1196
sg71
g1190
sg64
(lp1197
g57
(g58
g59
NtRp1198
(dp1199
g62
(dp1200
g70
I3
ssg71
g1194
sg64
(lp1201
S'127.0.0.1'
p1202
asbasbasbasbasbasbasbag57
(g73
g59
NtRp1203
(dp1204
g62
(dp1205
sg71
g674
sg64
(lp1206
g57
(g78
g59
NtRp1207
(dp1208
g62
(dp1209
g82
g83
ssg71
g1203
sg64
(lp1210
S'path_info'
p1211
asbag57
(g78
g59
NtRp1212
(dp1213
g62
(dp1214
g89
g90
ssg71
g1203
sg64
(lp1215
S':'
asbag57
(g78
g59
NtRp1216
(dp1217
g62
(dp1218
sg71
g1203
sg64
(lp1219
g57
(g58
g59
NtRp1220
(dp1221
g62
(dp1222
g70
I4
ssg71
g1216
sg64
(lp1223
S'/welcome/webrtc/student/se0566'
p1224
asbasbasbag57
(g73
g59
NtRp1225
(dp1226
g62
(dp1227
sg71
g674
sg64
(lp1228
g57
(g78
g59
NtRp1229
(dp1230
g62
(dp1231
g82
g83
ssg71
g1225
sg64
(lp1232
S'query_string'
p1233
asbag57
(g78
g59
NtRp1234
(dp1235
g62
(dp1236
g89
g90
ssg71
g1225
sg64
(lp1237
S':'
asbag57
(g78
g59
NtRp1238
(dp1239
g62
(dp1240
sg71
g1225
sg64
(lp1241
g57
(g58
g59
NtRp1242
(dp1243
g62
(dp1244
g70
I4
ssg71
g1238
sg64
(lp1245
S''
asbasbasbag57
(g73
g59
NtRp1246
(dp1247
g62
(dp1248
sg71
g674
sg64
(lp1249
g57
(g78
g59
NtRp1250
(dp1251
g62
(dp1252
g82
g83
ssg71
g1246
sg64
(lp1253
S'remote_addr'
p1254
asbag57
(g78
g59
NtRp1255
(dp1256
g62
(dp1257
g89
g90
ssg71
g1246
sg64
(lp1258
S':'
asbag57
(g78
g59
NtRp1259
(dp1260
g62
(dp1261
sg71
g1246
sg64
(lp1262
g57
(g58
g59
NtRp1263
(dp1264
g62
(dp1265
g70
I4
ssg71
g1259
sg64
(lp1266
g225
asbasbasbag57
(g73
g59
NtRp1267
(dp1268
g62
(dp1269
sg71
g674
sg64
(lp1270
g57
(g78
g59
NtRp1271
(dp1272
g62
(dp1273
g82
g83
ssg71
g1267
sg64
(lp1274
S'remote_port'
p1275
asbag57
(g78
g59
NtRp1276
(dp1277
g62
(dp1278
g89
g90
ssg71
g1267
sg64
(lp1279
S':'
asbag57
(g78
g59
NtRp1280
(dp1281
g62
(dp1282
sg71
g1267
sg64
(lp1283
g57
(g58
g59
NtRp1284
(dp1285
g62
(dp1286
g70
I4
ssg71
g1280
sg64
(lp1287
S'51179'
p1288
asbasbasbag57
(g73
g59
NtRp1289
(dp1290
g62
(dp1291
sg71
g674
sg64
(lp1292
g57
(g78
g59
NtRp1293
(dp1294
g62
(dp1295
g82
g83
ssg71
g1289
sg64
(lp1296
S'request_method'
p1297
asbag57
(g78
g59
NtRp1298
(dp1299
g62
(dp1300
g89
g90
ssg71
g1289
sg64
(lp1301
S':'
asbag57
(g78
g59
NtRp1302
(dp1303
g62
(dp1304
sg71
g1289
sg64
(lp1305
g57
(g58
g59
NtRp1306
(dp1307
g62
(dp1308
g70
I4
ssg71
g1302
sg64
(lp1309
S'GET'
p1310
asbasbasbag57
(g73
g59
NtRp1311
(dp1312
g62
(dp1313
sg71
g674
sg64
(lp1314
g57
(g78
g59
NtRp1315
(dp1316
g62
(dp1317
g82
g83
ssg71
g1311
sg64
(lp1318
S'request_uri'
p1319
asbag57
(g78
g59
NtRp1320
(dp1321
g62
(dp1322
g89
g90
ssg71
g1311
sg64
(lp1323
S':'
asbag57
(g78
g59
NtRp1324
(dp1325
g62
(dp1326
sg71
g1311
sg64
(lp1327
g57
(g58
g59
NtRp1328
(dp1329
g62
(dp1330
g70
I4
ssg71
g1324
sg64
(lp1331
g1224
asbasbasbag57
(g73
g59
NtRp1332
(dp1333
g62
(dp1334
sg71
g674
sg64
(lp1335
g57
(g78
g59
NtRp1336
(dp1337
g62
(dp1338
g82
g83
ssg71
g1332
sg64
(lp1339
S'script_name'
p1340
asbag57
(g78
g59
NtRp1341
(dp1342
g62
(dp1343
g89
g90
ssg71
g1332
sg64
(lp1344
S':'
asbag57
(g78
g59
NtRp1345
(dp1346
g62
(dp1347
sg71
g1332
sg64
(lp1348
g57
(g58
g59
NtRp1349
(dp1350
g62
(dp1351
g70
I4
ssg71
g1345
sg64
(lp1352
S''
asbasbasbag57
(g73
g59
NtRp1353
(dp1354
g62
(dp1355
sg71
g674
sg64
(lp1356
g57
(g78
g59
NtRp1357
(dp1358
g62
(dp1359
g82
g83
ssg71
g1353
sg64
(lp1360
S'server_name'
p1361
asbag57
(g78
g59
NtRp1362
(dp1363
g62
(dp1364
g89
g90
ssg71
g1353
sg64
(lp1365
S':'
asbag57
(g78
g59
NtRp1366
(dp1367
g62
(dp1368
sg71
g1353
sg64
(lp1369
g57
(g58
g59
NtRp1370
(dp1371
g62
(dp1372
g70
I4
ssg71
g1366
sg64
(lp1373
S'SonTHN-Hoiio'
p1374
asbasbasbag57
(g73
g59
NtRp1375
(dp1376
g62
(dp1377
sg71
g674
sg64
(lp1378
g57
(g78
g59
NtRp1379
(dp1380
g62
(dp1381
g82
g83
ssg71
g1375
sg64
(lp1382
S'server_port'
p1383
asbag57
(g78
g59
NtRp1384
(dp1385
g62
(dp1386
g89
g90
ssg71
g1375
sg64
(lp1387
S':'
asbag57
(g78
g59
NtRp1388
(dp1389
g62
(dp1390
sg71
g1375
sg64
(lp1391
g57
(g58
g59
NtRp1392
(dp1393
g62
(dp1394
g70
I4
ssg71
g1388
sg64
(lp1395
S'8000'
p1396
asbasbasbag57
(g73
g59
NtRp1397
(dp1398
g62
(dp1399
sg71
g674
sg64
(lp1400
g57
(g78
g59
NtRp1401
(dp1402
g62
(dp1403
g82
g83
ssg71
g1397
sg64
(lp1404
S'server_protocol'
p1405
asbag57
(g78
g59
NtRp1406
(dp1407
g62
(dp1408
g89
g90
ssg71
g1397
sg64
(lp1409
S':'
asbag57
(g78
g59
NtRp1410
(dp1411
g62
(dp1412
sg71
g1397
sg64
(lp1413
g57
(g58
g59
NtRp1414
(dp1415
g62
(dp1416
g70
I4
ssg71
g1410
sg64
(lp1417
S'HTTP/1.1'
p1418
asbasbasbag57
(g73
g59
NtRp1419
(dp1420
g62
(dp1421
sg71
g674
sg64
(lp1422
g57
(g78
g59
NtRp1423
(dp1424
g62
(dp1425
g82
g83
ssg71
g1419
sg64
(lp1426
S'server_software'
p1427
asbag57
(g78
g59
NtRp1428
(dp1429
g62
(dp1430
g89
g90
ssg71
g1419
sg64
(lp1431
S':'
asbag57
(g78
g59
NtRp1432
(dp1433
g62
(dp1434
sg71
g1419
sg64
(lp1435
g57
(g58
g59
NtRp1436
(dp1437
g62
(dp1438
g70
I4
ssg71
g1432
sg64
(lp1439
S'Rocket 1.2.6'
p1440
asbasbasbag57
(g73
g59
NtRp1441
(dp1442
g62
(dp1443
sg71
g674
sg64
(lp1444
g57
(g78
g59
NtRp1445
(dp1446
g62
(dp1447
g82
g83
ssg71
g1441
sg64
(lp1448
S'web2py_path'
p1449
asbag57
(g78
g59
NtRp1450
(dp1451
g62
(dp1452
g89
g90
ssg71
g1441
sg64
(lp1453
S':'
asbag57
(g78
g59
NtRp1454
(dp1455
g62
(dp1456
sg71
g1441
sg64
(lp1457
g57
(g58
g59
NtRp1458
(dp1459
g62
(dp1460
g70
I4
ssg71
g1454
sg64
(lp1461
g721
asbasbasbag57
(g73
g59
NtRp1462
(dp1463
g62
(dp1464
sg71
g674
sg64
(lp1465
g57
(g78
g59
NtRp1466
(dp1467
g62
(dp1468
g82
g83
ssg71
g1462
sg64
(lp1469
S'web2py_version'
p1470
asbag57
(g78
g59
NtRp1471
(dp1472
g62
(dp1473
g89
g90
ssg71
g1462
sg64
(lp1474
S':'
asbag57
(g78
g59
NtRp1475
(dp1476
g62
(dp1477
sg71
g1462
sg64
(lp1478
g57
(g58
g59
NtRp1479
(dp1480
g62
(dp1481
g70
I4
ssg71
g1475
sg64
(lp1482
g57
(g66
g59
NtRp1483
(dp1484
g62
(dp1485
g70
I3
ssg71
Nsg64
(lp1486
g57
(g73
g59
NtRp1487
(dp1488
g62
(dp1489
sg71
g1483
sg64
(lp1490
g57
(g78
g59
NtRp1491
(dp1492
g62
(dp1493
sg71
g1487
sg64
(lp1494
g57
(g58
g59
NtRp1495
(dp1496
g62
(dp1497
g70
I3
ssg71
g1491
sg64
(lp1498
S'2'
asbasbasbag57
(g73
g59
NtRp1499
(dp1500
g62
(dp1501
sg71
g1483
sg64
(lp1502
g57
(g78
g59
NtRp1503
(dp1504
g62
(dp1505
sg71
g1499
sg64
(lp1506
g57
(g58
g59
NtRp1507
(dp1508
g62
(dp1509
g70
I3
ssg71
g1503
sg64
(lp1510
S'4'
asbasbasbag57
(g73
g59
NtRp1511
(dp1512
g62
(dp1513
sg71
g1483
sg64
(lp1514
g57
(g78
g59
NtRp1515
(dp1516
g62
(dp1517
sg71
g1511
sg64
(lp1518
g57
(g58
g59
NtRp1519
(dp1520
g62
(dp1521
g70
I3
ssg71
g1515
sg64
(lp1522
S'1'
asbasbasbag57
(g73
g59
NtRp1523
(dp1524
g62
(dp1525
sg71
g1483
sg64
(lp1526
g57
(g78
g59
NtRp1527
(dp1528
g62
(dp1529
sg71
g1523
sg64
(lp1530
g57
(g58
g59
NtRp1531
(dp1532
g62
(dp1533
g70
I3
ssg71
g1527
sg64
(lp1534
S'alpha.1'
p1535
asbasbasbag57
(g73
g59
NtRp1536
(dp1537
g62
(dp1538
sg71
g1483
sg64
(lp1539
g57
(g78
g59
NtRp1540
(dp1541
g62
(dp1542
sg71
g1536
sg64
(lp1543
g57
(g58
g59
NtRp1544
(dp1545
g62
(dp1546
g70
I3
ssg71
g1540
sg64
(lp1547
S'datetime.datetime(2012, 12, 20, 18, 16, 2)'
p1548
asbasbasbasbasbasbasbag57
(g73
g59
NtRp1549
(dp1550
g62
(dp1551
sg71
g674
sg64
(lp1552
g57
(g78
g59
NtRp1553
(dp1554
g62
(dp1555
g82
g83
ssg71
g1549
sg64
(lp1556
S'wsgi_errors'
p1557
asbag57
(g78
g59
NtRp1558
(dp1559
g62
(dp1560
g89
g90
ssg71
g1549
sg64
(lp1561
S':'
asbag57
(g78
g59
NtRp1562
(dp1563
g62
(dp1564
sg71
g1549
sg64
(lp1565
g57
(g58
g59
NtRp1566
(dp1567
g62
(dp1568
g70
I4
ssg71
g1562
sg64
(lp1569
S"<open file '<stderr>', mode 'w' at 0x0000000001C761E0>"
p1570
asbasbasbag57
(g73
g59
NtRp1571
(dp1572
g62
(dp1573
sg71
g674
sg64
(lp1574
g57
(g78
g59
NtRp1575
(dp1576
g62
(dp1577
g82
g83
ssg71
g1571
sg64
(lp1578
S'wsgi_file_wrapper'
p1579
asbag57
(g78
g59
NtRp1580
(dp1581
g62
(dp1582
g89
g90
ssg71
g1571
sg64
(lp1583
S':'
asbag57
(g78
g59
NtRp1584
(dp1585
g62
(dp1586
sg71
g1571
sg64
(lp1587
g57
(g58
g59
NtRp1588
(dp1589
g62
(dp1590
g70
I4
ssg71
g1584
sg64
(lp1591
S'<class wsgiref.util.FileWrapper at 0x000000000369CEE8>'
p1592
asbasbasbag57
(g73
g59
NtRp1593
(dp1594
g62
(dp1595
sg71
g674
sg64
(lp1596
g57
(g78
g59
NtRp1597
(dp1598
g62
(dp1599
g82
g83
ssg71
g1593
sg64
(lp1600
S'wsgi_input'
p1601
asbag57
(g78
g59
NtRp1602
(dp1603
g62
(dp1604
g89
g90
ssg71
g1593
sg64
(lp1605
S':'
asbag57
(g78
g59
NtRp1606
(dp1607
g62
(dp1608
sg71
g1593
sg64
(lp1609
g57
(g58
g59
NtRp1610
(dp1611
g62
(dp1612
g70
I4
ssg71
g1606
sg64
(lp1613
S'<socket._fileobject object at 0x0000000004C7EC00>'
p1614
asbasbasbag57
(g73
g59
NtRp1615
(dp1616
g62
(dp1617
sg71
g674
sg64
(lp1618
g57
(g78
g59
NtRp1619
(dp1620
g62
(dp1621
g82
g83
ssg71
g1615
sg64
(lp1622
S'wsgi_multiprocess'
p1623
asbag57
(g78
g59
NtRp1624
(dp1625
g62
(dp1626
g89
g90
ssg71
g1615
sg64
(lp1627
S':'
asbag57
(g78
g59
NtRp1628
(dp1629
g62
(dp1630
sg71
g1615
sg64
(lp1631
g57
(g58
g59
NtRp1632
(dp1633
g62
(dp1634
g70
I4
ssg71
g1628
sg64
(lp1635
g100
asbasbasbag57
(g73
g59
NtRp1636
(dp1637
g62
(dp1638
sg71
g674
sg64
(lp1639
g57
(g78
g59
NtRp1640
(dp1641
g62
(dp1642
g82
g83
ssg71
g1636
sg64
(lp1643
S'wsgi_multithread'
p1644
asbag57
(g78
g59
NtRp1645
(dp1646
g62
(dp1647
g89
g90
ssg71
g1636
sg64
(lp1648
S':'
asbag57
(g78
g59
NtRp1649
(dp1650
g62
(dp1651
sg71
g1636
sg64
(lp1652
g57
(g58
g59
NtRp1653
(dp1654
g62
(dp1655
g70
I4
ssg71
g1649
sg64
(lp1656
S'True'
p1657
asbasbasbag57
(g73
g59
NtRp1658
(dp1659
g62
(dp1660
sg71
g674
sg64
(lp1661
g57
(g78
g59
NtRp1662
(dp1663
g62
(dp1664
g82
g83
ssg71
g1658
sg64
(lp1665
S'wsgi_run_once'
p1666
asbag57
(g78
g59
NtRp1667
(dp1668
g62
(dp1669
g89
g90
ssg71
g1658
sg64
(lp1670
S':'
asbag57
(g78
g59
NtRp1671
(dp1672
g62
(dp1673
sg71
g1658
sg64
(lp1674
g57
(g58
g59
NtRp1675
(dp1676
g62
(dp1677
g70
I4
ssg71
g1671
sg64
(lp1678
g100
asbasbasbag57
(g73
g59
NtRp1679
(dp1680
g62
(dp1681
sg71
g674
sg64
(lp1682
g57
(g78
g59
NtRp1683
(dp1684
g62
(dp1685
g82
g83
ssg71
g1679
sg64
(lp1686
S'wsgi_url_scheme'
p1687
asbag57
(g78
g59
NtRp1688
(dp1689
g62
(dp1690
g89
g90
ssg71
g1679
sg64
(lp1691
S':'
asbag57
(g78
g59
NtRp1692
(dp1693
g62
(dp1694
sg71
g1679
sg64
(lp1695
g57
(g58
g59
NtRp1696
(dp1697
g62
(dp1698
g70
I4
ssg71
g1692
sg64
(lp1699
S'http'
p1700
asbasbasbag57
(g73
g59
NtRp1701
(dp1702
g62
(dp1703
sg71
g674
sg64
(lp1704
g57
(g78
g59
NtRp1705
(dp1706
g62
(dp1707
g82
g83
ssg71
g1701
sg64
(lp1708
S'wsgi_version'
p1709
asbag57
(g78
g59
NtRp1710
(dp1711
g62
(dp1712
g89
g90
ssg71
g1701
sg64
(lp1713
S':'
asbag57
(g78
g59
NtRp1714
(dp1715
g62
(dp1716
sg71
g1701
sg64
(lp1717
g57
(g58
g59
NtRp1718
(dp1719
g62
(dp1720
g70
I4
ssg71
g1714
sg64
(lp1721
g57
(g66
g59
NtRp1722
(dp1723
g62
(dp1724
g70
I3
ssg71
Nsg64
(lp1725
g57
(g73
g59
NtRp1726
(dp1727
g62
(dp1728
sg71
g1722
sg64
(lp1729
g57
(g78
g59
NtRp1730
(dp1731
g62
(dp1732
sg71
g1726
sg64
(lp1733
g57
(g58
g59
NtRp1734
(dp1735
g62
(dp1736
g70
I3
ssg71
g1730
sg64
(lp1737
S'1'
asbasbasbag57
(g73
g59
NtRp1738
(dp1739
g62
(dp1740
sg71
g1722
sg64
(lp1741
g57
(g78
g59
NtRp1742
(dp1743
g62
(dp1744
sg71
g1738
sg64
(lp1745
g57
(g58
g59
NtRp1746
(dp1747
g62
(dp1748
g70
I3
ssg71
g1742
sg64
(lp1749
S'0'
asbasbasbasbasbasbasbasbasbasbasbag57
(g73
g59
NtRp1750
(dp1751
g62
(dp1752
sg71
g67
sg64
(lp1753
g57
(g78
g59
NtRp1754
(dp1755
g62
(dp1756
g82
g83
ssg71
g1750
sg64
(lp1757
S'extension'
p1758
asbag57
(g78
g59
NtRp1759
(dp1760
g62
(dp1761
g89
g90
ssg71
g1750
sg64
(lp1762
S':'
asbag57
(g78
g59
NtRp1763
(dp1764
g62
(dp1765
sg71
g1750
sg64
(lp1766
g57
(g58
g59
NtRp1767
(dp1768
g62
(dp1769
g70
I5
ssg71
g1763
sg64
(lp1770
S'html'
p1771
asbasbasbag57
(g73
g59
NtRp1772
(dp1773
g62
(dp1774
sg71
g67
sg64
(lp1775
g57
(g78
g59
NtRp1776
(dp1777
g62
(dp1778
g82
g83
ssg71
g1772
sg64
(lp1779
S'folder'
p1780
asbag57
(g78
g59
NtRp1781
(dp1782
g62
(dp1783
g89
g90
ssg71
g1772
sg64
(lp1784
S':'
asbag57
(g78
g59
NtRp1785
(dp1786
g62
(dp1787
sg71
g1772
sg64
(lp1788
g57
(g58
g59
NtRp1789
(dp1790
g62
(dp1791
g70
I5
ssg71
g1785
sg64
(lp1792
S'D:\\Work\\webRTC\\web2py\\applications\\welcome\\'
p1793
asbasbasbag57
(g73
g59
NtRp1794
(dp1795
g62
(dp1796
sg71
g67
sg64
(lp1797
g57
(g78
g59
NtRp1798
(dp1799
g62
(dp1800
g82
g83
ssg71
g1794
sg64
(lp1801
S'function'
p1802
asbag57
(g78
g59
NtRp1803
(dp1804
g62
(dp1805
g89
g90
ssg71
g1794
sg64
(lp1806
S':'
asbag57
(g78
g59
NtRp1807
(dp1808
g62
(dp1809
sg71
g1794
sg64
(lp1810
g57
(g58
g59
NtRp1811
(dp1812
g62
(dp1813
g70
I5
ssg71
g1807
sg64
(lp1814
S'student'
p1815
asbasbasbag57
(g73
g59
NtRp1816
(dp1817
g62
(dp1818
sg71
g67
sg64
(lp1819
g57
(g78
g59
NtRp1820
(dp1821
g62
(dp1822
g82
g83
ssg71
g1816
sg64
(lp1823
S'get_vars'
p1824
asbag57
(g78
g59
NtRp1825
(dp1826
g62
(dp1827
g89
g90
ssg71
g1816
sg64
(lp1828
S':'
asbag57
(g78
g59
NtRp1829
(dp1830
g62
(dp1831
sg71
g1816
sg64
(lp1832
g57
(g58
g59
NtRp1833
(dp1834
g62
(dp1835
g70
I5
ssg71
g1829
sg64
(lp1836
g57
(g66
g59
NtRp1837
(dp1838
g62
(dp1839
g70
I4
ssg71
Nsg64
(lp1840
sbasbasbasbag57
(g73
g59
NtRp1841
(dp1842
g62
(dp1843
sg71
g67
sg64
(lp1844
g57
(g78
g59
NtRp1845
(dp1846
g62
(dp1847
g82
g83
ssg71
g1841
sg64
(lp1848
S'global_settings'
p1849
asbag57
(g78
g59
NtRp1850
(dp1851
g62
(dp1852
g89
g90
ssg71
g1841
sg64
(lp1853
S':'
asbag57
(g78
g59
NtRp1854
(dp1855
g62
(dp1856
sg71
g1841
sg64
(lp1857
g57
(g58
g59
NtRp1858
(dp1859
g62
(dp1860
g70
I5
ssg71
g1854
sg64
(lp1861
g57
(g66
g59
NtRp1862
(dp1863
g62
(dp1864
g70
I4
ssg71
Nsg64
(lp1865
g57
(g73
g59
NtRp1866
(dp1867
g62
(dp1868
sg71
g1862
sg64
(lp1869
g57
(g78
g59
NtRp1870
(dp1871
g62
(dp1872
g82
g83
ssg71
g1866
sg64
(lp1873
g686
asbag57
(g78
g59
NtRp1874
(dp1875
g62
(dp1876
g89
g90
ssg71
g1866
sg64
(lp1877
S':'
asbag57
(g78
g59
NtRp1878
(dp1879
g62
(dp1880
sg71
g1866
sg64
(lp1881
g57
(g58
g59
NtRp1882
(dp1883
g62
(dp1884
g70
I4
ssg71
g1878
sg64
(lp1885
S"set(['D:\\\\Work\\\\webRTC\\\\web2py\\\\applications\\\\welcome\\\\', 'D:\\\\Work\\\\webRTC\\\\web2py\\\\applications\\\\admin\\\\'])"
p1886
asbasbasbag57
(g73
g59
NtRp1887
(dp1888
g62
(dp1889
sg71
g1862
sg64
(lp1890
g57
(g78
g59
NtRp1891
(dp1892
g62
(dp1893
g82
g83
ssg71
g1887
sg64
(lp1894
g708
asbag57
(g78
g59
NtRp1895
(dp1896
g62
(dp1897
g89
g90
ssg71
g1887
sg64
(lp1898
S':'
asbag57
(g78
g59
NtRp1899
(dp1900
g62
(dp1901
sg71
g1887
sg64
(lp1902
g57
(g58
g59
NtRp1903
(dp1904
g62
(dp1905
g70
I4
ssg71
g1899
sg64
(lp1906
g721
asbasbasbag57
(g73
g59
NtRp1907
(dp1908
g62
(dp1909
sg71
g1862
sg64
(lp1910
g57
(g78
g59
NtRp1911
(dp1912
g62
(dp1913
g82
g83
ssg71
g1907
sg64
(lp1914
g730
asbag57
(g78
g59
NtRp1915
(dp1916
g62
(dp1917
g89
g90
ssg71
g1907
sg64
(lp1918
S':'
asbag57
(g78
g59
NtRp1919
(dp1920
g62
(dp1921
sg71
g1907
sg64
(lp1922
g57
(g58
g59
NtRp1923
(dp1924
g62
(dp1925
g70
I4
ssg71
g1919
sg64
(lp1926
g57
(g66
g59
NtRp1927
(dp1928
g62
(dp1929
g70
I3
ssg71
Nsg64
(lp1930
sbasbasbasbag57
(g73
g59
NtRp1931
(dp1932
g62
(dp1933
sg71
g1862
sg64
(lp1934
g57
(g78
g59
NtRp1935
(dp1936
g62
(dp1937
g82
g83
ssg71
g1931
sg64
(lp1938
g755
asbag57
(g78
g59
NtRp1939
(dp1940
g62
(dp1941
g89
g90
ssg71
g1931
sg64
(lp1942
S':'
asbag57
(g78
g59
NtRp1943
(dp1944
g62
(dp1945
sg71
g1931
sg64
(lp1946
g57
(g58
g59
NtRp1947
(dp1948
g62
(dp1949
g70
I4
ssg71
g1943
sg64
(lp1950
S"<Values at 0x3719cc8: {'verbose': False, 'ip': '127.0.0.1', 'with_scheduler': False, 'ips': ['2001:0:9d38:6ab8:2058:2e34:3f57:ff8f', '192.168.0.112', 'fe80::2058:2e34:3f57:ff8f%14', 'fe80::91ec:31f9:5083:69f3%15'], 'shutdown_timeout': 5, 'taskbar': False, 'port': 8000, 'maxthreads': None, 'softcron': False, 'server_name': 'SonTHN-Hoiio', 'bpython': False, 'nogui': False, 'pid_filename': 'httpserver.pid', 'extcron': False, 'runcron': False, 'run_system_tests': False, 'test': None, 'folder': 'D:\\\\Work\\\\webRTC\\\\web2py', 'config': '', 'import_models': False, 'winservice': '', 'shell': None, 'run': '', 'log_filename': 'httpserver.log', 'debuglevel': 30, 'args': [''], 'socket_timeout': 5, 'ssl_ca_certificate': None, 'scheduler': None, 'profiler_filename': None, 'ssl_private_key': '', 'scheduler_groups': None, 'password': '<ask>', 'request_queue_size': 5, 'ssl_certificate': '', 'cronjob': False, 'numthreads': None, 'quiet': False, 'interfaces': None, 'minthreads': None, 'timeout': 10, 'plain': False, 'nobanner': False}>"
p1951
asbasbasbag57
(g73
g59
NtRp1952
(dp1953
g62
(dp1954
sg71
g1862
sg64
(lp1955
g57
(g78
g59
NtRp1956
(dp1957
g62
(dp1958
g82
g83
ssg71
g1952
sg64
(lp1959
g777
asbag57
(g78
g59
NtRp1960
(dp1961
g62
(dp1962
g89
g90
ssg71
g1952
sg64
(lp1963
S':'
asbag57
(g78
g59
NtRp1964
(dp1965
g62
(dp1966
sg71
g1952
sg64
(lp1967
g57
(g58
g59
NtRp1968
(dp1969
g62
(dp1970
g70
I4
ssg71
g1964
sg64
(lp1971
S'set([])'
p1972
asbasbasbag57
(g73
g59
NtRp1973
(dp1974
g62
(dp1975
sg71
g1862
sg64
(lp1976
g57
(g78
g59
NtRp1977
(dp1978
g62
(dp1979
g82
g83
ssg71
g1973
sg64
(lp1980
g799
asbag57
(g78
g59
NtRp1981
(dp1982
g62
(dp1983
g89
g90
ssg71
g1973
sg64
(lp1984
S':'
asbag57
(g78
g59
NtRp1985
(dp1986
g62
(dp1987
sg71
g1973
sg64
(lp1988
g57
(g58
g59
NtRp1989
(dp1990
g62
(dp1991
g70
I4
ssg71
g1985
sg64
(lp1992
g100
asbasbasbag57
(g73
g59
NtRp1993
(dp1994
g62
(dp1995
sg71
g1862
sg64
(lp1996
g57
(g78
g59
NtRp1997
(dp1998
g62
(dp1999
g82
g83
ssg71
g1993
sg64
(lp2000
g820
asbag57
(g78
g59
NtRp2001
(dp2002
g62
(dp2003
g89
g90
ssg71
g1993
sg64
(lp2004
S':'
asbag57
(g78
g59
NtRp2005
(dp2006
g62
(dp2007
sg71
g1993
sg64
(lp2008
g57
(g58
g59
NtRp2009
(dp2010
g62
(dp2011
g70
I4
ssg71
g2005
sg64
(lp2012
g833
asbasbasbag57
(g73
g59
NtRp2013
(dp2014
g62
(dp2015
sg71
g1862
sg64
(lp2016
g57
(g78
g59
NtRp2017
(dp2018
g62
(dp2019
g82
g83
ssg71
g2013
sg64
(lp2020
g1040
asbag57
(g78
g59
NtRp2021
(dp2022
g62
(dp2023
g89
g90
ssg71
g2013
sg64
(lp2024
S':'
asbag57
(g78
g59
NtRp2025
(dp2026
g62
(dp2027
sg71
g2013
sg64
(lp2028
g57
(g58
g59
NtRp2029
(dp2030
g62
(dp2031
g70
I4
ssg71
g2025
sg64
(lp2032
g100
asbasbasbag57
(g73
g59
NtRp2033
(dp2034
g62
(dp2035
sg71
g1862
sg64
(lp2036
g57
(g78
g59
NtRp2037
(dp2038
g62
(dp2039
g82
g83
ssg71
g2033
sg64
(lp2040
g1061
asbag57
(g78
g59
NtRp2041
(dp2042
g62
(dp2043
g89
g90
ssg71
g2033
sg64
(lp2044
S':'
asbag57
(g78
g59
NtRp2045
(dp2046
g62
(dp2047
sg71
g2033
sg64
(lp2048
g57
(g58
g59
NtRp2049
(dp2050
g62
(dp2051
g70
I4
ssg71
g2045
sg64
(lp2052
g100
asbasbasbag57
(g73
g59
NtRp2053
(dp2054
g62
(dp2055
sg71
g1862
sg64
(lp2056
g57
(g78
g59
NtRp2057
(dp2058
g62
(dp2059
g82
g83
ssg71
g2053
sg64
(lp2060
g1082
asbag57
(g78
g59
NtRp2061
(dp2062
g62
(dp2063
g89
g90
ssg71
g2053
sg64
(lp2064
S':'
asbag57
(g78
g59
NtRp2065
(dp2066
g62
(dp2067
sg71
g2053
sg64
(lp2068
g57
(g58
g59
NtRp2069
(dp2070
g62
(dp2071
g70
I4
ssg71
g2065
sg64
(lp2072
g57
(g66
g59
NtRp2073
(dp2074
g62
(dp2075
g70
I3
ssg71
Nsg64
(lp2076
g57
(g73
g59
NtRp2077
(dp2078
g62
(dp2079
sg71
g2073
sg64
(lp2080
g57
(g78
g59
NtRp2081
(dp2082
g62
(dp2083
sg71
g2077
sg64
(lp2084
g57
(g58
g59
NtRp2085
(dp2086
g62
(dp2087
g70
I3
ssg71
g2081
sg64
(lp2088
g1111
asbasbasbag57
(g73
g59
NtRp2089
(dp2090
g62
(dp2091
sg71
g2073
sg64
(lp2092
g57
(g78
g59
NtRp2093
(dp2094
g62
(dp2095
sg71
g2089
sg64
(lp2096
g57
(g58
g59
NtRp2097
(dp2098
g62
(dp2099
g70
I3
ssg71
g2093
sg64
(lp2100
g1124
asbasbasbag57
(g73
g59
NtRp2101
(dp2102
g62
(dp2103
sg71
g2073
sg64
(lp2104
g57
(g78
g59
NtRp2105
(dp2106
g62
(dp2107
sg71
g2101
sg64
(lp2108
g57
(g58
g59
NtRp2109
(dp2110
g62
(dp2111
g70
I3
ssg71
g2105
sg64
(lp2112
g1137
asbasbasbag57
(g73
g59
NtRp2113
(dp2114
g62
(dp2115
sg71
g2073
sg64
(lp2116
g57
(g78
g59
NtRp2117
(dp2118
g62
(dp2119
sg71
g2113
sg64
(lp2120
g57
(g58
g59
NtRp2121
(dp2122
g62
(dp2123
g70
I3
ssg71
g2117
sg64
(lp2124
g1150
asbasbasbag57
(g73
g59
NtRp2125
(dp2126
g62
(dp2127
sg71
g2073
sg64
(lp2128
g57
(g78
g59
NtRp2129
(dp2130
g62
(dp2131
sg71
g2125
sg64
(lp2132
g57
(g58
g59
NtRp2133
(dp2134
g62
(dp2135
g70
I3
ssg71
g2129
sg64
(lp2136
g1163
asbasbasbag57
(g73
g59
NtRp2137
(dp2138
g62
(dp2139
sg71
g2073
sg64
(lp2140
g57
(g78
g59
NtRp2141
(dp2142
g62
(dp2143
sg71
g2137
sg64
(lp2144
g57
(g58
g59
NtRp2145
(dp2146
g62
(dp2147
g70
I3
ssg71
g2141
sg64
(lp2148
g1176
asbasbasbag57
(g73
g59
NtRp2149
(dp2150
g62
(dp2151
sg71
g2073
sg64
(lp2152
g57
(g78
g59
NtRp2153
(dp2154
g62
(dp2155
sg71
g2149
sg64
(lp2156
g57
(g58
g59
NtRp2157
(dp2158
g62
(dp2159
g70
I3
ssg71
g2153
sg64
(lp2160
g1189
asbasbasbag57
(g73
g59
NtRp2161
(dp2162
g62
(dp2163
sg71
g2073
sg64
(lp2164
g57
(g78
g59
NtRp2165
(dp2166
g62
(dp2167
sg71
g2161
sg64
(lp2168
g57
(g58
g59
NtRp2169
(dp2170
g62
(dp2171
g70
I3
ssg71
g2165
sg64
(lp2172
g1202
asbasbasbasbasbasbasbag57
(g73
g59
NtRp2173
(dp2174
g62
(dp2175
sg71
g1862
sg64
(lp2176
g57
(g78
g59
NtRp2177
(dp2178
g62
(dp2179
g82
g83
ssg71
g2173
sg64
(lp2180
g1470
asbag57
(g78
g59
NtRp2181
(dp2182
g62
(dp2183
g89
g90
ssg71
g2173
sg64
(lp2184
S':'
asbag57
(g78
g59
NtRp2185
(dp2186
g62
(dp2187
sg71
g2173
sg64
(lp2188
g57
(g58
g59
NtRp2189
(dp2190
g62
(dp2191
g70
I4
ssg71
g2185
sg64
(lp2192
g57
(g66
g59
NtRp2193
(dp2194
g62
(dp2195
g70
I3
ssg71
Nsg64
(lp2196
g57
(g73
g59
NtRp2197
(dp2198
g62
(dp2199
sg71
g2193
sg64
(lp2200
g57
(g78
g59
NtRp2201
(dp2202
g62
(dp2203
sg71
g2197
sg64
(lp2204
g57
(g58
g59
NtRp2205
(dp2206
g62
(dp2207
g70
I3
ssg71
g2201
sg64
(lp2208
S'2'
asbasbasbag57
(g73
g59
NtRp2209
(dp2210
g62
(dp2211
sg71
g2193
sg64
(lp2212
g57
(g78
g59
NtRp2213
(dp2214
g62
(dp2215
sg71
g2209
sg64
(lp2216
g57
(g58
g59
NtRp2217
(dp2218
g62
(dp2219
g70
I3
ssg71
g2213
sg64
(lp2220
S'4'
asbasbasbag57
(g73
g59
NtRp2221
(dp2222
g62
(dp2223
sg71
g2193
sg64
(lp2224
g57
(g78
g59
NtRp2225
(dp2226
g62
(dp2227
sg71
g2221
sg64
(lp2228
g57
(g58
g59
NtRp2229
(dp2230
g62
(dp2231
g70
I3
ssg71
g2225
sg64
(lp2232
S'1'
asbasbasbag57
(g73
g59
NtRp2233
(dp2234
g62
(dp2235
sg71
g2193
sg64
(lp2236
g57
(g78
g59
NtRp2237
(dp2238
g62
(dp2239
sg71
g2233
sg64
(lp2240
g57
(g58
g59
NtRp2241
(dp2242
g62
(dp2243
g70
I3
ssg71
g2237
sg64
(lp2244
g1535
asbasbasbag57
(g73
g59
NtRp2245
(dp2246
g62
(dp2247
sg71
g2193
sg64
(lp2248
g57
(g78
g59
NtRp2249
(dp2250
g62
(dp2251
sg71
g2245
sg64
(lp2252
g57
(g58
g59
NtRp2253
(dp2254
g62
(dp2255
g70
I3
ssg71
g2249
sg64
(lp2256
S'datetime.datetime(2012, 12, 20, 18, 16, 2)'
p2257
asbasbasbasbasbasbasbasbasbasbasbag57
(g73
g59
NtRp2258
(dp2259
g62
(dp2260
sg71
g67
sg64
(lp2261
g57
(g78
g59
NtRp2262
(dp2263
g62
(dp2264
g82
g83
ssg71
g2258
sg64
(lp2265
S'is_https'
p2266
asbag57
(g78
g59
NtRp2267
(dp2268
g62
(dp2269
g89
g90
ssg71
g2258
sg64
(lp2270
S':'
asbag57
(g78
g59
NtRp2271
(dp2272
g62
(dp2273
sg71
g2258
sg64
(lp2274
g57
(g58
g59
NtRp2275
(dp2276
g62
(dp2277
g70
I5
ssg71
g2271
sg64
(lp2278
g100
asbasbasbag57
(g73
g59
NtRp2279
(dp2280
g62
(dp2281
sg71
g67
sg64
(lp2282
g57
(g78
g59
NtRp2283
(dp2284
g62
(dp2285
g82
g83
ssg71
g2279
sg64
(lp2286
S'is_local'
p2287
asbag57
(g78
g59
NtRp2288
(dp2289
g62
(dp2290
g89
g90
ssg71
g2279
sg64
(lp2291
S':'
asbag57
(g78
g59
NtRp2292
(dp2293
g62
(dp2294
sg71
g2279
sg64
(lp2295
g57
(g58
g59
NtRp2296
(dp2297
g62
(dp2298
g70
I5
ssg71
g2292
sg64
(lp2299
g1657
asbasbasbag57
(g73
g59
NtRp2300
(dp2301
g62
(dp2302
sg71
g67
sg64
(lp2303
g57
(g78
g59
NtRp2304
(dp2305
g62
(dp2306
g82
g83
ssg71
g2300
sg64
(lp2307
S'is_restful'
p2308
asbag57
(g78
g59
NtRp2309
(dp2310
g62
(dp2311
g89
g90
ssg71
g2300
sg64
(lp2312
S':'
asbag57
(g78
g59
NtRp2313
(dp2314
g62
(dp2315
sg71
g2300
sg64
(lp2316
g57
(g58
g59
NtRp2317
(dp2318
g62
(dp2319
g70
I5
ssg71
g2313
sg64
(lp2320
g100
asbasbasbag57
(g73
g59
NtRp2321
(dp2322
g62
(dp2323
sg71
g67
sg64
(lp2324
g57
(g78
g59
NtRp2325
(dp2326
g62
(dp2327
g82
g83
ssg71
g2321
sg64
(lp2328
S'now'
p2329
asbag57
(g78
g59
NtRp2330
(dp2331
g62
(dp2332
g89
g90
ssg71
g2321
sg64
(lp2333
S':'
asbag57
(g78
g59
NtRp2334
(dp2335
g62
(dp2336
sg71
g2321
sg64
(lp2337
g57
(g58
g59
NtRp2338
(dp2339
g62
(dp2340
g70
I5
ssg71
g2334
sg64
(lp2341
S'datetime.datetime(2013, 1, 29, 10, 49, 59, 629000)'
p2342
asbasbasbag57
(g73
g59
NtRp2343
(dp2344
g62
(dp2345
sg71
g67
sg64
(lp2346
g57
(g78
g59
NtRp2347
(dp2348
g62
(dp2349
g82
g83
ssg71
g2343
sg64
(lp2350
S'post_vars'
p2351
asbag57
(g78
g59
NtRp2352
(dp2353
g62
(dp2354
g89
g90
ssg71
g2343
sg64
(lp2355
S':'
asbag57
(g78
g59
NtRp2356
(dp2357
g62
(dp2358
sg71
g2343
sg64
(lp2359
g57
(g58
g59
NtRp2360
(dp2361
g62
(dp2362
g70
I5
ssg71
g2356
sg64
(lp2363
g57
(g66
g59
NtRp2364
(dp2365
g62
(dp2366
g70
I4
ssg71
Nsg64
(lp2367
sbasbasbasbag57
(g73
g59
NtRp2368
(dp2369
g62
(dp2370
sg71
g67
sg64
(lp2371
g57
(g78
g59
NtRp2372
(dp2373
g62
(dp2374
g82
g83
ssg71
g2368
sg64
(lp2375
S'raw_args'
p2376
asbag57
(g78
g59
NtRp2377
(dp2378
g62
(dp2379
g89
g90
ssg71
g2368
sg64
(lp2380
S':'
asbag57
(g78
g59
NtRp2381
(dp2382
g62
(dp2383
sg71
g2368
sg64
(lp2384
g57
(g58
g59
NtRp2385
(dp2386
g62
(dp2387
g70
I5
ssg71
g2381
sg64
(lp2388
g159
asbasbasbag57
(g73
g59
NtRp2389
(dp2390
g62
(dp2391
sg71
g67
sg64
(lp2392
g57
(g78
g59
NtRp2393
(dp2394
g62
(dp2395
g82
g83
ssg71
g2389
sg64
(lp2396
S'raw_extension'
p2397
asbag57
(g78
g59
NtRp2398
(dp2399
g62
(dp2400
g89
g90
ssg71
g2389
sg64
(lp2401
S':'
asbag57
(g78
g59
NtRp2402
(dp2403
g62
(dp2404
sg71
g2389
sg64
(lp2405
g57
(g58
g59
NtRp2406
(dp2407
g62
(dp2408
g70
I5
ssg71
g2402
sg64
(lp2409
S'None'
p2410
asbasbasbag57
(g73
g59
NtRp2411
(dp2412
g62
(dp2413
sg71
g67
sg64
(lp2414
g57
(g78
g59
NtRp2415
(dp2416
g62
(dp2417
g82
g83
ssg71
g2411
sg64
(lp2418
S'url'
p2419
asbag57
(g78
g59
NtRp2420
(dp2421
g62
(dp2422
g89
g90
ssg71
g2411
sg64
(lp2423
S':'
asbag57
(g78
g59
NtRp2424
(dp2425
g62
(dp2426
sg71
g2411
sg64
(lp2427
g57
(g58
g59
NtRp2428
(dp2429
g62
(dp2430
g70
I5
ssg71
g2424
sg64
(lp2431
g1224
asbasbasbag57
(g73
g59
NtRp2432
(dp2433
g62
(dp2434
sg71
g67
sg64
(lp2435
g57
(g78
g59
NtRp2436
(dp2437
g62
(dp2438
g82
g83
ssg71
g2432
sg64
(lp2439
S'utcnow'
p2440
asbag57
(g78
g59
NtRp2441
(dp2442
g62
(dp2443
g89
g90
ssg71
g2432
sg64
(lp2444
S':'
asbag57
(g78
g59
NtRp2445
(dp2446
g62
(dp2447
sg71
g2432
sg64
(lp2448
g57
(g58
g59
NtRp2449
(dp2450
g62
(dp2451
g70
I5
ssg71
g2445
sg64
(lp2452
S'datetime.datetime(2013, 1, 29, 3, 49, 59, 629000)'
p2453
asbasbasbag57
(g73
g59
NtRp2454
(dp2455
g62
(dp2456
sg71
g67
sg64
(lp2457
g57
(g78
g59
NtRp2458
(dp2459
g62
(dp2460
g82
g83
ssg71
g2454
sg64
(lp2461
S'uuid'
p2462
asbag57
(g78
g59
NtRp2463
(dp2464
g62
(dp2465
g89
g90
ssg71
g2454
sg64
(lp2466
S':'
asbag57
(g78
g59
NtRp2467
(dp2468
g62
(dp2469
sg71
g2454
sg64
(lp2470
g57
(g58
g59
NtRp2471
(dp2472
g62
(dp2473
g70
I5
ssg71
g2467
sg64
(lp2474
S'welcome/127.0.0.1.2013-01-29.10-49-59.033b2c6f-dee2-446e-85f6-317dd7ce408f'
p2475
asbasbasbag57
(g73
g59
NtRp2476
(dp2477
g62
(dp2478
sg71
g67
sg64
(lp2479
g57
(g78
g59
NtRp2480
(dp2481
g62
(dp2482
g82
g83
ssg71
g2476
sg64
(lp2483
S'vars'
p2484
asbag57
(g78
g59
NtRp2485
(dp2486
g62
(dp2487
g89
g90
ssg71
g2476
sg64
(lp2488
S':'
asbag57
(g78
g59
NtRp2489
(dp2490
g62
(dp2491
sg71
g2476
sg64
(lp2492
g57
(g58
g59
NtRp2493
(dp2494
g62
(dp2495
g70
I5
ssg71
g2489
sg64
(lp2496
g57
(g66
g59
NtRp2497
(dp2498
g62
(dp2499
g70
I4
ssg71
Nsg64
(lp2500
sbasbasbasbag57
(g73
g59
NtRp2501
(dp2502
g62
(dp2503
sg71
g67
sg64
(lp2504
g57
(g78
g59
NtRp2505
(dp2506
g62
(dp2507
g82
g83
ssg71
g2501
sg64
(lp2508
S'wsgi'
p2509
asbag57
(g78
g59
NtRp2510
(dp2511
g62
(dp2512
g89
g90
ssg71
g2501
sg64
(lp2513
S':'
asbag57
(g78
g59
NtRp2514
(dp2515
g62
(dp2516
sg71
g2501
sg64
(lp2517
g57
(g58
g59
NtRp2518
(dp2519
g62
(dp2520
g70
I5
ssg71
g2514
sg64
(lp2521
g57
(g66
g59
NtRp2522
(dp2523
g62
(dp2524
g70
I4
ssg71
Nsg64
(lp2525
g57
(g73
g59
NtRp2526
(dp2527
g62
(dp2528
sg71
g2522
sg64
(lp2529
g57
(g78
g59
NtRp2530
(dp2531
g62
(dp2532
g82
g83
ssg71
g2526
sg64
(lp2533
S'environ'
p2534
asbag57
(g78
g59
NtRp2535
(dp2536
g62
(dp2537
g89
g90
ssg71
g2526
sg64
(lp2538
S':'
asbag57
(g78
g59
NtRp2539
(dp2540
g62
(dp2541
sg71
g2526
sg64
(lp2542
g57
(g58
g59
NtRp2543
(dp2544
g62
(dp2545
g70
I4
ssg71
g2539
sg64
(lp2546
g57
(g66
g59
NtRp2547
(dp2548
g62
(dp2549
g70
I3
ssg71
Nsg64
(lp2550
g57
(g73
g59
NtRp2551
(dp2552
g62
(dp2553
sg71
g2547
sg64
(lp2554
g57
(g78
g59
NtRp2555
(dp2556
g62
(dp2557
g82
g83
ssg71
g2551
sg64
(lp2558
S'HTTP_ACCEPT'
p2559
asbag57
(g78
g59
NtRp2560
(dp2561
g62
(dp2562
g89
g90
ssg71
g2551
sg64
(lp2563
S':'
asbag57
(g78
g59
NtRp2564
(dp2565
g62
(dp2566
sg71
g2551
sg64
(lp2567
g57
(g58
g59
NtRp2568
(dp2569
g62
(dp2570
g70
I3
ssg71
g2564
sg64
(lp2571
g855
asbasbasbag57
(g73
g59
NtRp2572
(dp2573
g62
(dp2574
sg71
g2547
sg64
(lp2575
g57
(g78
g59
NtRp2576
(dp2577
g62
(dp2578
g82
g83
ssg71
g2572
sg64
(lp2579
S'HTTP_ACCEPT_CHARSET'
p2580
asbag57
(g78
g59
NtRp2581
(dp2582
g62
(dp2583
g89
g90
ssg71
g2572
sg64
(lp2584
S':'
asbag57
(g78
g59
NtRp2585
(dp2586
g62
(dp2587
sg71
g2572
sg64
(lp2588
g57
(g58
g59
NtRp2589
(dp2590
g62
(dp2591
g70
I3
ssg71
g2585
sg64
(lp2592
g877
asbasbasbag57
(g73
g59
NtRp2593
(dp2594
g62
(dp2595
sg71
g2547
sg64
(lp2596
g57
(g78
g59
NtRp2597
(dp2598
g62
(dp2599
g82
g83
ssg71
g2593
sg64
(lp2600
S'HTTP_ACCEPT_ENCODING'
p2601
asbag57
(g78
g59
NtRp2602
(dp2603
g62
(dp2604
g89
g90
ssg71
g2593
sg64
(lp2605
S':'
asbag57
(g78
g59
NtRp2606
(dp2607
g62
(dp2608
sg71
g2593
sg64
(lp2609
g57
(g58
g59
NtRp2610
(dp2611
g62
(dp2612
g70
I3
ssg71
g2606
sg64
(lp2613
g899
asbasbasbag57
(g73
g59
NtRp2614
(dp2615
g62
(dp2616
sg71
g2547
sg64
(lp2617
g57
(g78
g59
NtRp2618
(dp2619
g62
(dp2620
g82
g83
ssg71
g2614
sg64
(lp2621
S'HTTP_ACCEPT_LANGUAGE'
p2622
asbag57
(g78
g59
NtRp2623
(dp2624
g62
(dp2625
g89
g90
ssg71
g2614
sg64
(lp2626
S':'
asbag57
(g78
g59
NtRp2627
(dp2628
g62
(dp2629
sg71
g2614
sg64
(lp2630
g57
(g58
g59
NtRp2631
(dp2632
g62
(dp2633
g70
I3
ssg71
g2627
sg64
(lp2634
g921
asbasbasbag57
(g73
g59
NtRp2635
(dp2636
g62
(dp2637
sg71
g2547
sg64
(lp2638
g57
(g78
g59
NtRp2639
(dp2640
g62
(dp2641
g82
g83
ssg71
g2635
sg64
(lp2642
S'HTTP_CACHE_CONTROL'
p2643
asbag57
(g78
g59
NtRp2644
(dp2645
g62
(dp2646
g89
g90
ssg71
g2635
sg64
(lp2647
S':'
asbag57
(g78
g59
NtRp2648
(dp2649
g62
(dp2650
sg71
g2635
sg64
(lp2651
g57
(g58
g59
NtRp2652
(dp2653
g62
(dp2654
g70
I3
ssg71
g2648
sg64
(lp2655
g943
asbasbasbag57
(g73
g59
NtRp2656
(dp2657
g62
(dp2658
sg71
g2547
sg64
(lp2659
g57
(g78
g59
NtRp2660
(dp2661
g62
(dp2662
g82
g83
ssg71
g2656
sg64
(lp2663
S'HTTP_CONNECTION'
p2664
asbag57
(g78
g59
NtRp2665
(dp2666
g62
(dp2667
g89
g90
ssg71
g2656
sg64
(lp2668
S':'
asbag57
(g78
g59
NtRp2669
(dp2670
g62
(dp2671
sg71
g2656
sg64
(lp2672
g57
(g58
g59
NtRp2673
(dp2674
g62
(dp2675
g70
I3
ssg71
g2669
sg64
(lp2676
g965
asbasbasbag57
(g73
g59
NtRp2677
(dp2678
g62
(dp2679
sg71
g2547
sg64
(lp2680
g57
(g78
g59
NtRp2681
(dp2682
g62
(dp2683
g82
g83
ssg71
g2677
sg64
(lp2684
S'HTTP_COOKIE'
p2685
asbag57
(g78
g59
NtRp2686
(dp2687
g62
(dp2688
g89
g90
ssg71
g2677
sg64
(lp2689
S':'
asbag57
(g78
g59
NtRp2690
(dp2691
g62
(dp2692
sg71
g2677
sg64
(lp2693
g57
(g58
g59
NtRp2694
(dp2695
g62
(dp2696
g70
I3
ssg71
g2690
sg64
(lp2697
g987
asbasbasbag57
(g73
g59
NtRp2698
(dp2699
g62
(dp2700
sg71
g2547
sg64
(lp2701
g57
(g78
g59
NtRp2702
(dp2703
g62
(dp2704
g82
g83
ssg71
g2698
sg64
(lp2705
S'HTTP_HOST'
p2706
asbag57
(g78
g59
NtRp2707
(dp2708
g62
(dp2709
g89
g90
ssg71
g2698
sg64
(lp2710
S':'
asbag57
(g78
g59
NtRp2711
(dp2712
g62
(dp2713
sg71
g2698
sg64
(lp2714
g57
(g58
g59
NtRp2715
(dp2716
g62
(dp2717
g70
I3
ssg71
g2711
sg64
(lp2718
g1009
asbasbasbag57
(g73
g59
NtRp2719
(dp2720
g62
(dp2721
sg71
g2547
sg64
(lp2722
g57
(g78
g59
NtRp2723
(dp2724
g62
(dp2725
g82
g83
ssg71
g2719
sg64
(lp2726
S'HTTP_USER_AGENT'
p2727
asbag57
(g78
g59
NtRp2728
(dp2729
g62
(dp2730
g89
g90
ssg71
g2719
sg64
(lp2731
S':'
asbag57
(g78
g59
NtRp2732
(dp2733
g62
(dp2734
sg71
g2719
sg64
(lp2735
g57
(g58
g59
NtRp2736
(dp2737
g62
(dp2738
g70
I3
ssg71
g2732
sg64
(lp2739
g1031
asbasbasbag57
(g73
g59
NtRp2740
(dp2741
g62
(dp2742
sg71
g2547
sg64
(lp2743
g57
(g78
g59
NtRp2744
(dp2745
g62
(dp2746
g82
g83
ssg71
g2740
sg64
(lp2747
S'PATH_INFO'
p2748
asbag57
(g78
g59
NtRp2749
(dp2750
g62
(dp2751
g89
g90
ssg71
g2740
sg64
(lp2752
S':'
asbag57
(g78
g59
NtRp2753
(dp2754
g62
(dp2755
sg71
g2740
sg64
(lp2756
g57
(g58
g59
NtRp2757
(dp2758
g62
(dp2759
g70
I3
ssg71
g2753
sg64
(lp2760
g1224
asbasbasbag57
(g73
g59
NtRp2761
(dp2762
g62
(dp2763
sg71
g2547
sg64
(lp2764
g57
(g78
g59
NtRp2765
(dp2766
g62
(dp2767
g82
g83
ssg71
g2761
sg64
(lp2768
S'QUERY_STRING'
p2769
asbag57
(g78
g59
NtRp2770
(dp2771
g62
(dp2772
g89
g90
ssg71
g2761
sg64
(lp2773
S':'
asbag57
(g78
g59
NtRp2774
(dp2775
g62
(dp2776
sg71
g2761
sg64
(lp2777
g57
(g58
g59
NtRp2778
(dp2779
g62
(dp2780
g70
I3
ssg71
g2774
sg64
(lp2781
S''
asbasbasbag57
(g73
g59
NtRp2782
(dp2783
g62
(dp2784
sg71
g2547
sg64
(lp2785
g57
(g78
g59
NtRp2786
(dp2787
g62
(dp2788
g82
g83
ssg71
g2782
sg64
(lp2789
S'REMOTE_ADDR'
p2790
asbag57
(g78
g59
NtRp2791
(dp2792
g62
(dp2793
g89
g90
ssg71
g2782
sg64
(lp2794
S':'
asbag57
(g78
g59
NtRp2795
(dp2796
g62
(dp2797
sg71
g2782
sg64
(lp2798
g57
(g58
g59
NtRp2799
(dp2800
g62
(dp2801
g70
I3
ssg71
g2795
sg64
(lp2802
g225
asbasbasbag57
(g73
g59
NtRp2803
(dp2804
g62
(dp2805
sg71
g2547
sg64
(lp2806
g57
(g78
g59
NtRp2807
(dp2808
g62
(dp2809
g82
g83
ssg71
g2803
sg64
(lp2810
S'REMOTE_PORT'
p2811
asbag57
(g78
g59
NtRp2812
(dp2813
g62
(dp2814
g89
g90
ssg71
g2803
sg64
(lp2815
S':'
asbag57
(g78
g59
NtRp2816
(dp2817
g62
(dp2818
sg71
g2803
sg64
(lp2819
g57
(g58
g59
NtRp2820
(dp2821
g62
(dp2822
g70
I3
ssg71
g2816
sg64
(lp2823
g1288
asbasbasbag57
(g73
g59
NtRp2824
(dp2825
g62
(dp2826
sg71
g2547
sg64
(lp2827
g57
(g78
g59
NtRp2828
(dp2829
g62
(dp2830
g82
g83
ssg71
g2824
sg64
(lp2831
S'REQUEST_METHOD'
p2832
asbag57
(g78
g59
NtRp2833
(dp2834
g62
(dp2835
g89
g90
ssg71
g2824
sg64
(lp2836
S':'
asbag57
(g78
g59
NtRp2837
(dp2838
g62
(dp2839
sg71
g2824
sg64
(lp2840
g57
(g58
g59
NtRp2841
(dp2842
g62
(dp2843
g70
I3
ssg71
g2837
sg64
(lp2844
g1310
asbasbasbag57
(g73
g59
NtRp2845
(dp2846
g62
(dp2847
sg71
g2547
sg64
(lp2848
g57
(g78
g59
NtRp2849
(dp2850
g62
(dp2851
g82
g83
ssg71
g2845
sg64
(lp2852
S'REQUEST_URI'
p2853
asbag57
(g78
g59
NtRp2854
(dp2855
g62
(dp2856
g89
g90
ssg71
g2845
sg64
(lp2857
S':'
asbag57
(g78
g59
NtRp2858
(dp2859
g62
(dp2860
sg71
g2845
sg64
(lp2861
g57
(g58
g59
NtRp2862
(dp2863
g62
(dp2864
g70
I3
ssg71
g2858
sg64
(lp2865
g1224
asbasbasbag57
(g73
g59
NtRp2866
(dp2867
g62
(dp2868
sg71
g2547
sg64
(lp2869
g57
(g78
g59
NtRp2870
(dp2871
g62
(dp2872
g82
g83
ssg71
g2866
sg64
(lp2873
S'SCRIPT_NAME'
p2874
asbag57
(g78
g59
NtRp2875
(dp2876
g62
(dp2877
g89
g90
ssg71
g2866
sg64
(lp2878
S':'
asbag57
(g78
g59
NtRp2879
(dp2880
g62
(dp2881
sg71
g2866
sg64
(lp2882
g57
(g58
g59
NtRp2883
(dp2884
g62
(dp2885
g70
I3
ssg71
g2879
sg64
(lp2886
S''
asbasbasbag57
(g73
g59
NtRp2887
(dp2888
g62
(dp2889
sg71
g2547
sg64
(lp2890
g57
(g78
g59
NtRp2891
(dp2892
g62
(dp2893
g82
g83
ssg71
g2887
sg64
(lp2894
S'SERVER_NAME'
p2895
asbag57
(g78
g59
NtRp2896
(dp2897
g62
(dp2898
g89
g90
ssg71
g2887
sg64
(lp2899
S':'
asbag57
(g78
g59
NtRp2900
(dp2901
g62
(dp2902
sg71
g2887
sg64
(lp2903
g57
(g58
g59
NtRp2904
(dp2905
g62
(dp2906
g70
I3
ssg71
g2900
sg64
(lp2907
g1374
asbasbasbag57
(g73
g59
NtRp2908
(dp2909
g62
(dp2910
sg71
g2547
sg64
(lp2911
g57
(g78
g59
NtRp2912
(dp2913
g62
(dp2914
g82
g83
ssg71
g2908
sg64
(lp2915
S'SERVER_PORT'
p2916
asbag57
(g78
g59
NtRp2917
(dp2918
g62
(dp2919
g89
g90
ssg71
g2908
sg64
(lp2920
S':'
asbag57
(g78
g59
NtRp2921
(dp2922
g62
(dp2923
sg71
g2908
sg64
(lp2924
g57
(g58
g59
NtRp2925
(dp2926
g62
(dp2927
g70
I3
ssg71
g2921
sg64
(lp2928
g1396
asbasbasbag57
(g73
g59
NtRp2929
(dp2930
g62
(dp2931
sg71
g2547
sg64
(lp2932
g57
(g78
g59
NtRp2933
(dp2934
g62
(dp2935
g82
g83
ssg71
g2929
sg64
(lp2936
S'SERVER_PROTOCOL'
p2937
asbag57
(g78
g59
NtRp2938
(dp2939
g62
(dp2940
g89
g90
ssg71
g2929
sg64
(lp2941
S':'
asbag57
(g78
g59
NtRp2942
(dp2943
g62
(dp2944
sg71
g2929
sg64
(lp2945
g57
(g58
g59
NtRp2946
(dp2947
g62
(dp2948
g70
I3
ssg71
g2942
sg64
(lp2949
g1418
asbasbasbag57
(g73
g59
NtRp2950
(dp2951
g62
(dp2952
sg71
g2547
sg64
(lp2953
g57
(g78
g59
NtRp2954
(dp2955
g62
(dp2956
g82
g83
ssg71
g2950
sg64
(lp2957
S'SERVER_SOFTWARE'
p2958
asbag57
(g78
g59
NtRp2959
(dp2960
g62
(dp2961
g89
g90
ssg71
g2950
sg64
(lp2962
S':'
asbag57
(g78
g59
NtRp2963
(dp2964
g62
(dp2965
sg71
g2950
sg64
(lp2966
g57
(g58
g59
NtRp2967
(dp2968
g62
(dp2969
g70
I3
ssg71
g2963
sg64
(lp2970
g1440
asbasbasbag57
(g73
g59
NtRp2971
(dp2972
g62
(dp2973
sg71
g2547
sg64
(lp2974
g57
(g78
g59
NtRp2975
(dp2976
g62
(dp2977
g82
g83
ssg71
g2971
sg64
(lp2978
S'wsgi.errors'
p2979
asbag57
(g78
g59
NtRp2980
(dp2981
g62
(dp2982
g89
g90
ssg71
g2971
sg64
(lp2983
S':'
asbag57
(g78
g59
NtRp2984
(dp2985
g62
(dp2986
sg71
g2971
sg64
(lp2987
g57
(g58
g59
NtRp2988
(dp2989
g62
(dp2990
g70
I3
ssg71
g2984
sg64
(lp2991
S"<open file '<stderr>', mode 'w' at 0x0000000001C761E0>"
p2992
asbasbasbag57
(g73
g59
NtRp2993
(dp2994
g62
(dp2995
sg71
g2547
sg64
(lp2996
g57
(g78
g59
NtRp2997
(dp2998
g62
(dp2999
g82
g83
ssg71
g2993
sg64
(lp3000
S'wsgi.file_wrapper'
p3001
asbag57
(g78
g59
NtRp3002
(dp3003
g62
(dp3004
g89
g90
ssg71
g2993
sg64
(lp3005
S':'
asbag57
(g78
g59
NtRp3006
(dp3007
g62
(dp3008
sg71
g2993
sg64
(lp3009
g57
(g58
g59
NtRp3010
(dp3011
g62
(dp3012
g70
I3
ssg71
g3006
sg64
(lp3013
S'<class wsgiref.util.FileWrapper at 0x000000000369CEE8>'
p3014
asbasbasbag57
(g73
g59
NtRp3015
(dp3016
g62
(dp3017
sg71
g2547
sg64
(lp3018
g57
(g78
g59
NtRp3019
(dp3020
g62
(dp3021
g82
g83
ssg71
g3015
sg64
(lp3022
S'wsgi.input'
p3023
asbag57
(g78
g59
NtRp3024
(dp3025
g62
(dp3026
g89
g90
ssg71
g3015
sg64
(lp3027
S':'
asbag57
(g78
g59
NtRp3028
(dp3029
g62
(dp3030
sg71
g3015
sg64
(lp3031
g57
(g58
g59
NtRp3032
(dp3033
g62
(dp3034
g70
I3
ssg71
g3028
sg64
(lp3035
S'<cStringIO.StringO object at 0x000000000372A8B8>'
p3036
asbasbasbag57
(g73
g59
NtRp3037
(dp3038
g62
(dp3039
sg71
g2547
sg64
(lp3040
g57
(g78
g59
NtRp3041
(dp3042
g62
(dp3043
g82
g83
ssg71
g3037
sg64
(lp3044
S'wsgi.multiprocess'
p3045
asbag57
(g78
g59
NtRp3046
(dp3047
g62
(dp3048
g89
g90
ssg71
g3037
sg64
(lp3049
S':'
asbag57
(g78
g59
NtRp3050
(dp3051
g62
(dp3052
sg71
g3037
sg64
(lp3053
g57
(g58
g59
NtRp3054
(dp3055
g62
(dp3056
g70
I3
ssg71
g3050
sg64
(lp3057
g100
asbasbasbag57
(g73
g59
NtRp3058
(dp3059
g62
(dp3060
sg71
g2547
sg64
(lp3061
g57
(g78
g59
NtRp3062
(dp3063
g62
(dp3064
g82
g83
ssg71
g3058
sg64
(lp3065
S'wsgi.multithread'
p3066
asbag57
(g78
g59
NtRp3067
(dp3068
g62
(dp3069
g89
g90
ssg71
g3058
sg64
(lp3070
S':'
asbag57
(g78
g59
NtRp3071
(dp3072
g62
(dp3073
sg71
g3058
sg64
(lp3074
g57
(g58
g59
NtRp3075
(dp3076
g62
(dp3077
g70
I3
ssg71
g3071
sg64
(lp3078
g1657
asbasbasbag57
(g73
g59
NtRp3079
(dp3080
g62
(dp3081
sg71
g2547
sg64
(lp3082
g57
(g78
g59
NtRp3083
(dp3084
g62
(dp3085
g82
g83
ssg71
g3079
sg64
(lp3086
S'wsgi.run_once'
p3087
asbag57
(g78
g59
NtRp3088
(dp3089
g62
(dp3090
g89
g90
ssg71
g3079
sg64
(lp3091
S':'
asbag57
(g78
g59
NtRp3092
(dp3093
g62
(dp3094
sg71
g3079
sg64
(lp3095
g57
(g58
g59
NtRp3096
(dp3097
g62
(dp3098
g70
I3
ssg71
g3092
sg64
(lp3099
g100
asbasbasbag57
(g73
g59
NtRp3100
(dp3101
g62
(dp3102
sg71
g2547
sg64
(lp3103
g57
(g78
g59
NtRp3104
(dp3105
g62
(dp3106
g82
g83
ssg71
g3100
sg64
(lp3107
S'wsgi.url_scheme'
p3108
asbag57
(g78
g59
NtRp3109
(dp3110
g62
(dp3111
g89
g90
ssg71
g3100
sg64
(lp3112
S':'
asbag57
(g78
g59
NtRp3113
(dp3114
g62
(dp3115
sg71
g3100
sg64
(lp3116
g57
(g58
g59
NtRp3117
(dp3118
g62
(dp3119
g70
I3
ssg71
g3113
sg64
(lp3120
g1700
asbasbasbag57
(g73
g59
NtRp3121
(dp3122
g62
(dp3123
sg71
g2547
sg64
(lp3124
g57
(g78
g59
NtRp3125
(dp3126
g62
(dp3127
g82
g83
ssg71
g3121
sg64
(lp3128
S'wsgi.version'
p3129
asbag57
(g78
g59
NtRp3130
(dp3131
g62
(dp3132
g89
g90
ssg71
g3121
sg64
(lp3133
S':'
asbag57
(g78
g59
NtRp3134
(dp3135
g62
(dp3136
sg71
g3121
sg64
(lp3137
g57
(g58
g59
NtRp3138
(dp3139
g62
(dp3140
g70
I3
ssg71
g3134
sg64
(lp3141
S'1'
asbasbasbasbasbasbasbasbasbasbasbasbasbsS'frames'
p3142
(lp3143
(dp3144
S'file'
p3145
S'D:\\Work\\webRTC\\web2py\\gluon\\restricted.py'
p3146
sS'dump'
p3147
(dp3148
S'environment'
p3149
S"{'A': <class 'gluon.html.A'>, 'Auth': <class 'gluon.tools.Auth'>, 'B': <class 'gluon.html.B'>, 'BEAUTIFY': <class 'gluon.html.BEAUTIFY'>, 'BODY': <class 'gluon.html.BODY'>, 'BR': <class 'gluon.html.BR'>, 'BUTTON': <class 'gluon.html.BUTTON'>, 'CAT': <class 'gluon.html.CAT'>, 'CENTER': <class 'gluon.html.CENTER'>, 'CLEANUP': <class 'gluon.validators.CLEANUP'>, ...}"
p3150
sS'ccode'
p3151
S'<code object <module> at 0000000008A7BB30, file ...lications\\welcome\\controllers/webrtc.py", line 3>'
p3152
ssS'lnum'
p3153
I212
sS'lines'
p3154
(dp3155
I207
S'    try:'
p3156
sI208
S'        if isinstance(code, types.CodeType):'
p3157
sI209
S'            ccode = code'
p3158
sI210
S'        else:'
p3159
sI211
S'            ccode = compile2(code, layer)'
p3160
sI212
S'        exec ccode in environment'
p3161
sI213
S'    except HTTP:'
p3162
sI214
S'        raise'
p3163
sI215
S'    except RestrictedError:'
p3164
sI216
S'        # do not encapsulate (obfuscate) the original RestrictedError'
p3165
ssS'call'
p3166
S"(code='# coding: utf8\\n# try something like\\nhost_name = ...dict()\\n\\nresponse._vars=response._caller(student)\\n', environment={'A': <class 'gluon.html.A'>, 'Auth': <class 'gluon.tools.Auth'>, 'B': <class 'gluon.html.B'>, 'BEAUTIFY': <class 'gluon.html.BEAUTIFY'>, 'BODY': <class 'gluon.html.BODY'>, 'BR': <class 'gluon.html.BR'>, 'BUTTON': <class 'gluon.html.BUTTON'>, 'CAT': <class 'gluon.html.CAT'>, 'CENTER': <class 'gluon.html.CENTER'>, 'CLEANUP': <class 'gluon.validators.CLEANUP'>, ...}, layer=r'D:\\Work\\webRTC\\web2py\\applications\\welcome\\controllers/webrtc.py')"
p3167
sS'func'
p3168
S'restricted'
p3169
sa(dp3170
g3145
S'D:\\Work\\webRTC\\web2py\\applications\\welcome\\controllers\\webrtc.py'
p3171
sg3147
(dp3172
sg3153
I25
sg3154
(dp3173
I14
S'    relate_keys_db = db(db.rtc.id < id).select(db.rtc.access_token,limitby=(0, 2))'
p3174
sI15
S'    relate_keys = [str(item.access_token) for item in relate_keys_db]'
p3175
sI16
S'    session.flash(str(relate_keys))'
p3176
sI17
S'    return dict(host = host_name,access_token = key_gen,class_name=request.args[0],relate_keys= relate_keys)'
p3177
sI18
S'def connect():'
p3178
sI19
S'   from gluon.contrib.websocket_messaging import websocket_send'
p3179
sI20
S"   websocket_send('http://'+host_name+':8888',request.vars.msg,'rtc',request.args[0])"
p3180
sI21
S'def demo():'
p3181
sI22
S"    response.files.append(URL('static','js/adapter.js'))"
p3182
sI23
S'    return dict()'
p3183
ssg3166
S'()'
p3184
sg3168
S'<module>'
p3185
sa(dp3186
g3145
S'D:\\Work\\webRTC\\web2py\\gluon\\globals.py'
p3187
sg3147
(dp3188
S'self'
p3189
S'undefined'
p3190
sS'f'
S'<function student>'
p3191
ssg3153
I193
sg3154
(dp3192
I192
S'        self._vars = None'
p3193
sI193
S'        self._caller = lambda f: f()'
p3194
sI194
S'        self._view_environment = None'
p3195
sI195
S'        self._custom_commit = None'
p3196
sI196
S'        self._custom_rollback = None'
p3197
sI197
S''
sI188
S'        self.menu = []             # used by the default view layout'
p3198
sI189
S'        self.files = []            # used by web2py_ajax.html'
p3199
sI190
S'        self.generic_patterns = []  # patterns to allow generic views'
p3200
sI191
S"        self.delimiters = ('{{', '}}')"
p3201
ssg3166
S'(f=<function student>)'
p3202
sg3168
S'<lambda>'
p3203
sa(dp3204
g3145
S'D:\\Work\\webRTC\\web2py\\applications\\welcome\\controllers\\webrtc.py'
p3205
sg3147
(dp3206
S'builtinstr'
p3207
S"<type 'str'>"
p3208
sS'session.flash'
p3209
S'None'
p3210
sS'global session'
p3211
S"<Storage {'last_orderby': None, 'last_query': 'd...: {'version': '26.0.1386.0', 'name': 'Chrome'}}}>"
p3212
sS'relate_keys'
p3213
S"['YjVmOTM0', 'NzE1ZmQ3']"
p3214
ssg3153
I16
sg3154
(dp3215
I11
S'    import sha, random, base64'
p3216
sI12
S'    key_gen = base64.b64encode(sha.sha(str(random.random())).hexdigest())[:8]'
p3217
sI13
S'    id = db.rtc.insert(access_token = key_gen)'
p3218
sI14
S'    relate_keys_db = db(db.rtc.id < id).select(db.rtc.access_token,limitby=(0, 2))'
p3219
sI15
S'    relate_keys = [str(item.access_token) for item in relate_keys_db]'
p3220
sI16
S'    session.flash(str(relate_keys))'
p3221
sI17
S'    return dict(host = host_name,access_token = key_gen,class_name=request.args[0],relate_keys= relate_keys)'
p3222
sI18
S'def connect():'
p3223
sI19
S'   from gluon.contrib.websocket_messaging import websocket_send'
p3224
sI20
S"   websocket_send('http://'+host_name+':8888',request.vars.msg,'rtc',request.args[0])"
p3225
ssg3166
S'()'
p3226
sg3168
S'student'
p3227
sasS'pyver'
p3228
S'Python 2.7.3: d:\\python27\\python.exe\xa0'
p3229
sS'session'
p3230
g57
(g58
g59
NtRp3231
(dp3232
g62
(dp3233
sg64
(lp3234
g57
(g66
g59
NtRp3235
(dp3236
g62
(dp3237
g70
I5
ssg71
Nsg64
(lp3238
g57
(g73
g59
NtRp3239
(dp3240
g62
(dp3241
sg71
g3235
sg64
(lp3242
g57
(g78
g59
NtRp3243
(dp3244
g62
(dp3245
g82
g83
ssg71
g3239
sg64
(lp3246
S'last_orderby'
p3247
asbag57
(g78
g59
NtRp3248
(dp3249
g62
(dp3250
g89
g90
ssg71
g3239
sg64
(lp3251
S':'
asbag57
(g78
g59
NtRp3252
(dp3253
g62
(dp3254
sg71
g3239
sg64
(lp3255
g57
(g58
g59
NtRp3256
(dp3257
g62
(dp3258
g70
I5
ssg71
g3252
sg64
(lp3259
S'None'
p3260
asbasbasbag57
(g73
g59
NtRp3261
(dp3262
g62
(dp3263
sg71
g3235
sg64
(lp3264
g57
(g78
g59
NtRp3265
(dp3266
g62
(dp3267
g82
g83
ssg71
g3261
sg64
(lp3268
S'last_query'
p3269
asbag57
(g78
g59
NtRp3270
(dp3271
g62
(dp3272
g89
g90
ssg71
g3261
sg64
(lp3273
S':'
asbag57
(g78
g59
NtRp3274
(dp3275
g62
(dp3276
sg71
g3261
sg64
(lp3277
g57
(g58
g59
NtRp3278
(dp3279
g62
(dp3280
g70
I5
ssg71
g3274
sg64
(lp3281
S'db.rtc.id>0'
p3282
asbasbasbasbasbsS'etype'
p3283
S"<type 'exceptions.TypeError'>"
p3284
sS'date'
p3285
S'Tue Jan 29 10:49:59 2013'
p3286
sS'response'
p3287
g57
(g58
g59
NtRp3288
(dp3289
g62
(dp3290
sg64
(lp3291
g57
(g66
g59
NtRp3292
(dp3293
g62
(dp3294
g70
I5
ssg71
Nsg64
(lp3295
g57
(g73
g59
NtRp3296
(dp3297
g62
(dp3298
sg71
g3292
sg64
(lp3299
g57
(g78
g59
NtRp3300
(dp3301
g62
(dp3302
g82
g83
ssg71
g3296
sg64
(lp3303
g168
asbag57
(g78
g59
NtRp3304
(dp3305
g62
(dp3306
g89
g90
ssg71
g3296
sg64
(lp3307
S':'
asbag57
(g78
g59
NtRp3308
(dp3309
g62
(dp3310
sg71
g3296
sg64
(lp3311
g57
(g58
g59
NtRp3312
(dp3313
g62
(dp3314
g70
I5
ssg71
g3308
sg64
(lp3315
S'<cStringIO.StringO object at 0x0000000008BC5570>'
p3316
asbasbasbag57
(g73
g59
NtRp3317
(dp3318
g62
(dp3319
sg71
g3292
sg64
(lp3320
g57
(g78
g59
NtRp3321
(dp3322
g62
(dp3323
g82
g83
ssg71
g3317
sg64
(lp3324
g256
asbag57
(g78
g59
NtRp3325
(dp3326
g62
(dp3327
g89
g90
ssg71
g3317
sg64
(lp3328
S':'
asbag57
(g78
g59
NtRp3329
(dp3330
g62
(dp3331
sg71
g3317
sg64
(lp3332
g57
(g58
g59
NtRp3333
(dp3334
g62
(dp3335
g70
I5
ssg71
g3329
sg64
(lp3336
g57
(g66
g59
NtRp3337
(dp3338
g62
(dp3339
g70
I4
ssg71
Nsg64
(lp3340
g57
(g73
g59
NtRp3341
(dp3342
g62
(dp3343
sg71
g3337
sg64
(lp3344
g57
(g78
g59
NtRp3345
(dp3346
g62
(dp3347
g82
g83
ssg71
g3341
sg64
(lp3348
S'session_id_welcome'
p3349
asbag57
(g78
g59
NtRp3350
(dp3351
g62
(dp3352
g89
g90
ssg71
g3341
sg64
(lp3353
S':'
asbag57
(g78
g59
NtRp3354
(dp3355
g62
(dp3356
sg71
g3341
sg64
(lp3357
g57
(g58
g59
NtRp3358
(dp3359
g62
(dp3360
g70
I4
ssg71
g3354
sg64
(lp3361
g488
ag57
(g66
g59
NtRp3362
(dp3363
g62
(dp3364
g70
I3
ssg71
Nsg64
(lp3365
g57
(g73
g59
NtRp3366
(dp3367
g62
(dp3368
sg71
g3362
sg64
(lp3369
g57
(g78
g59
NtRp3370
(dp3371
g62
(dp3372
g82
g83
ssg71
g3366
sg64
(lp3373
g307
asbag57
(g78
g59
NtRp3374
(dp3375
g62
(dp3376
g89
g90
ssg71
g3366
sg64
(lp3377
S':'
asbag57
(g78
g59
NtRp3378
(dp3379
g62
(dp3380
sg71
g3366
sg64
(lp3381
g57
(g58
g59
NtRp3382
(dp3383
g62
(dp3384
g70
I3
ssg71
g3378
sg64
(lp3385
S''
asbasbasbag57
(g73
g59
NtRp3386
(dp3387
g62
(dp3388
sg71
g3362
sg64
(lp3389
g57
(g78
g59
NtRp3390
(dp3391
g62
(dp3392
g82
g83
ssg71
g3386
sg64
(lp3393
g328
asbag57
(g78
g59
NtRp3394
(dp3395
g62
(dp3396
g89
g90
ssg71
g3386
sg64
(lp3397
S':'
asbag57
(g78
g59
NtRp3398
(dp3399
g62
(dp3400
sg71
g3386
sg64
(lp3401
g57
(g58
g59
NtRp3402
(dp3403
g62
(dp3404
g70
I3
ssg71
g3398
sg64
(lp3405
S''
asbasbasbag57
(g73
g59
NtRp3406
(dp3407
g62
(dp3408
sg71
g3362
sg64
(lp3409
g57
(g78
g59
NtRp3410
(dp3411
g62
(dp3412
g82
g83
ssg71
g3406
sg64
(lp3413
g349
asbag57
(g78
g59
NtRp3414
(dp3415
g62
(dp3416
g89
g90
ssg71
g3406
sg64
(lp3417
S':'
asbag57
(g78
g59
NtRp3418
(dp3419
g62
(dp3420
sg71
g3406
sg64
(lp3421
g57
(g58
g59
NtRp3422
(dp3423
g62
(dp3424
g70
I3
ssg71
g3418
sg64
(lp3425
S''
asbasbasbag57
(g73
g59
NtRp3426
(dp3427
g62
(dp3428
sg71
g3362
sg64
(lp3429
g57
(g78
g59
NtRp3430
(dp3431
g62
(dp3432
g82
g83
ssg71
g3426
sg64
(lp3433
g370
asbag57
(g78
g59
NtRp3434
(dp3435
g62
(dp3436
g89
g90
ssg71
g3426
sg64
(lp3437
S':'
asbag57
(g78
g59
NtRp3438
(dp3439
g62
(dp3440
sg71
g3426
sg64
(lp3441
g57
(g58
g59
NtRp3442
(dp3443
g62
(dp3444
g70
I3
ssg71
g3438
sg64
(lp3445
S''
asbasbasbag57
(g73
g59
NtRp3446
(dp3447
g62
(dp3448
sg71
g3362
sg64
(lp3449
g57
(g78
g59
NtRp3450
(dp3451
g62
(dp3452
g82
g83
ssg71
g3446
sg64
(lp3453
g391
asbag57
(g78
g59
NtRp3454
(dp3455
g62
(dp3456
g89
g90
ssg71
g3446
sg64
(lp3457
S':'
asbag57
(g78
g59
NtRp3458
(dp3459
g62
(dp3460
sg71
g3446
sg64
(lp3461
g57
(g58
g59
NtRp3462
(dp3463
g62
(dp3464
g70
I3
ssg71
g3458
sg64
(lp3465
S''
asbasbasbag57
(g73
g59
NtRp3466
(dp3467
g62
(dp3468
sg71
g3362
sg64
(lp3469
g57
(g78
g59
NtRp3470
(dp3471
g62
(dp3472
g82
g83
ssg71
g3466
sg64
(lp3473
g412
asbag57
(g78
g59
NtRp3474
(dp3475
g62
(dp3476
g89
g90
ssg71
g3466
sg64
(lp3477
S':'
asbag57
(g78
g59
NtRp3478
(dp3479
g62
(dp3480
sg71
g3466
sg64
(lp3481
g57
(g58
g59
NtRp3482
(dp3483
g62
(dp3484
g70
I3
ssg71
g3478
sg64
(lp3485
S'/'
asbasbasbag57
(g73
g59
NtRp3486
(dp3487
g62
(dp3488
sg71
g3362
sg64
(lp3489
g57
(g78
g59
NtRp3490
(dp3491
g62
(dp3492
g82
g83
ssg71
g3486
sg64
(lp3493
g433
asbag57
(g78
g59
NtRp3494
(dp3495
g62
(dp3496
g89
g90
ssg71
g3486
sg64
(lp3497
S':'
asbag57
(g78
g59
NtRp3498
(dp3499
g62
(dp3500
sg71
g3486
sg64
(lp3501
g57
(g58
g59
NtRp3502
(dp3503
g62
(dp3504
g70
I3
ssg71
g3498
sg64
(lp3505
S''
asbasbasbag57
(g73
g59
NtRp3506
(dp3507
g62
(dp3508
sg71
g3362
sg64
(lp3509
g57
(g78
g59
NtRp3510
(dp3511
g62
(dp3512
g82
g83
ssg71
g3506
sg64
(lp3513
g454
asbag57
(g78
g59
NtRp3514
(dp3515
g62
(dp3516
g89
g90
ssg71
g3506
sg64
(lp3517
S':'
asbag57
(g78
g59
NtRp3518
(dp3519
g62
(dp3520
sg71
g3506
sg64
(lp3521
g57
(g58
g59
NtRp3522
(dp3523
g62
(dp3524
g70
I3
ssg71
g3518
sg64
(lp3525
S''
asbasbasbasbasbasbasbasbasbasbasbag57
(g73
g59
NtRp3526
(dp3527
g62
(dp3528
sg71
g3292
sg64
(lp3529
g57
(g78
g59
NtRp3530
(dp3531
g62
(dp3532
g82
g83
ssg71
g3526
sg64
(lp3533
S'delimiters'
p3534
asbag57
(g78
g59
NtRp3535
(dp3536
g62
(dp3537
g89
g90
ssg71
g3526
sg64
(lp3538
S':'
asbag57
(g78
g59
NtRp3539
(dp3540
g62
(dp3541
sg71
g3526
sg64
(lp3542
g57
(g58
g59
NtRp3543
(dp3544
g62
(dp3545
g70
I5
ssg71
g3539
sg64
(lp3546
g57
(g66
g59
NtRp3547
(dp3548
g62
(dp3549
g70
I4
ssg71
Nsg64
(lp3550
g57
(g73
g59
NtRp3551
(dp3552
g62
(dp3553
sg71
g3547
sg64
(lp3554
g57
(g78
g59
NtRp3555
(dp3556
g62
(dp3557
sg71
g3551
sg64
(lp3558
g57
(g58
g59
NtRp3559
(dp3560
g62
(dp3561
g70
I4
ssg71
g3555
sg64
(lp3562
S'{{'
p3563
asbasbasbag57
(g73
g59
NtRp3564
(dp3565
g62
(dp3566
sg71
g3547
sg64
(lp3567
g57
(g78
g59
NtRp3568
(dp3569
g62
(dp3570
sg71
g3564
sg64
(lp3571
g57
(g58
g59
NtRp3572
(dp3573
g62
(dp3574
g70
I4
ssg71
g3568
sg64
(lp3575
S'}}'
p3576
asbasbasbasbasbasbasbag57
(g73
g59
NtRp3577
(dp3578
g62
(dp3579
sg71
g3292
sg64
(lp3580
g57
(g78
g59
NtRp3581
(dp3582
g62
(dp3583
g82
g83
ssg71
g3577
sg64
(lp3584
S'files'
p3585
asbag57
(g78
g59
NtRp3586
(dp3587
g62
(dp3588
g89
g90
ssg71
g3577
sg64
(lp3589
S':'
asbag57
(g78
g59
NtRp3590
(dp3591
g62
(dp3592
sg71
g3577
sg64
(lp3593
g57
(g58
g59
NtRp3594
(dp3595
g62
(dp3596
g70
I5
ssg71
g3590
sg64
(lp3597
g57
(g66
g59
NtRp3598
(dp3599
g62
(dp3600
g70
I4
ssg71
Nsg64
(lp3601
sbasbasbasbag57
(g73
g59
NtRp3602
(dp3603
g62
(dp3604
sg71
g3292
sg64
(lp3605
g57
(g78
g59
NtRp3606
(dp3607
g62
(dp3608
g82
g83
ssg71
g3602
sg64
(lp3609
S'flash'
p3610
asbag57
(g78
g59
NtRp3611
(dp3612
g62
(dp3613
g89
g90
ssg71
g3602
sg64
(lp3614
S':'
asbag57
(g78
g59
NtRp3615
(dp3616
g62
(dp3617
sg71
g3602
sg64
(lp3618
g57
(g58
g59
NtRp3619
(dp3620
g62
(dp3621
g70
I5
ssg71
g3615
sg64
(lp3622
S''
asbasbasbag57
(g73
g59
NtRp3623
(dp3624
g62
(dp3625
sg71
g3292
sg64
(lp3626
g57
(g78
g59
NtRp3627
(dp3628
g62
(dp3629
g82
g83
ssg71
g3623
sg64
(lp3630
S'generic_patterns'
p3631
asbag57
(g78
g59
NtRp3632
(dp3633
g62
(dp3634
g89
g90
ssg71
g3623
sg64
(lp3635
S':'
asbag57
(g78
g59
NtRp3636
(dp3637
g62
(dp3638
sg71
g3623
sg64
(lp3639
g57
(g58
g59
NtRp3640
(dp3641
g62
(dp3642
g70
I5
ssg71
g3636
sg64
(lp3643
g57
(g66
g59
NtRp3644
(dp3645
g62
(dp3646
g70
I4
ssg71
Nsg64
(lp3647
g57
(g73
g59
NtRp3648
(dp3649
g62
(dp3650
sg71
g3644
sg64
(lp3651
g57
(g78
g59
NtRp3652
(dp3653
g62
(dp3654
sg71
g3648
sg64
(lp3655
g57
(g58
g59
NtRp3656
(dp3657
g62
(dp3658
g70
I4
ssg71
g3652
sg64
(lp3659
S'*'
asbasbasbasbasbasbasbag57
(g73
g59
NtRp3660
(dp3661
g62
(dp3662
sg71
g3292
sg64
(lp3663
g57
(g78
g59
NtRp3664
(dp3665
g62
(dp3666
g82
g83
ssg71
g3660
sg64
(lp3667
S'google_analytics_id'
p3668
asbag57
(g78
g59
NtRp3669
(dp3670
g62
(dp3671
g89
g90
ssg71
g3660
sg64
(lp3672
S':'
asbag57
(g78
g59
NtRp3673
(dp3674
g62
(dp3675
sg71
g3660
sg64
(lp3676
g57
(g58
g59
NtRp3677
(dp3678
g62
(dp3679
g70
I5
ssg71
g3673
sg64
(lp3680
S'None'
p3681
asbasbasbag57
(g73
g59
NtRp3682
(dp3683
g62
(dp3684
sg71
g3292
sg64
(lp3685
g57
(g78
g59
NtRp3686
(dp3687
g62
(dp3688
g82
g83
ssg71
g3682
sg64
(lp3689
S'headers'
p3690
asbag57
(g78
g59
NtRp3691
(dp3692
g62
(dp3693
g89
g90
ssg71
g3682
sg64
(lp3694
S':'
asbag57
(g78
g59
NtRp3695
(dp3696
g62
(dp3697
sg71
g3682
sg64
(lp3698
g57
(g58
g59
NtRp3699
(dp3700
g62
(dp3701
g70
I5
ssg71
g3695
sg64
(lp3702
g57
(g66
g59
NtRp3703
(dp3704
g62
(dp3705
g70
I4
ssg71
Nsg64
(lp3706
g57
(g73
g59
NtRp3707
(dp3708
g62
(dp3709
sg71
g3703
sg64
(lp3710
g57
(g78
g59
NtRp3711
(dp3712
g62
(dp3713
g82
g83
ssg71
g3707
sg64
(lp3714
S'X-Powered-By'
p3715
asbag57
(g78
g59
NtRp3716
(dp3717
g62
(dp3718
g89
g90
ssg71
g3707
sg64
(lp3719
S':'
asbag57
(g78
g59
NtRp3720
(dp3721
g62
(dp3722
sg71
g3707
sg64
(lp3723
g57
(g58
g59
NtRp3724
(dp3725
g62
(dp3726
g70
I4
ssg71
g3720
sg64
(lp3727
S'web2py'
p3728
asbasbasbasbasbasbasbag57
(g73
g59
NtRp3729
(dp3730
g62
(dp3731
sg71
g3292
sg64
(lp3732
g57
(g78
g59
NtRp3733
(dp3734
g62
(dp3735
g82
g83
ssg71
g3729
sg64
(lp3736
S'logo'
p3737
asbag57
(g78
g59
NtRp3738
(dp3739
g62
(dp3740
g89
g90
ssg71
g3729
sg64
(lp3741
S':'
asbag57
(g78
g59
NtRp3742
(dp3743
g62
(dp3744
sg71
g3729
sg64
(lp3745
g57
(g58
g59
NtRp3746
(dp3747
g62
(dp3748
g70
I5
ssg71
g3742
sg64
(lp3749
g57
(cgluon.html
A
p3750
g59
NtRp3751
(dp3752
g62
(dp3753
S'_class'
p3754
S'brand'
p3755
sS'_href'
p3756
S'http://www.web2py.com/'
p3757
ssg71
Nsg64
(lp3758
g57
(cgluon.html
B
p3759
g59
NtRp3760
(dp3761
g62
(dp3762
sg71
g3751
sg64
(lp3763
S'web'
p3764
ag57
(cgluon.html
SPAN
p3765
g59
NtRp3766
(dp3767
g62
(dp3768
sg71
g3760
sg64
(lp3769
I2
asbaS'py'
p3770
asbacgluon.html
XML_unpickle
p3771
(S's\r\x00\x00\x00&trade;&nbsp;'
tRp3772
asbasbasbasbag57
(g73
g59
NtRp3773
(dp3774
g62
(dp3775
sg71
g3292
sg64
(lp3776
g57
(g78
g59
NtRp3777
(dp3778
g62
(dp3779
g82
g83
ssg71
g3773
sg64
(lp3780
S'menu'
p3781
asbag57
(g78
g59
NtRp3782
(dp3783
g62
(dp3784
g89
g90
ssg71
g3773
sg64
(lp3785
S':'
asbag57
(g78
g59
NtRp3786
(dp3787
g62
(dp3788
sg71
g3773
sg64
(lp3789
g57
(g58
g59
NtRp3790
(dp3791
g62
(dp3792
g70
I5
ssg71
g3786
sg64
(lp3793
g57
(g66
g59
NtRp3794
(dp3795
g62
(dp3796
g70
I4
ssg71
Nsg64
(lp3797
g57
(g73
g59
NtRp3798
(dp3799
g62
(dp3800
sg71
g3794
sg64
(lp3801
g57
(g78
g59
NtRp3802
(dp3803
g62
(dp3804
sg71
g3798
sg64
(lp3805
g57
(g58
g59
NtRp3806
(dp3807
g62
(dp3808
g70
I4
ssg71
g3802
sg64
(lp3809
g57
(g66
g59
NtRp3810
(dp3811
g62
(dp3812
g70
I3
ssg71
Nsg64
(lp3813
g57
(g73
g59
NtRp3814
(dp3815
g62
(dp3816
sg71
g3810
sg64
(lp3817
g57
(g78
g59
NtRp3818
(dp3819
g62
(dp3820
sg71
g3814
sg64
(lp3821
g57
(g58
g59
NtRp3822
(dp3823
g62
(dp3824
g70
I3
ssg71
g3818
sg64
(lp3825
cgluon.languages
lazyT_unpickle
p3826
(S's\x04\x00\x00\x00Home'
tRp3827
asbasbasbag57
(g73
g59
NtRp3828
(dp3829
g62
(dp3830
sg71
g3810
sg64
(lp3831
g57
(g78
g59
NtRp3832
(dp3833
g62
(dp3834
sg71
g3828
sg64
(lp3835
g57
(g58
g59
NtRp3836
(dp3837
g62
(dp3838
g70
I3
ssg71
g3832
sg64
(lp3839
g100
asbasbasbag57
(g73
g59
NtRp3840
(dp3841
g62
(dp3842
sg71
g3810
sg64
(lp3843
g57
(g78
g59
NtRp3844
(dp3845
g62
(dp3846
sg71
g3840
sg64
(lp3847
g57
(g58
g59
NtRp3848
(dp3849
g62
(dp3850
g70
I3
ssg71
g3844
sg64
(lp3851
S'/welcome/default/index'
p3852
asbasbasbag57
(g73
g59
NtRp3853
(dp3854
g62
(dp3855
sg71
g3810
sg64
(lp3856
g57
(g78
g59
NtRp3857
(dp3858
g62
(dp3859
sg71
g3853
sg64
(lp3860
g57
(g58
g59
NtRp3861
(dp3862
g62
(dp3863
g70
I3
ssg71
g3857
sg64
(lp3864
g57
(g66
g59
NtRp3865
(dp3866
g62
(dp3867
g70
I2
ssg71
Nsg64
(lp3868
sbasbasbasbasbasbasbasbag57
(g73
g59
NtRp3869
(dp3870
g62
(dp3871
sg71
g3794
sg64
(lp3872
g57
(g78
g59
NtRp3873
(dp3874
g62
(dp3875
sg71
g3869
sg64
(lp3876
g57
(g58
g59
NtRp3877
(dp3878
g62
(dp3879
g70
I4
ssg71
g3873
sg64
(lp3880
g57
(g66
g59
NtRp3881
(dp3882
g62
(dp3883
g70
I3
ssg71
Nsg64
(lp3884
g57
(g73
g59
NtRp3885
(dp3886
g62
(dp3887
sg71
g3881
sg64
(lp3888
g57
(g78
g59
NtRp3889
(dp3890
g62
(dp3891
sg71
g3885
sg64
(lp3892
g57
(g58
g59
NtRp3893
(dp3894
g62
(dp3895
g70
I3
ssg71
g3889
sg64
(lp3896
g57
(g3765
g59
NtRp3897
(dp3898
g62
(dp3899
g3754
S'highlighted'
p3900
ssg71
Nsg64
(lp3901
g3728
asbasbasbasbag57
(g73
g59
NtRp3902
(dp3903
g62
(dp3904
sg71
g3881
sg64
(lp3905
g57
(g78
g59
NtRp3906
(dp3907
g62
(dp3908
sg71
g3902
sg64
(lp3909
g57
(g58
g59
NtRp3910
(dp3911
g62
(dp3912
g70
I3
ssg71
g3906
sg64
(lp3913
g100
asbasbasbag57
(g73
g59
NtRp3914
(dp3915
g62
(dp3916
sg71
g3881
sg64
(lp3917
g57
(g78
g59
NtRp3918
(dp3919
g62
(dp3920
sg71
g3914
sg64
(lp3921
g57
(g58
g59
NtRp3922
(dp3923
g62
(dp3924
g70
I3
ssg71
g3918
sg64
(lp3925
S'http://web2py.com'
p3926
asbasbasbag57
(g73
g59
NtRp3927
(dp3928
g62
(dp3929
sg71
g3881
sg64
(lp3930
g57
(g78
g59
NtRp3931
(dp3932
g62
(dp3933
sg71
g3927
sg64
(lp3934
g57
(g58
g59
NtRp3935
(dp3936
g62
(dp3937
g70
I3
ssg71
g3931
sg64
(lp3938
g57
(g66
g59
NtRp3939
(dp3940
g62
(dp3941
g70
I2
ssg71
Nsg64
(lp3942
g57
(g73
g59
NtRp3943
(dp3944
g62
(dp3945
sg71
g3939
sg64
(lp3946
g57
(g78
g59
NtRp3947
(dp3948
g62
(dp3949
sg71
g3943
sg64
(lp3950
g57
(g58
g59
NtRp3951
(dp3952
g62
(dp3953
g70
I2
ssg71
g3947
sg64
(lp3954
g57
(g66
g59
NtRp3955
(dp3956
g62
(dp3957
g70
I1
ssg71
Nsg64
(lp3958
g57
(g73
g59
NtRp3959
(dp3960
g62
(dp3961
sg71
g3955
sg64
(lp3962
g57
(g78
g59
NtRp3963
(dp3964
g62
(dp3965
sg71
g3959
sg64
(lp3966
g57
(g58
g59
NtRp3967
(dp3968
g62
(dp3969
g70
I1
ssg71
g3963
sg64
(lp3970
g3826
(S's\x08\x00\x00\x00My Sites'
tRp3971
asbasbasbag57
(g73
g59
NtRp3972
(dp3973
g62
(dp3974
sg71
g3955
sg64
(lp3975
g57
(g78
g59
NtRp3976
(dp3977
g62
(dp3978
sg71
g3972
sg64
(lp3979
g57
(g58
g59
NtRp3980
(dp3981
g62
(dp3982
g70
I1
ssg71
g3976
sg64
(lp3983
I00
asbasbasbag57
(g73
g59
NtRp3984
(dp3985
g62
(dp3986
sg71
g3955
sg64
(lp3987
g57
(g78
g59
NtRp3988
(dp3989
g62
(dp3990
sg71
g3984
sg64
(lp3991
g57
(g58
g59
NtRp3992
(dp3993
g62
(dp3994
g70
I1
ssg71
g3988
sg64
(lp3995
S'/admin/default/site'
p3996
asbasbasbasbasbasbasbag57
(g73
g59
NtRp3997
(dp3998
g62
(dp3999
sg71
g3939
sg64
(lp4000
g57
(g78
g59
NtRp4001
(dp4002
g62
(dp4003
sg71
g3997
sg64
(lp4004
g57
(g58
g59
NtRp4005
(dp4006
g62
(dp4007
g70
I2
ssg71
g4001
sg64
(lp4008
g57
(g66
g59
NtRp4009
(dp4010
g62
(dp4011
g70
I1
ssg71
Nsg64
(lp4012
g57
(g73
g59
NtRp4013
(dp4014
g62
(dp4015
sg71
g4009
sg64
(lp4016
g57
(g78
g59
NtRp4017
(dp4018
g62
(dp4019
sg71
g4013
sg64
(lp4020
g57
(g58
g59
NtRp4021
(dp4022
g62
(dp4023
g70
I1
ssg71
g4017
sg64
(lp4024
g3826
(S's\x08\x00\x00\x00This App'
tRp4025
asbasbasbag57
(g73
g59
NtRp4026
(dp4027
g62
(dp4028
sg71
g4009
sg64
(lp4029
g57
(g78
g59
NtRp4030
(dp4031
g62
(dp4032
sg71
g4026
sg64
(lp4033
g57
(g58
g59
NtRp4034
(dp4035
g62
(dp4036
g70
I1
ssg71
g4030
sg64
(lp4037
I00
asbasbasbag57
(g73
g59
NtRp4038
(dp4039
g62
(dp4040
sg71
g4009
sg64
(lp4041
g57
(g78
g59
NtRp4042
(dp4043
g62
(dp4044
sg71
g4038
sg64
(lp4045
g57
(g58
g59
NtRp4046
(dp4047
g62
(dp4048
g70
I1
ssg71
g4042
sg64
(lp4049
S'/admin/default/design/welcome'
p4050
asbasbasbag57
(g73
g59
NtRp4051
(dp4052
g62
(dp4053
sg71
g4009
sg64
(lp4054
g57
(g78
g59
NtRp4055
(dp4056
g62
(dp4057
sg71
g4051
sg64
(lp4058
g57
(g58
g59
NtRp4059
(dp4060
g62
(dp4061
g70
I1
ssg71
g4055
sg64
(lp4062
(lp4063
(g3826
(S's\n\x00\x00\x00Controller'
tRp4064
I00
S'/admin/default/edit/welcome/controllers/webrtc.py'
tp4065
a(g3826
(S's\x04\x00\x00\x00View'
tRp4066
I00
S'/admin/default/edit/welcome/views/webrtc/student.html'
tp4067
a(g3826
(S's\x06\x00\x00\x00Layout'
tRp4068
I00
S'/admin/default/edit/welcome/views/layout.html'
tp4069
a(g3826
(S's\n\x00\x00\x00Stylesheet'
tRp4070
I00
S'/admin/default/edit/welcome/static/css/web2py.css'
tp4071
a(g3826
(S's\x08\x00\x00\x00DB Model'
tRp4072
I00
S'/admin/default/edit/welcome/models/db.py'
tp4073
a(g3826
(S's\n\x00\x00\x00Menu Model'
tRp4074
I00
S'/admin/default/edit/welcome/models/menu.py'
tp4075
a(g3826
(S's\x08\x00\x00\x00Database'
tRp4076
I00
S'/welcome/appadmin/index'
tp4077
a(g3826
(S's\x06\x00\x00\x00Errors'
tRp4078
I00
S'/admin/default/errors/welcome'
tp4079
a(g3826
(S's\x05\x00\x00\x00About'
tRp4080
I00
S'/admin/default/about/welcome'
tp4081
aasbasbasbasbasbasbasbag57
(g73
g59
NtRp4082
(dp4083
g62
(dp4084
sg71
g3939
sg64
(lp4085
g57
(g78
g59
NtRp4086
(dp4087
g62
(dp4088
sg71
g4082
sg64
(lp4089
g57
(g58
g59
NtRp4090
(dp4091
g62
(dp4092
g70
I2
ssg71
g4086
sg64
(lp4093
g57
(g66
g59
NtRp4094
(dp4095
g62
(dp4096
g70
I1
ssg71
Nsg64
(lp4097
g57
(g73
g59
NtRp4098
(dp4099
g62
(dp4100
sg71
g4094
sg64
(lp4101
g57
(g78
g59
NtRp4102
(dp4103
g62
(dp4104
sg71
g4098
sg64
(lp4105
g57
(g58
g59
NtRp4106
(dp4107
g62
(dp4108
g70
I1
ssg71
g4102
sg64
(lp4109
S'web2py.com'
p4110
asbasbasbag57
(g73
g59
NtRp4111
(dp4112
g62
(dp4113
sg71
g4094
sg64
(lp4114
g57
(g78
g59
NtRp4115
(dp4116
g62
(dp4117
sg71
g4111
sg64
(lp4118
g57
(g58
g59
NtRp4119
(dp4120
g62
(dp4121
g70
I1
ssg71
g4115
sg64
(lp4122
I00
asbasbasbag57
(g73
g59
NtRp4123
(dp4124
g62
(dp4125
sg71
g4094
sg64
(lp4126
g57
(g78
g59
NtRp4127
(dp4128
g62
(dp4129
sg71
g4123
sg64
(lp4130
g57
(g58
g59
NtRp4131
(dp4132
g62
(dp4133
g70
I1
ssg71
g4127
sg64
(lp4134
S'http://www.web2py.com'
p4135
asbasbasbag57
(g73
g59
NtRp4136
(dp4137
g62
(dp4138
sg71
g4094
sg64
(lp4139
g57
(g78
g59
NtRp4140
(dp4141
g62
(dp4142
sg71
g4136
sg64
(lp4143
g57
(g58
g59
NtRp4144
(dp4145
g62
(dp4146
g70
I1
ssg71
g4140
sg64
(lp4147
(lp4148
(g3826
(S's\x08\x00\x00\x00Download'
tRp4149
I00
S'http://www.web2py.com/examples/default/download'
p4150
tp4151
a(g3826
(S's\x07\x00\x00\x00Support'
tRp4152
I00
S'http://www.web2py.com/examples/default/support'
p4153
tp4154
a(g3826
(S's\x04\x00\x00\x00Demo'
tRp4155
I00
S'http://web2py.com/demo_admin'
p4156
tp4157
a(g3826
(S's\x0e\x00\x00\x00Quick Examples'
tRp4158
I00
S'http://web2py.com/examples/default/examples'
p4159
tp4160
a(g3826
(S's\x03\x00\x00\x00FAQ'
tRp4161
I00
S'http://web2py.com/AlterEgo'
p4162
tp4163
a(g3826
(S's\x06\x00\x00\x00Videos'
tRp4164
I00
S'http://www.web2py.com/examples/default/videos/'
p4165
tp4166
a(g3826
(S's\x11\x00\x00\x00Free Applications'
tRp4167
I00
S'http://web2py.com/appliances'
p4168
tp4169
a(g3826
(S's\x07\x00\x00\x00Plugins'
tRp4170
I00
S'http://web2py.com/plugins'
p4171
tp4172
a(g3826
(S's\x07\x00\x00\x00Layouts'
tRp4173
I00
S'http://web2py.com/layouts'
p4174
tp4175
a(g3826
(S's\x07\x00\x00\x00Recipes'
tRp4176
I00
S'http://web2pyslices.com/'
p4177
tp4178
a(g3826
(S's\x08\x00\x00\x00Semantic'
tRp4179
I00
S'http://web2py.com/semantic'
p4180
tp4181
aasbasbasbasbasbasbasbag57
(g73
g59
NtRp4182
(dp4183
g62
(dp4184
sg71
g3939
sg64
(lp4185
g57
(g78
g59
NtRp4186
(dp4187
g62
(dp4188
sg71
g4182
sg64
(lp4189
g57
(g58
g59
NtRp4190
(dp4191
g62
(dp4192
g70
I2
ssg71
g4186
sg64
(lp4193
g57
(g66
g59
NtRp4194
(dp4195
g62
(dp4196
g70
I1
ssg71
Nsg64
(lp4197
g57
(g73
g59
NtRp4198
(dp4199
g62
(dp4200
sg71
g4194
sg64
(lp4201
g57
(g78
g59
NtRp4202
(dp4203
g62
(dp4204
sg71
g4198
sg64
(lp4205
g57
(g58
g59
NtRp4206
(dp4207
g62
(dp4208
g70
I1
ssg71
g4202
sg64
(lp4209
g3826
(S's\r\x00\x00\x00Documentation'
tRp4210
asbasbasbag57
(g73
g59
NtRp4211
(dp4212
g62
(dp4213
sg71
g4194
sg64
(lp4214
g57
(g78
g59
NtRp4215
(dp4216
g62
(dp4217
sg71
g4211
sg64
(lp4218
g57
(g58
g59
NtRp4219
(dp4220
g62
(dp4221
g70
I1
ssg71
g4215
sg64
(lp4222
I00
asbasbasbag57
(g73
g59
NtRp4223
(dp4224
g62
(dp4225
sg71
g4194
sg64
(lp4226
g57
(g78
g59
NtRp4227
(dp4228
g62
(dp4229
sg71
g4223
sg64
(lp4230
g57
(g58
g59
NtRp4231
(dp4232
g62
(dp4233
g70
I1
ssg71
g4227
sg64
(lp4234
S'http://www.web2py.com/book'
p4235
asbasbasbag57
(g73
g59
NtRp4236
(dp4237
g62
(dp4238
sg71
g4194
sg64
(lp4239
g57
(g78
g59
NtRp4240
(dp4241
g62
(dp4242
sg71
g4236
sg64
(lp4243
g57
(g58
g59
NtRp4244
(dp4245
g62
(dp4246
g70
I1
ssg71
g4240
sg64
(lp4247
(lp4248
(g3826
(S's\x07\x00\x00\x00Preface'
tRp4249
I00
S'http://www.web2py.com/book/default/chapter/00'
p4250
tp4251
a(g3826
(S's\x0c\x00\x00\x00Introduction'
tRp4252
I00
S'http://www.web2py.com/book/default/chapter/01'
p4253
tp4254
a(g3826
(S's\x06\x00\x00\x00Python'
tRp4255
I00
S'http://www.web2py.com/book/default/chapter/02'
p4256
tp4257
a(g3826
(S's\x08\x00\x00\x00Overview'
tRp4258
I00
S'http://www.web2py.com/book/default/chapter/03'
p4259
tp4260
a(g3826
(S's\x08\x00\x00\x00The Core'
tRp4261
I00
S'http://www.web2py.com/book/default/chapter/04'
p4262
tp4263
a(g3826
(S's\t\x00\x00\x00The Views'
tRp4264
I00
S'http://www.web2py.com/book/default/chapter/05'
p4265
tp4266
a(g3826
(S's\x08\x00\x00\x00Database'
tRp4267
I00
S'http://www.web2py.com/book/default/chapter/06'
p4268
tp4269
a(g3826
(S's\x14\x00\x00\x00Forms and Validators'
tRp4270
I00
S'http://www.web2py.com/book/default/chapter/07'
p4271
tp4272
a(g3826
(S's\r\x00\x00\x00Email and SMS'
tRp4273
I00
S'http://www.web2py.com/book/default/chapter/08'
p4274
tp4275
a(g3826
(S's\x0e\x00\x00\x00Access Control'
tRp4276
I00
S'http://www.web2py.com/book/default/chapter/09'
p4277
tp4278
a(g3826
(S's\x08\x00\x00\x00Services'
tRp4279
I00
S'http://www.web2py.com/book/default/chapter/10'
p4280
tp4281
a(g3826
(S's\x0c\x00\x00\x00Ajax Recipes'
tRp4282
I00
S'http://www.web2py.com/book/default/chapter/11'
p4283
tp4284
a(g3826
(S's\x16\x00\x00\x00Components and Plugins'
tRp4285
I00
S'http://www.web2py.com/book/default/chapter/12'
p4286
tp4287
a(g3826
(S's\x12\x00\x00\x00Deployment Recipes'
tRp4288
I00
S'http://www.web2py.com/book/default/chapter/13'
p4289
tp4290
a(g3826
(S's\r\x00\x00\x00Other Recipes'
tRp4291
I00
S'http://www.web2py.com/book/default/chapter/14'
p4292
tp4293
a(g3826
(S's\r\x00\x00\x00Buy this book'
tRp4294
I00
S'http://stores.lulu.com/web2py'
p4295
tp4296
aasbasbasbasbasbasbasbag57
(g73
g59
NtRp4297
(dp4298
g62
(dp4299
sg71
g3939
sg64
(lp4300
g57
(g78
g59
NtRp4301
(dp4302
g62
(dp4303
sg71
g4297
sg64
(lp4304
g57
(g58
g59
NtRp4305
(dp4306
g62
(dp4307
g70
I2
ssg71
g4301
sg64
(lp4308
g57
(g66
g59
NtRp4309
(dp4310
g62
(dp4311
g70
I1
ssg71
Nsg64
(lp4312
g57
(g73
g59
NtRp4313
(dp4314
g62
(dp4315
sg71
g4309
sg64
(lp4316
g57
(g78
g59
NtRp4317
(dp4318
g62
(dp4319
sg71
g4313
sg64
(lp4320
g57
(g58
g59
NtRp4321
(dp4322
g62
(dp4323
g70
I1
ssg71
g4317
sg64
(lp4324
g3826
(S's\t\x00\x00\x00Community'
tRp4325
asbasbasbag57
(g73
g59
NtRp4326
(dp4327
g62
(dp4328
sg71
g4309
sg64
(lp4329
g57
(g78
g59
NtRp4330
(dp4331
g62
(dp4332
sg71
g4326
sg64
(lp4333
g57
(g58
g59
NtRp4334
(dp4335
g62
(dp4336
g70
I1
ssg71
g4330
sg64
(lp4337
I00
asbasbasbag57
(g73
g59
NtRp4338
(dp4339
g62
(dp4340
sg71
g4309
sg64
(lp4341
g57
(g78
g59
NtRp4342
(dp4343
g62
(dp4344
sg71
g4338
sg64
(lp4345
g57
(g58
g59
NtRp4346
(dp4347
g62
(dp4348
g70
I1
ssg71
g4342
sg64
(lp4349
Nasbasbasbag57
(g73
g59
NtRp4350
(dp4351
g62
(dp4352
sg71
g4309
sg64
(lp4353
g57
(g78
g59
NtRp4354
(dp4355
g62
(dp4356
sg71
g4350
sg64
(lp4357
g57
(g58
g59
NtRp4358
(dp4359
g62
(dp4360
g70
I1
ssg71
g4354
sg64
(lp4361
(lp4362
(g3826
(S's\x06\x00\x00\x00Groups'
tRp4363
I00
S'http://www.web2py.com/examples/default/usergroups'
p4364
tp4365
a(g3826
(S's\x07\x00\x00\x00Twitter'
tRp4366
I00
S'http://twitter.com/web2py'
p4367
tp4368
a(g3826
(S's\t\x00\x00\x00Live Chat'
tRp4369
I00
S'http://webchat.freenode.net/?channels=web2py'
p4370
tp4371
aasbasbasbasbasbasbasbag57
(g73
g59
NtRp4372
(dp4373
g62
(dp4374
sg71
g3939
sg64
(lp4375
g57
(g78
g59
NtRp4376
(dp4377
g62
(dp4378
sg71
g4372
sg64
(lp4379
g57
(g58
g59
NtRp4380
(dp4381
g62
(dp4382
g70
I2
ssg71
g4376
sg64
(lp4383
g57
(g66
g59
NtRp4384
(dp4385
g62
(dp4386
g70
I1
ssg71
Nsg64
(lp4387
g57
(g73
g59
NtRp4388
(dp4389
g62
(dp4390
sg71
g4384
sg64
(lp4391
g57
(g78
g59
NtRp4392
(dp4393
g62
(dp4394
sg71
g4388
sg64
(lp4395
g57
(g58
g59
NtRp4396
(dp4397
g62
(dp4398
g70
I1
ssg71
g4392
sg64
(lp4399
g3826
(S's\x07\x00\x00\x00Plugins'
tRp4400
asbasbasbag57
(g73
g59
NtRp4401
(dp4402
g62
(dp4403
sg71
g4384
sg64
(lp4404
g57
(g78
g59
NtRp4405
(dp4406
g62
(dp4407
sg71
g4401
sg64
(lp4408
g57
(g58
g59
NtRp4409
(dp4410
g62
(dp4411
g70
I1
ssg71
g4405
sg64
(lp4412
I00
asbasbasbag57
(g73
g59
NtRp4413
(dp4414
g62
(dp4415
sg71
g4384
sg64
(lp4416
g57
(g78
g59
NtRp4417
(dp4418
g62
(dp4419
sg71
g4413
sg64
(lp4420
g57
(g58
g59
NtRp4421
(dp4422
g62
(dp4423
g70
I1
ssg71
g4417
sg64
(lp4424
Nasbasbasbag57
(g73
g59
NtRp4425
(dp4426
g62
(dp4427
sg71
g4384
sg64
(lp4428
g57
(g78
g59
NtRp4429
(dp4430
g62
(dp4431
sg71
g4425
sg64
(lp4432
g57
(g58
g59
NtRp4433
(dp4434
g62
(dp4435
g70
I1
ssg71
g4429
sg64
(lp4436
(lp4437
(S'plugin_wiki'
p4438
I00
S'http://web2py.com/examples/default/download'
p4439
tp4440
a(g3826
(S's\r\x00\x00\x00Other Plugins'
tRp4441
I00
g4171
tp4442
a(g3826
(S's\x0e\x00\x00\x00Layout Plugins'
tRp4443
I00
g4174
tp4444
aasbasbasbasbasbasbasbasbasbasbasbasbasbasbasbasbasbasbasbag57
(g73
g59
NtRp4445
(dp4446
g62
(dp4447
sg71
g3292
sg64
(lp4448
g57
(g78
g59
NtRp4449
(dp4450
g62
(dp4451
g82
g83
ssg71
g4445
sg64
(lp4452
S'meta'
p4453
asbag57
(g78
g59
NtRp4454
(dp4455
g62
(dp4456
g89
g90
ssg71
g4445
sg64
(lp4457
S':'
asbag57
(g78
g59
NtRp4458
(dp4459
g62
(dp4460
sg71
g4445
sg64
(lp4461
g57
(g58
g59
NtRp4462
(dp4463
g62
(dp4464
g70
I5
ssg71
g4458
sg64
(lp4465
g57
(g66
g59
NtRp4466
(dp4467
g62
(dp4468
g70
I4
ssg71
Nsg64
(lp4469
g57
(g73
g59
NtRp4470
(dp4471
g62
(dp4472
sg71
g4466
sg64
(lp4473
g57
(g78
g59
NtRp4474
(dp4475
g62
(dp4476
g82
g83
ssg71
g4470
sg64
(lp4477
S'author'
p4478
asbag57
(g78
g59
NtRp4479
(dp4480
g62
(dp4481
g89
g90
ssg71
g4470
sg64
(lp4482
S':'
asbag57
(g78
g59
NtRp4483
(dp4484
g62
(dp4485
sg71
g4470
sg64
(lp4486
g57
(g58
g59
NtRp4487
(dp4488
g62
(dp4489
g70
I4
ssg71
g4483
sg64
(lp4490
S'Your Name <you@example.com>'
p4491
asbasbasbag57
(g73
g59
NtRp4492
(dp4493
g62
(dp4494
sg71
g4466
sg64
(lp4495
g57
(g78
g59
NtRp4496
(dp4497
g62
(dp4498
g82
g83
ssg71
g4492
sg64
(lp4499
S'description'
p4500
asbag57
(g78
g59
NtRp4501
(dp4502
g62
(dp4503
g89
g90
ssg71
g4492
sg64
(lp4504
S':'
asbag57
(g78
g59
NtRp4505
(dp4506
g62
(dp4507
sg71
g4492
sg64
(lp4508
g57
(g58
g59
NtRp4509
(dp4510
g62
(dp4511
g70
I4
ssg71
g4505
sg64
(lp4512
S'a cool new app'
p4513
asbasbasbag57
(g73
g59
NtRp4514
(dp4515
g62
(dp4516
sg71
g4466
sg64
(lp4517
g57
(g78
g59
NtRp4518
(dp4519
g62
(dp4520
g82
g83
ssg71
g4514
sg64
(lp4521
S'generator'
p4522
asbag57
(g78
g59
NtRp4523
(dp4524
g62
(dp4525
g89
g90
ssg71
g4514
sg64
(lp4526
S':'
asbag57
(g78
g59
NtRp4527
(dp4528
g62
(dp4529
sg71
g4514
sg64
(lp4530
g57
(g58
g59
NtRp4531
(dp4532
g62
(dp4533
g70
I4
ssg71
g4527
sg64
(lp4534
S'Web2py Web Framework'
p4535
asbasbasbag57
(g73
g59
NtRp4536
(dp4537
g62
(dp4538
sg71
g4466
sg64
(lp4539
g57
(g78
g59
NtRp4540
(dp4541
g62
(dp4542
g82
g83
ssg71
g4536
sg64
(lp4543
S'keywords'
p4544
asbag57
(g78
g59
NtRp4545
(dp4546
g62
(dp4547
g89
g90
ssg71
g4536
sg64
(lp4548
S':'
asbag57
(g78
g59
NtRp4549
(dp4550
g62
(dp4551
sg71
g4536
sg64
(lp4552
g57
(g58
g59
NtRp4553
(dp4554
g62
(dp4555
g70
I4
ssg71
g4549
sg64
(lp4556
S'web2py, python, framework'
p4557
asbasbasbasbasbasbasbag57
(g73
g59
NtRp4558
(dp4559
g62
(dp4560
sg71
g3292
sg64
(lp4561
g57
(g78
g59
NtRp4562
(dp4563
g62
(dp4564
g82
g83
ssg71
g4558
sg64
(lp4565
S'models_to_run'
p4566
asbag57
(g78
g59
NtRp4567
(dp4568
g62
(dp4569
g89
g90
ssg71
g4558
sg64
(lp4570
S':'
asbag57
(g78
g59
NtRp4571
(dp4572
g62
(dp4573
sg71
g4558
sg64
(lp4574
g57
(g58
g59
NtRp4575
(dp4576
g62
(dp4577
g70
I5
ssg71
g4571
sg64
(lp4578
g57
(g66
g59
NtRp4579
(dp4580
g62
(dp4581
g70
I4
ssg71
Nsg64
(lp4582
g57
(g73
g59
NtRp4583
(dp4584
g62
(dp4585
sg71
g4579
sg64
(lp4586
g57
(g78
g59
NtRp4587
(dp4588
g62
(dp4589
sg71
g4583
sg64
(lp4590
g57
(g58
g59
NtRp4591
(dp4592
g62
(dp4593
g70
I4
ssg71
g4587
sg64
(lp4594
S'^\\w+\\.py$'
p4595
asbasbasbag57
(g73
g59
NtRp4596
(dp4597
g62
(dp4598
sg71
g4579
sg64
(lp4599
g57
(g78
g59
NtRp4600
(dp4601
g62
(dp4602
sg71
g4596
sg64
(lp4603
g57
(g58
g59
NtRp4604
(dp4605
g62
(dp4606
g70
I4
ssg71
g4600
sg64
(lp4607
S'^webrtc/\\w+\\.py$'
p4608
asbasbasbag57
(g73
g59
NtRp4609
(dp4610
g62
(dp4611
sg71
g4579
sg64
(lp4612
g57
(g78
g59
NtRp4613
(dp4614
g62
(dp4615
sg71
g4609
sg64
(lp4616
g57
(g58
g59
NtRp4617
(dp4618
g62
(dp4619
g70
I4
ssg71
g4613
sg64
(lp4620
S'^webrtc/student/\\w+\\.py$'
p4621
asbasbasbasbasbasbasbag57
(g73
g59
NtRp4622
(dp4623
g62
(dp4624
sg71
g3292
sg64
(lp4625
g57
(g78
g59
NtRp4626
(dp4627
g62
(dp4628
g82
g83
ssg71
g4622
sg64
(lp4629
S'postprocessing'
p4630
asbag57
(g78
g59
NtRp4631
(dp4632
g62
(dp4633
g89
g90
ssg71
g4622
sg64
(lp4634
S':'
asbag57
(g78
g59
NtRp4635
(dp4636
g62
(dp4637
sg71
g4622
sg64
(lp4638
g57
(g58
g59
NtRp4639
(dp4640
g62
(dp4641
g70
I5
ssg71
g4635
sg64
(lp4642
g57
(g66
g59
NtRp4643
(dp4644
g62
(dp4645
g70
I4
ssg71
Nsg64
(lp4646
sbasbasbasbag57
(g73
g59
NtRp4647
(dp4648
g62
(dp4649
sg71
g3292
sg64
(lp4650
g57
(g78
g59
NtRp4651
(dp4652
g62
(dp4653
g82
g83
ssg71
g4647
sg64
(lp4654
S'session_cookie_expires'
p4655
asbag57
(g78
g59
NtRp4656
(dp4657
g62
(dp4658
g89
g90
ssg71
g4647
sg64
(lp4659
S':'
asbag57
(g78
g59
NtRp4660
(dp4661
g62
(dp4662
sg71
g4647
sg64
(lp4663
g57
(g58
g59
NtRp4664
(dp4665
g62
(dp4666
g70
I5
ssg71
g4660
sg64
(lp4667
S'None'
p4668
asbasbasbag57
(g73
g59
NtRp4669
(dp4670
g62
(dp4671
sg71
g3292
sg64
(lp4672
g57
(g78
g59
NtRp4673
(dp4674
g62
(dp4675
g82
g83
ssg71
g4669
sg64
(lp4676
S'session_data_name'
p4677
asbag57
(g78
g59
NtRp4678
(dp4679
g62
(dp4680
g89
g90
ssg71
g4669
sg64
(lp4681
S':'
asbag57
(g78
g59
NtRp4682
(dp4683
g62
(dp4684
sg71
g4669
sg64
(lp4685
g57
(g58
g59
NtRp4686
(dp4687
g62
(dp4688
g70
I5
ssg71
g4682
sg64
(lp4689
S'session_data_welcome'
p4690
asbasbasbag57
(g73
g59
NtRp4691
(dp4692
g62
(dp4693
sg71
g3292
sg64
(lp4694
g57
(g78
g59
NtRp4695
(dp4696
g62
(dp4697
g82
g83
ssg71
g4691
sg64
(lp4698
S'session_file'
p4699
asbag57
(g78
g59
NtRp4700
(dp4701
g62
(dp4702
g89
g90
ssg71
g4691
sg64
(lp4703
S':'
asbag57
(g78
g59
NtRp4704
(dp4705
g62
(dp4706
sg71
g4691
sg64
(lp4707
g57
(g58
g59
NtRp4708
(dp4709
g62
(dp4710
g70
I5
ssg71
g4704
sg64
(lp4711
S"<open file 'D:\\Work\\webRTC\\web2py\\applications\\welcome\\sessions\\127.0.0.1-e6406ed3-36fc-4bf4-81da-8304a3548287', mode 'rb+' at 0x0000000004E2D150>"
p4712
asbasbasbag57
(g73
g59
NtRp4713
(dp4714
g62
(dp4715
sg71
g3292
sg64
(lp4716
g57
(g78
g59
NtRp4717
(dp4718
g62
(dp4719
g82
g83
ssg71
g4713
sg64
(lp4720
S'session_filename'
p4721
asbag57
(g78
g59
NtRp4722
(dp4723
g62
(dp4724
g89
g90
ssg71
g4713
sg64
(lp4725
S':'
asbag57
(g78
g59
NtRp4726
(dp4727
g62
(dp4728
sg71
g4713
sg64
(lp4729
g57
(g58
g59
NtRp4730
(dp4731
g62
(dp4732
g70
I5
ssg71
g4726
sg64
(lp4733
S'D:\\Work\\webRTC\\web2py\\applications\\welcome\\sessions\\127.0.0.1-e6406ed3-36fc-4bf4-81da-8304a3548287'
p4734
asbasbasbag57
(g73
g59
NtRp4735
(dp4736
g62
(dp4737
sg71
g3292
sg64
(lp4738
g57
(g78
g59
NtRp4739
(dp4740
g62
(dp4741
g82
g83
ssg71
g4735
sg64
(lp4742
S'session_id'
p4743
asbag57
(g78
g59
NtRp4744
(dp4745
g62
(dp4746
g89
g90
ssg71
g4735
sg64
(lp4747
S':'
asbag57
(g78
g59
NtRp4748
(dp4749
g62
(dp4750
sg71
g4735
sg64
(lp4751
g57
(g58
g59
NtRp4752
(dp4753
g62
(dp4754
g70
I5
ssg71
g4748
sg64
(lp4755
g488
asbasbasbag57
(g73
g59
NtRp4756
(dp4757
g62
(dp4758
sg71
g3292
sg64
(lp4759
g57
(g78
g59
NtRp4760
(dp4761
g62
(dp4762
g82
g83
ssg71
g4756
sg64
(lp4763
S'session_id_name'
p4764
asbag57
(g78
g59
NtRp4765
(dp4766
g62
(dp4767
g89
g90
ssg71
g4756
sg64
(lp4768
S':'
asbag57
(g78
g59
NtRp4769
(dp4770
g62
(dp4771
sg71
g4756
sg64
(lp4772
g57
(g58
g59
NtRp4773
(dp4774
g62
(dp4775
g70
I5
ssg71
g4769
sg64
(lp4776
g3349
asbasbasbag57
(g73
g59
NtRp4777
(dp4778
g62
(dp4779
sg71
g3292
sg64
(lp4780
g57
(g78
g59
NtRp4781
(dp4782
g62
(dp4783
g82
g83
ssg71
g4777
sg64
(lp4784
S'session_locked'
p4785
asbag57
(g78
g59
NtRp4786
(dp4787
g62
(dp4788
g89
g90
ssg71
g4777
sg64
(lp4789
S':'
asbag57
(g78
g59
NtRp4790
(dp4791
g62
(dp4792
sg71
g4777
sg64
(lp4793
g57
(g58
g59
NtRp4794
(dp4795
g62
(dp4796
g70
I5
ssg71
g4790
sg64
(lp4797
g1657
asbasbasbag57
(g73
g59
NtRp4798
(dp4799
g62
(dp4800
sg71
g3292
sg64
(lp4801
g57
(g78
g59
NtRp4802
(dp4803
g62
(dp4804
g82
g83
ssg71
g4798
sg64
(lp4805
S'session_new'
p4806
asbag57
(g78
g59
NtRp4807
(dp4808
g62
(dp4809
g89
g90
ssg71
g4798
sg64
(lp4810
S':'
asbag57
(g78
g59
NtRp4811
(dp4812
g62
(dp4813
sg71
g4798
sg64
(lp4814
g57
(g58
g59
NtRp4815
(dp4816
g62
(dp4817
g70
I5
ssg71
g4811
sg64
(lp4818
g100
asbasbasbag57
(g73
g59
NtRp4819
(dp4820
g62
(dp4821
sg71
g3292
sg64
(lp4822
g57
(g78
g59
NtRp4823
(dp4824
g62
(dp4825
g82
g83
ssg71
g4819
sg64
(lp4826
S'session_storage_type'
p4827
asbag57
(g78
g59
NtRp4828
(dp4829
g62
(dp4830
g89
g90
ssg71
g4819
sg64
(lp4831
S':'
asbag57
(g78
g59
NtRp4832
(dp4833
g62
(dp4834
sg71
g4819
sg64
(lp4835
g57
(g58
g59
NtRp4836
(dp4837
g62
(dp4838
g70
I5
ssg71
g4832
sg64
(lp4839
g3145
asbasbasbag57
(g73
g59
NtRp4840
(dp4841
g62
(dp4842
sg71
g3292
sg64
(lp4843
g57
(g78
g59
NtRp4844
(dp4845
g62
(dp4846
g82
g83
ssg71
g4840
sg64
(lp4847
S'status'
p4848
asbag57
(g78
g59
NtRp4849
(dp4850
g62
(dp4851
g89
g90
ssg71
g4840
sg64
(lp4852
S':'
asbag57
(g78
g59
NtRp4853
(dp4854
g62
(dp4855
sg71
g4840
sg64
(lp4856
g57
(g58
g59
NtRp4857
(dp4858
g62
(dp4859
g70
I5
ssg71
g4853
sg64
(lp4860
S'200'
p4861
asbasbasbag57
(g73
g59
NtRp4862
(dp4863
g62
(dp4864
sg71
g3292
sg64
(lp4865
g57
(g78
g59
NtRp4866
(dp4867
g62
(dp4868
g82
g83
ssg71
g4862
sg64
(lp4869
S'subtitle'
p4870
asbag57
(g78
g59
NtRp4871
(dp4872
g62
(dp4873
g89
g90
ssg71
g4862
sg64
(lp4874
S':'
asbag57
(g78
g59
NtRp4875
(dp4876
g62
(dp4877
sg71
g4862
sg64
(lp4878
g57
(g58
g59
NtRp4879
(dp4880
g62
(dp4881
g70
I5
ssg71
g4875
sg64
(lp4882
g3826
(S's\r\x00\x00\x00customize me!'
tRp4883
asbasbasbag57
(g73
g59
NtRp4884
(dp4885
g62
(dp4886
sg71
g3292
sg64
(lp4887
g57
(g78
g59
NtRp4888
(dp4889
g62
(dp4890
g82
g83
ssg71
g4884
sg64
(lp4891
S'title'
p4892
asbag57
(g78
g59
NtRp4893
(dp4894
g62
(dp4895
g89
g90
ssg71
g4884
sg64
(lp4896
S':'
asbag57
(g78
g59
NtRp4897
(dp4898
g62
(dp4899
sg71
g4884
sg64
(lp4900
g57
(g58
g59
NtRp4901
(dp4902
g62
(dp4903
g70
I5
ssg71
g4897
sg64
(lp4904
S'Welcome'
p4905
asbasbasbag57
(g73
g59
NtRp4906
(dp4907
g62
(dp4908
sg71
g3292
sg64
(lp4909
g57
(g78
g59
NtRp4910
(dp4911
g62
(dp4912
g82
g83
ssg71
g4906
sg64
(lp4913
S'view'
p4914
asbag57
(g78
g59
NtRp4915
(dp4916
g62
(dp4917
g89
g90
ssg71
g4906
sg64
(lp4918
S':'
asbag57
(g78
g59
NtRp4919
(dp4920
g62
(dp4921
sg71
g4906
sg64
(lp4922
g57
(g58
g59
NtRp4923
(dp4924
g62
(dp4925
g70
I5
ssg71
g4919
sg64
(lp4926
S'webrtc/student.html'
p4927
asbasbasbasbasbsS'locals'
p4928
(dp4929
S'base64'
p4930
S"<module 'base64' from 'd:\\python27\\lib\\base64.pyc'>"
p4931
sS'item'
p4932
S"<Row {'access_token': 'NzE1ZmQ3'}>"
p4933
sS'random'
p4934
S"<module 'random' from 'd:\\python27\\lib\\random.pyc'>"
p4935
sS'relate_keys_db'
p4936
S'<Rows (2)>'
p4937
sS'sha'
p4938
S"<module 'sha' from 'd:\\python27\\lib\\sha.pyc'>"
p4939
sS'relate_keys'
p4940
S"['YjVmOTM0', 'NzE1ZmQ3']"
p4941
sS'key_gen'
p4942
S"'YzdiMjlj'"
p4943
sS'id'
p4944
S'62'
p4945
sssS'traceback'
p4946
S'Traceback (most recent call last):\n  File "D:\\Work\\webRTC\\web2py\\gluon\\restricted.py", line 212, in restricted\n    exec ccode in environment\n  File "D:\\Work\\webRTC\\web2py\\applications\\welcome\\controllers/webrtc.py", line 25, in <module>\n  File "D:\\Work\\webRTC\\web2py\\gluon\\globals.py", line 193, in <lambda>\n    self._caller = lambda f: f()\n  File "D:\\Work\\webRTC\\web2py\\applications\\welcome\\controllers/webrtc.py", line 16, in student\n    session.flash(str(relate_keys))\nTypeError: \'NoneType\' object is not callable\n'
p4947
s.