(dp1
S'output'
p2
S"<type 'exceptions.NameError'> name 'dest' is not defined"
p3
sS'layer'
p4
S'D:\\Work\\webRTC\\web2py\\applications\\welcome\\views\\webrtc/index.html'
p5
sS'code'
p6
S'response.write(\'<!DOCTYPE html>\\n<!-- paulirish.com/2008/conditional-stylesheets-vs-css-hacks-answer-neither/ -->\\n<!--[if lt IE 7]><html class="ie ie6 ie-lte9 ie-lte8 ie-lte7 no-js" lang="\', escape=False)\nresponse.write(T.accepted_language or \'en\')\nresponse.write(\'"> <![endif]-->\\n<!--[if IE 7]><html class="ie ie7 ie-lte9 ie-lte8 ie-lte7 no-js" lang="\', escape=False)\nresponse.write(T.accepted_language or \'en\')\nresponse.write(\'"> <![endif]-->\\n<!--[if IE 8]><html class="ie ie8 ie-lte9 ie-lte8 no-js" lang="\', escape=False)\nresponse.write(T.accepted_language or \'en\')\nresponse.write(\'"> <![endif]-->\\n<!--[if IE 9]><html class="ie9 ie-lte9 no-js" lang="\', escape=False)\nresponse.write(T.accepted_language or \'en\')\nresponse.write(\'"> <![endif]-->\\n<!--[if (gt IE 9)|!(IE)]><!--> <html class="no-js" lang="\', escape=False)\nresponse.write(T.accepted_language or \'en\')\nresponse.write(\'"> <!--<![endif]-->\\n<head>\\n  <meta charset="utf-8" />\\n  <!-- www.phpied.com/conditional-comments-block-downloads/ -->\\n  <!-- Always force latest IE rendering engine\\n       (even in intranet) & Chrome Frame\\n       Remove this if you use the .htaccess -->\\n  <!--[if IE]>\\n      <meta http-equiv="X-UA-Compatible" content="IE=edge\', escape=False)\nresponse.write(not request.is_local and \',chrome=1\' or \'\')\nresponse.write(\'">\\n      <![endif]-->\\n\\n  <title>\', escape=False)\nresponse.write(response.title or request.application)\nresponse.write(\'</title>\\n\\n  <!-- http://dev.w3.org/html5/markup/meta.name.html -->\\n  <meta name="application-name" content="\', escape=False)\nresponse.write(request.application)\nresponse.write(\'" />\\n\\n  <!-- Speaking of Google, don\\\'t forget to set your site up:\\n       http://google.com/webmasters -->\\n  <meta name="google-site-verification" content="" />\\n\\n  <!--  Mobile Viewport Fix\\n        j.mp/mobileviewport & davidbcalhoun.com/2010/viewport-metatag\\n        device-width: Occupy full width of the screen in its current orientation\\n        initial-scale = 1.0 retains dimensions instead of zooming out if page height > device height\\n        user-scalable = yes allows the user to zoom in -->\\n  <meta name="viewport" content="width=device-width, initial-scale=1.0" />\\n\\n  <link rel="shortcut icon" href="\', escape=False)\nresponse.write(URL(\'static\',\'images/favicon.ico\'))\nresponse.write(\'" type="image/x-icon">\\n  <link rel="apple-touch-icon" href="\', escape=False)\nresponse.write(URL(\'static\',\'images/favicon.png\'))\nresponse.write(\'">\\n\\n  <!-- All JavaScript at the bottom, except for Modernizr which enables\\n       HTML5 elements & feature detects -->\\n  <script src="\', escape=False)\nresponse.write(URL(\'static\',\'js/modernizr.custom.js\'))\nresponse.write(\'"></script>\\n\\n  <!-- include stylesheets -->\\n  \', escape=False)\nresponse.files.append(URL(\'static\',\'css/web2py.css\'))\nresponse.files.append(URL(\'static\',\'css/bootstrap.min.css\'))\nresponse.files.append(URL(\'static\',\'css/bootstrap-responsive.min.css\'))\nresponse.files.append(URL(\'static\',\'css/web2py_bootstrap.css\'))\nresponse.write(\'\\n\\n  \', escape=False)\nresponse.write(\'<script type="text/javascript"><!--\\n    // These variables are used by the web2py_ajax_init function in web2py_ajax.js (which is loaded below).\\n    var w2p_ajax_confirm_message = "\', escape=False)\nresponse.write(T(\'Are you sure you want to delete this object?\'))\nresponse.write(\'";\\n    var w2p_ajax_date_format = "\', escape=False)\nresponse.write(T(\'%Y-%m-%d\'))\nresponse.write(\'";\\n    var w2p_ajax_datetime_format = "\', escape=False)\nresponse.write(T(\'%Y-%m-%d %H:%M:%S\'))\nresponse.write(\'";\\n    //--></script>\\n\', escape=False)\nresponse.files.insert(0,URL(\'static\',\'js/jquery.js\'))\nresponse.files.insert(1,URL(\'static\',\'css/calendar.css\'))\nresponse.files.insert(2,URL(\'static\',\'js/calendar.js\'))\nresponse.files.insert(3,URL(\'static\',\'js/web2py.js\'))\nresponse.include_meta()\nresponse.include_files()\nresponse.write(\'\\n\', escape=False)\nresponse.write(\'\\n\\n  \', escape=False)\n# using sidebars need to know what sidebar you want to use\nleft_sidebar_enabled = globals().get(\'left_sidebar_enabled\',False)\nright_sidebar_enabled = globals().get(\'right_sidebar_enabled\',False)\nmiddle_columns = {0:\'span12\',1:\'span9\',2:\'span6\'}[\n(left_sidebar_enabled and 1 or 0)+(right_sidebar_enabled and 1 or 0)]\nresponse.write(\'\\n\\n  <!-- uncomment here to load jquery-ui\\n       <link rel="stylesheet" href="http://ajax.googleapis.com/ajax/libs/jqueryui/1.8.16/themes/base/jquery-ui.css" type="text/css" media="all" />\\n       <script src="http://ajax.googleapis.com/ajax/libs/jqueryui/1.8.16/jquery-ui.min.js" type="text/javascript"></script>\\n       uncomment to load jquery-ui //-->\\n  <noscript><link href="\', escape=False)\nresponse.write(URL(\'static\', \'css/web2py_bootstrap_nojs.css\'))\nresponse.write(\'" rel="stylesheet" type="text/css" /></noscript>\\n  \', escape=False)\nresponse.write(\'\\n</head>\\n\\n<body>\\n  <!-- Navbar ================================================== -->\\n  <div class="navbar navbar-inverse navbar-fixed-top">\\n    <div class="flash">\', escape=False)\nresponse.write(response.flash or \'\')\nresponse.write(\'</div>\\n    <div class="navbar-inner">\\n      <div class="container">\\n        <!-- the next tag is necessary for bootstrap menus, do not remove -->\\n        <button type="button" class="btn btn-navbar" data-toggle="collapse" data-target=".nav-collapse">\\n          <span class="icon-bar"></span>\\n          <span class="icon-bar"></span>\\n          <span class="icon-bar"></span>\\n        </button>\\n\\t\', escape=False)\nresponse.write(response.logo or \'\')\nresponse.write(\'\\n        <ul id="navbar" class="nav pull-right">\', escape=False)\nresponse.write(\'auth\' in globals() and auth.navbar(mode="dropdown") or \'\')\nresponse.write(\'</ul>\\n        <div class="nav-collapse">\\n          \', escape=False)\nis_mobile=request.user_agent().is_mobile\nresponse.write(\'\\n          \', escape=False)\nif response.menu:\n    response.write(\'\\n          \', escape=False)\n    response.write(MENU(response.menu, _class=\'mobile-menu nav\' if is_mobile else \'nav\',mobile=is_mobile,li_class=\'dropdown\',ul_class=\'dropdown-menu\'))\n    response.write(\'\\n          \', escape=False)\n    pass\nresponse.write(\'\\n        </div><!--/.nav-collapse -->\\n      </div>\\n    </div>\\n  </div><!--/top navbar -->\\n\\n  <div class="container">\\n    <!-- Masthead ================================================== -->\\n    <header class="mastheader row" id="header">\\n        <div class="span12">\\n            <div class="page-header">\\n                <h1>\\n                    \', escape=False)\nresponse.write(response.title or request.application)\nresponse.write(\'\\n                    <small>\', escape=False)\nresponse.write(response.subtitle or \'\')\nresponse.write(\'</small>\\n                </h1>\\n            </div>\\n        </div>\\n    </header>\\n\\n    <section id="main" class="main row">\\n        \', escape=False)\nif left_sidebar_enabled:\n    response.write(\'\\n        <div class="span3 left-sidebar">\\n            \', escape=False)\n    response.write(\'\\n            <h3>Left Sidebar</h3>\\n            <p></p>\\n            \', escape=False)\n    response.write(\'\\n        </div>\\n        \', escape=False)\n    pass\nresponse.write(\'\\n\\n        <div class="\', escape=False)\nresponse.write(middle_columns)\nresponse.write(\'">\\n            \', escape=False)\nresponse.write(\'\\n            \', escape=False)\nresponse.write(\'\\r\\n<h1>This is the webrtc/index.html template</h1>\\r\\n<video id="local_video" autoplay="autoplay"></video>\\r\\n\\r\\n<video id="remote_video" autoplay="autoplay"></video>\\r\\n<input type="button" onclick = "getConnection()"/>\\r\\n<script>\\r\\n    var isCaller = \', escape=False)\nresponse.write(isCaller)\nresponse.write(\';\\r\\n    var dest = "\', escape=False)\nresponse.write(dest)\nresponse.write(\'"\\r\\n</script>\\r\\n\', escape=False)\nresponse.write(\'\\n            \', escape=False)\nresponse.write(\'\\n        </div>\\n\\n        \', escape=False)\nif right_sidebar_enabled:\n    response.write(\'\\n        <div class="span3">\\n            \', escape=False)\n    response.write(\'\\n            <h3>Right Sidebar</h3>\\n            <p></p>\\n            \', escape=False)\n    response.write(\'\\n        </div>\\n        \', escape=False)\n    pass\nresponse.write(\'\\n    </section><!--/main-->\\n\\n    <!-- Footer ================================================== -->\\n    <div class="row">\\n        <footer class="footer span12" id="footer">\\n            <div class="footer-content">\\n                \', escape=False)\nresponse.write(\' <!-- this is default footer -->\\n                <div class="copyright pull-left">\', escape=False)\nresponse.write(T(\'Copyright\'))\nresponse.write(\' &#169; \', escape=False)\nresponse.write(request.now.year)\nresponse.write(\'</div>\\n                <div id="poweredBy" class="pull-right">\\n                    \', escape=False)\nresponse.write(T(\'Powered by\'))\nresponse.write(\'\\n                    <a href="http://www.web2py.com/">web2py</a>\\n                </div>\\n                \', escape=False)\nresponse.write(\'\\n            </div>\\n        </footer>\\n    </div>\\n\\n  </div> <!-- /container -->\\n\\n  <!-- The javascript =============================================\\n       (Placed at the end of the document so the pages load faster) -->\\n  <script src="\', escape=False)\nresponse.write(URL(\'static\',\'js/bootstrap.min.js\'))\nresponse.write(\'"></script>\\n  <script src="\', escape=False)\nresponse.write(URL(\'static\',\'js/web2py_bootstrap.js\'))\nresponse.write(\'"></script>\\n  <!--[if lt IE 7 ]>\\n      <script src="\', escape=False)\nresponse.write(URL(\'static\',\'js/dd_belatedpng.js\'))\nresponse.write(\'"></script>\\n      <script> DD_belatedPNG.fix(\\\'img, .png_bg\\\'); //fix any <img> or .png_bg background-images </script>\\n      <![endif]-->\\n  \\n  \', escape=False)\nif response.google_analytics_id:\n    response.write(\'\\n  <script src="\', escape=False)\n    response.write(URL(\'static\',\'js/analytics.js\'))\n    response.write(\'"></script>\\n  <script type="text/javascript">\\n  analytics.initialize({\\n    \\\'Google Analytics\\\':{trackingId:\\\'\', escape=False)\n    response.write(response.google_analytics_id)\n    response.write("\'} \\n  });</script>\\n  ", escape=False)\n    pass\nresponse.write(\'\\n  <script src="\', escape=False)\nresponse.write(URL(\'static\',\'js/share.js\',vars=dict(static=URL(\'static\',\'images\'))))\nresponse.write(\'"></script>\\n</body>\\n</html>\\n\\n\', escape=False)'
p7
sS'snapshot'
p8
(dp9
S'exception'
p10
(dp11
S'__hash__'
p12
S"<method-wrapper '__hash__' of exceptions.NameError object>"
p13
sS'__setattr__'
p14
S"<method-wrapper '__setattr__' of exceptions.NameError object>"
p15
sS'__reduce_ex__'
p16
S'<built-in method __reduce_ex__ of exceptions.NameError object>'
p17
sS'__getslice__'
p18
S"<method-wrapper '__getslice__' of exceptions.NameError object>"
p19
sS'__getitem__'
p20
S"<method-wrapper '__getitem__' of exceptions.NameError object>"
p21
sS'__setstate__'
p22
S'<built-in method __setstate__ of exceptions.NameError object>'
p23
sS'__reduce__'
p24
S'<built-in method __reduce__ of exceptions.NameError object>'
p25
sS'__str__'
p26
S"<method-wrapper '__str__' of exceptions.NameError object>"
p27
sS'__format__'
p28
S'<built-in method __format__ of exceptions.NameError object>'
p29
sS'__getattribute__'
p30
S"<method-wrapper '__getattribute__' of exceptions.NameError object>"
p31
sS'__class__'
p32
S"<type 'exceptions.NameError'>"
p33
sS'__unicode__'
p34
S'<built-in method __unicode__ of exceptions.NameError object>'
p35
sS'__delattr__'
p36
S"<method-wrapper '__delattr__' of exceptions.NameError object>"
p37
sS'__subclasshook__'
p38
S'<built-in method __subclasshook__ of type object>'
p39
sS'__repr__'
p40
S"<method-wrapper '__repr__' of exceptions.NameError object>"
p41
sS'__dict__'
p42
S'{}'
p43
sS'args'
p44
S'("name \'dest\' is not defined",)'
p45
sS'__sizeof__'
p46
S'<built-in method __sizeof__ of exceptions.NameError object>'
p47
sS'__doc__'
p48
S"'Name not found globally.'"
p49
sS'__init__'
p50
S"<method-wrapper '__init__' of exceptions.NameError object>"
p51
sS'__new__'
p52
S'<built-in method __new__ of type object>'
p53
ssS'evalue'
p54
S"name 'dest' is not defined"
p55
sS'request'
p56
ccopy_reg
_reconstructor
p57
(cgluon.html
BEAUTIFY
p58
c__builtin__
object
p59
NtRp60
(dp61
S'attributes'
p62
(dp63
sS'components'
p64
(lp65
g57
(cgluon.html
TABLE
p66
g59
NtRp67
(dp68
g62
(dp69
S'level'
p70
I5
ssS'parent'
p71
Nsg64
(lp72
g57
(cgluon.html
TR
p73
g59
NtRp74
(dp75
g62
(dp76
sg71
g67
sg64
(lp77
g57
(cgluon.html
TD
p78
g59
NtRp79
(dp80
g62
(dp81
S'_style'
p82
S'font-weight:bold;vertical-align:top'
p83
ssg71
g74
sg64
(lp84
S'ajax'
p85
asbag57
(g78
g59
NtRp86
(dp87
g62
(dp88
S'_valign'
p89
S'top'
p90
ssg71
g74
sg64
(lp91
S':'
asbag57
(g78
g59
NtRp92
(dp93
g62
(dp94
sg71
g74
sg64
(lp95
g57
(g58
g59
NtRp96
(dp97
g62
(dp98
g70
I5
ssg71
g92
sg64
(lp99
S'False'
p100
asbasbasbag57
(g73
g59
NtRp101
(dp102
g62
(dp103
sg71
g67
sg64
(lp104
g57
(g78
g59
NtRp105
(dp106
g62
(dp107
g82
g83
ssg71
g101
sg64
(lp108
S'application'
p109
asbag57
(g78
g59
NtRp110
(dp111
g62
(dp112
g89
g90
ssg71
g101
sg64
(lp113
S':'
asbag57
(g78
g59
NtRp114
(dp115
g62
(dp116
sg71
g101
sg64
(lp117
g57
(g58
g59
NtRp118
(dp119
g62
(dp120
g70
I5
ssg71
g114
sg64
(lp121
S'welcome'
p122
asbasbasbag57
(g73
g59
NtRp123
(dp124
g62
(dp125
sg71
g67
sg64
(lp126
g57
(g78
g59
NtRp127
(dp128
g62
(dp129
g82
g83
ssg71
g123
sg64
(lp130
g44
asbag57
(g78
g59
NtRp131
(dp132
g62
(dp133
g89
g90
ssg71
g123
sg64
(lp134
S':'
asbag57
(g78
g59
NtRp135
(dp136
g62
(dp137
sg71
g123
sg64
(lp138
g57
(g58
g59
NtRp139
(dp140
g62
(dp141
g70
I5
ssg71
g135
sg64
(lp142
g57
(g66
g59
NtRp143
(dp144
g62
(dp145
g70
I4
ssg71
Nsg64
(lp146
sbasbasbasbag57
(g73
g59
NtRp147
(dp148
g62
(dp149
sg71
g67
sg64
(lp150
g57
(g78
g59
NtRp151
(dp152
g62
(dp153
g82
g83
ssg71
g147
sg64
(lp154
S'body'
p155
asbag57
(g78
g59
NtRp156
(dp157
g62
(dp158
g89
g90
ssg71
g147
sg64
(lp159
S':'
asbag57
(g78
g59
NtRp160
(dp161
g62
(dp162
sg71
g147
sg64
(lp163
g57
(g58
g59
NtRp164
(dp165
g62
(dp166
g70
I5
ssg71
g160
sg64
(lp167
S'<cStringIO.StringO object at 0x000000000377C340>'
p168
asbasbasbag57
(g73
g59
NtRp169
(dp170
g62
(dp171
sg71
g67
sg64
(lp172
g57
(g78
g59
NtRp173
(dp174
g62
(dp175
g82
g83
ssg71
g169
sg64
(lp176
S'cid'
p177
asbag57
(g78
g59
NtRp178
(dp179
g62
(dp180
g89
g90
ssg71
g169
sg64
(lp181
S':'
asbag57
(g78
g59
NtRp182
(dp183
g62
(dp184
sg71
g169
sg64
(lp185
g57
(g58
g59
NtRp186
(dp187
g62
(dp188
g70
I5
ssg71
g182
sg64
(lp189
S'None'
p190
asbasbasbag57
(g73
g59
NtRp191
(dp192
g62
(dp193
sg71
g67
sg64
(lp194
g57
(g78
g59
NtRp195
(dp196
g62
(dp197
g82
g83
ssg71
g191
sg64
(lp198
S'client'
p199
asbag57
(g78
g59
NtRp200
(dp201
g62
(dp202
g89
g90
ssg71
g191
sg64
(lp203
S':'
asbag57
(g78
g59
NtRp204
(dp205
g62
(dp206
sg71
g191
sg64
(lp207
g57
(g58
g59
NtRp208
(dp209
g62
(dp210
g70
I5
ssg71
g204
sg64
(lp211
S'127.0.0.1'
p212
asbasbasbag57
(g73
g59
NtRp213
(dp214
g62
(dp215
sg71
g67
sg64
(lp216
g57
(g78
g59
NtRp217
(dp218
g62
(dp219
g82
g83
ssg71
g213
sg64
(lp220
S'controller'
p221
asbag57
(g78
g59
NtRp222
(dp223
g62
(dp224
g89
g90
ssg71
g213
sg64
(lp225
S':'
asbag57
(g78
g59
NtRp226
(dp227
g62
(dp228
sg71
g213
sg64
(lp229
g57
(g58
g59
NtRp230
(dp231
g62
(dp232
g70
I5
ssg71
g226
sg64
(lp233
S'webrtc'
p234
asbasbasbag57
(g73
g59
NtRp235
(dp236
g62
(dp237
sg71
g67
sg64
(lp238
g57
(g78
g59
NtRp239
(dp240
g62
(dp241
g82
g83
ssg71
g235
sg64
(lp242
S'cookies'
p243
asbag57
(g78
g59
NtRp244
(dp245
g62
(dp246
g89
g90
ssg71
g235
sg64
(lp247
S':'
asbag57
(g78
g59
NtRp248
(dp249
g62
(dp250
sg71
g235
sg64
(lp251
g57
(g58
g59
NtRp252
(dp253
g62
(dp254
g70
I5
ssg71
g248
sg64
(lp255
g57
(g66
g59
NtRp256
(dp257
g62
(dp258
g70
I4
ssg71
Nsg64
(lp259
g57
(g73
g59
NtRp260
(dp261
g62
(dp262
sg71
g256
sg64
(lp263
g57
(g78
g59
NtRp264
(dp265
g62
(dp266
g82
g83
ssg71
g260
sg64
(lp267
S'session_id_admin'
p268
asbag57
(g78
g59
NtRp269
(dp270
g62
(dp271
g89
g90
ssg71
g260
sg64
(lp272
S':'
asbag57
(g78
g59
NtRp273
(dp274
g62
(dp275
sg71
g260
sg64
(lp276
g57
(g58
g59
NtRp277
(dp278
g62
(dp279
g70
I4
ssg71
g273
sg64
(lp280
S'127.0.0.1-961df8be-0dd5-433a-b289-a2172fcc90d7'
p281
ag57
(g66
g59
NtRp282
(dp283
g62
(dp284
g70
I3
ssg71
Nsg64
(lp285
g57
(g73
g59
NtRp286
(dp287
g62
(dp288
sg71
g282
sg64
(lp289
g57
(g78
g59
NtRp290
(dp291
g62
(dp292
g82
g83
ssg71
g286
sg64
(lp293
S'comment'
p294
asbag57
(g78
g59
NtRp295
(dp296
g62
(dp297
g89
g90
ssg71
g286
sg64
(lp298
S':'
asbag57
(g78
g59
NtRp299
(dp300
g62
(dp301
sg71
g286
sg64
(lp302
g57
(g58
g59
NtRp303
(dp304
g62
(dp305
g70
I3
ssg71
g299
sg64
(lp306
S''
asbasbasbag57
(g73
g59
NtRp307
(dp308
g62
(dp309
sg71
g282
sg64
(lp310
g57
(g78
g59
NtRp311
(dp312
g62
(dp313
g82
g83
ssg71
g307
sg64
(lp314
S'domain'
p315
asbag57
(g78
g59
NtRp316
(dp317
g62
(dp318
g89
g90
ssg71
g307
sg64
(lp319
S':'
asbag57
(g78
g59
NtRp320
(dp321
g62
(dp322
sg71
g307
sg64
(lp323
g57
(g58
g59
NtRp324
(dp325
g62
(dp326
g70
I3
ssg71
g320
sg64
(lp327
S''
asbasbasbag57
(g73
g59
NtRp328
(dp329
g62
(dp330
sg71
g282
sg64
(lp331
g57
(g78
g59
NtRp332
(dp333
g62
(dp334
g82
g83
ssg71
g328
sg64
(lp335
S'expires'
p336
asbag57
(g78
g59
NtRp337
(dp338
g62
(dp339
g89
g90
ssg71
g328
sg64
(lp340
S':'
asbag57
(g78
g59
NtRp341
(dp342
g62
(dp343
sg71
g328
sg64
(lp344
g57
(g58
g59
NtRp345
(dp346
g62
(dp347
g70
I3
ssg71
g341
sg64
(lp348
S''
asbasbasbag57
(g73
g59
NtRp349
(dp350
g62
(dp351
sg71
g282
sg64
(lp352
g57
(g78
g59
NtRp353
(dp354
g62
(dp355
g82
g83
ssg71
g349
sg64
(lp356
S'httponly'
p357
asbag57
(g78
g59
NtRp358
(dp359
g62
(dp360
g89
g90
ssg71
g349
sg64
(lp361
S':'
asbag57
(g78
g59
NtRp362
(dp363
g62
(dp364
sg71
g349
sg64
(lp365
g57
(g58
g59
NtRp366
(dp367
g62
(dp368
g70
I3
ssg71
g362
sg64
(lp369
S''
asbasbasbag57
(g73
g59
NtRp370
(dp371
g62
(dp372
sg71
g282
sg64
(lp373
g57
(g78
g59
NtRp374
(dp375
g62
(dp376
g82
g83
ssg71
g370
sg64
(lp377
S'max-age'
p378
asbag57
(g78
g59
NtRp379
(dp380
g62
(dp381
g89
g90
ssg71
g370
sg64
(lp382
S':'
asbag57
(g78
g59
NtRp383
(dp384
g62
(dp385
sg71
g370
sg64
(lp386
g57
(g58
g59
NtRp387
(dp388
g62
(dp389
g70
I3
ssg71
g383
sg64
(lp390
S''
asbasbasbag57
(g73
g59
NtRp391
(dp392
g62
(dp393
sg71
g282
sg64
(lp394
g57
(g78
g59
NtRp395
(dp396
g62
(dp397
g82
g83
ssg71
g391
sg64
(lp398
S'path'
p399
asbag57
(g78
g59
NtRp400
(dp401
g62
(dp402
g89
g90
ssg71
g391
sg64
(lp403
S':'
asbag57
(g78
g59
NtRp404
(dp405
g62
(dp406
sg71
g391
sg64
(lp407
g57
(g58
g59
NtRp408
(dp409
g62
(dp410
g70
I3
ssg71
g404
sg64
(lp411
S''
asbasbasbag57
(g73
g59
NtRp412
(dp413
g62
(dp414
sg71
g282
sg64
(lp415
g57
(g78
g59
NtRp416
(dp417
g62
(dp418
g82
g83
ssg71
g412
sg64
(lp419
S'secure'
p420
asbag57
(g78
g59
NtRp421
(dp422
g62
(dp423
g89
g90
ssg71
g412
sg64
(lp424
S':'
asbag57
(g78
g59
NtRp425
(dp426
g62
(dp427
sg71
g412
sg64
(lp428
g57
(g58
g59
NtRp429
(dp430
g62
(dp431
g70
I3
ssg71
g425
sg64
(lp432
S''
asbasbasbag57
(g73
g59
NtRp433
(dp434
g62
(dp435
sg71
g282
sg64
(lp436
g57
(g78
g59
NtRp437
(dp438
g62
(dp439
g82
g83
ssg71
g433
sg64
(lp440
S'version'
p441
asbag57
(g78
g59
NtRp442
(dp443
g62
(dp444
g89
g90
ssg71
g433
sg64
(lp445
S':'
asbag57
(g78
g59
NtRp446
(dp447
g62
(dp448
sg71
g433
sg64
(lp449
g57
(g58
g59
NtRp450
(dp451
g62
(dp452
g70
I3
ssg71
g446
sg64
(lp453
S''
asbasbasbasbasbasbasbag57
(g73
g59
NtRp454
(dp455
g62
(dp456
sg71
g256
sg64
(lp457
g57
(g78
g59
NtRp458
(dp459
g62
(dp460
g82
g83
ssg71
g454
sg64
(lp461
S'session_id_welcome'
p462
asbag57
(g78
g59
NtRp463
(dp464
g62
(dp465
g89
g90
ssg71
g454
sg64
(lp466
S':'
asbag57
(g78
g59
NtRp467
(dp468
g62
(dp469
sg71
g454
sg64
(lp470
g57
(g58
g59
NtRp471
(dp472
g62
(dp473
g70
I4
ssg71
g467
sg64
(lp474
S'127.0.0.1-dbfdfe15-329d-49b6-859c-22e2bf3300d9'
p475
ag57
(g66
g59
NtRp476
(dp477
g62
(dp478
g70
I3
ssg71
Nsg64
(lp479
g57
(g73
g59
NtRp480
(dp481
g62
(dp482
sg71
g476
sg64
(lp483
g57
(g78
g59
NtRp484
(dp485
g62
(dp486
g82
g83
ssg71
g480
sg64
(lp487
g294
asbag57
(g78
g59
NtRp488
(dp489
g62
(dp490
g89
g90
ssg71
g480
sg64
(lp491
S':'
asbag57
(g78
g59
NtRp492
(dp493
g62
(dp494
sg71
g480
sg64
(lp495
g57
(g58
g59
NtRp496
(dp497
g62
(dp498
g70
I3
ssg71
g492
sg64
(lp499
S''
asbasbasbag57
(g73
g59
NtRp500
(dp501
g62
(dp502
sg71
g476
sg64
(lp503
g57
(g78
g59
NtRp504
(dp505
g62
(dp506
g82
g83
ssg71
g500
sg64
(lp507
g315
asbag57
(g78
g59
NtRp508
(dp509
g62
(dp510
g89
g90
ssg71
g500
sg64
(lp511
S':'
asbag57
(g78
g59
NtRp512
(dp513
g62
(dp514
sg71
g500
sg64
(lp515
g57
(g58
g59
NtRp516
(dp517
g62
(dp518
g70
I3
ssg71
g512
sg64
(lp519
S''
asbasbasbag57
(g73
g59
NtRp520
(dp521
g62
(dp522
sg71
g476
sg64
(lp523
g57
(g78
g59
NtRp524
(dp525
g62
(dp526
g82
g83
ssg71
g520
sg64
(lp527
g336
asbag57
(g78
g59
NtRp528
(dp529
g62
(dp530
g89
g90
ssg71
g520
sg64
(lp531
S':'
asbag57
(g78
g59
NtRp532
(dp533
g62
(dp534
sg71
g520
sg64
(lp535
g57
(g58
g59
NtRp536
(dp537
g62
(dp538
g70
I3
ssg71
g532
sg64
(lp539
S''
asbasbasbag57
(g73
g59
NtRp540
(dp541
g62
(dp542
sg71
g476
sg64
(lp543
g57
(g78
g59
NtRp544
(dp545
g62
(dp546
g82
g83
ssg71
g540
sg64
(lp547
g357
asbag57
(g78
g59
NtRp548
(dp549
g62
(dp550
g89
g90
ssg71
g540
sg64
(lp551
S':'
asbag57
(g78
g59
NtRp552
(dp553
g62
(dp554
sg71
g540
sg64
(lp555
g57
(g58
g59
NtRp556
(dp557
g62
(dp558
g70
I3
ssg71
g552
sg64
(lp559
S''
asbasbasbag57
(g73
g59
NtRp560
(dp561
g62
(dp562
sg71
g476
sg64
(lp563
g57
(g78
g59
NtRp564
(dp565
g62
(dp566
g82
g83
ssg71
g560
sg64
(lp567
g378
asbag57
(g78
g59
NtRp568
(dp569
g62
(dp570
g89
g90
ssg71
g560
sg64
(lp571
S':'
asbag57
(g78
g59
NtRp572
(dp573
g62
(dp574
sg71
g560
sg64
(lp575
g57
(g58
g59
NtRp576
(dp577
g62
(dp578
g70
I3
ssg71
g572
sg64
(lp579
S''
asbasbasbag57
(g73
g59
NtRp580
(dp581
g62
(dp582
sg71
g476
sg64
(lp583
g57
(g78
g59
NtRp584
(dp585
g62
(dp586
g82
g83
ssg71
g580
sg64
(lp587
g399
asbag57
(g78
g59
NtRp588
(dp589
g62
(dp590
g89
g90
ssg71
g580
sg64
(lp591
S':'
asbag57
(g78
g59
NtRp592
(dp593
g62
(dp594
sg71
g580
sg64
(lp595
g57
(g58
g59
NtRp596
(dp597
g62
(dp598
g70
I3
ssg71
g592
sg64
(lp599
S''
asbasbasbag57
(g73
g59
NtRp600
(dp601
g62
(dp602
sg71
g476
sg64
(lp603
g57
(g78
g59
NtRp604
(dp605
g62
(dp606
g82
g83
ssg71
g600
sg64
(lp607
g420
asbag57
(g78
g59
NtRp608
(dp609
g62
(dp610
g89
g90
ssg71
g600
sg64
(lp611
S':'
asbag57
(g78
g59
NtRp612
(dp613
g62
(dp614
sg71
g600
sg64
(lp615
g57
(g58
g59
NtRp616
(dp617
g62
(dp618
g70
I3
ssg71
g612
sg64
(lp619
S''
asbasbasbag57
(g73
g59
NtRp620
(dp621
g62
(dp622
sg71
g476
sg64
(lp623
g57
(g78
g59
NtRp624
(dp625
g62
(dp626
g82
g83
ssg71
g620
sg64
(lp627
g441
asbag57
(g78
g59
NtRp628
(dp629
g62
(dp630
g89
g90
ssg71
g620
sg64
(lp631
S':'
asbag57
(g78
g59
NtRp632
(dp633
g62
(dp634
sg71
g620
sg64
(lp635
g57
(g58
g59
NtRp636
(dp637
g62
(dp638
g70
I3
ssg71
g632
sg64
(lp639
S''
asbasbasbasbasbasbasbasbasbasbasbag57
(g73
g59
NtRp640
(dp641
g62
(dp642
sg71
g67
sg64
(lp643
g57
(g78
g59
NtRp644
(dp645
g62
(dp646
g82
g83
ssg71
g640
sg64
(lp647
S'env'
p648
asbag57
(g78
g59
NtRp649
(dp650
g62
(dp651
g89
g90
ssg71
g640
sg64
(lp652
S':'
asbag57
(g78
g59
NtRp653
(dp654
g62
(dp655
sg71
g640
sg64
(lp656
g57
(g58
g59
NtRp657
(dp658
g62
(dp659
g70
I5
ssg71
g653
sg64
(lp660
g57
(g66
g59
NtRp661
(dp662
g62
(dp663
g70
I4
ssg71
Nsg64
(lp664
g57
(g73
g59
NtRp665
(dp666
g62
(dp667
sg71
g661
sg64
(lp668
g57
(g78
g59
NtRp669
(dp670
g62
(dp671
g82
g83
ssg71
g665
sg64
(lp672
S'app_folders'
p673
asbag57
(g78
g59
NtRp674
(dp675
g62
(dp676
g89
g90
ssg71
g665
sg64
(lp677
S':'
asbag57
(g78
g59
NtRp678
(dp679
g62
(dp680
sg71
g665
sg64
(lp681
g57
(g58
g59
NtRp682
(dp683
g62
(dp684
g70
I4
ssg71
g678
sg64
(lp685
S"set(['D:\\\\Work\\\\webRTC\\\\web2py\\\\applications\\\\welcome\\\\', 'D:\\\\Work\\\\webRTC\\\\web2py\\\\applications\\\\admin\\\\'])"
p686
asbasbasbag57
(g73
g59
NtRp687
(dp688
g62
(dp689
sg71
g661
sg64
(lp690
g57
(g78
g59
NtRp691
(dp692
g62
(dp693
g82
g83
ssg71
g687
sg64
(lp694
S'applications_parent'
p695
asbag57
(g78
g59
NtRp696
(dp697
g62
(dp698
g89
g90
ssg71
g687
sg64
(lp699
S':'
asbag57
(g78
g59
NtRp700
(dp701
g62
(dp702
sg71
g687
sg64
(lp703
g57
(g58
g59
NtRp704
(dp705
g62
(dp706
g70
I4
ssg71
g700
sg64
(lp707
S'D:\\Work\\webRTC\\web2py'
p708
asbasbasbag57
(g73
g59
NtRp709
(dp710
g62
(dp711
sg71
g661
sg64
(lp712
g57
(g78
g59
NtRp713
(dp714
g62
(dp715
g82
g83
ssg71
g709
sg64
(lp716
S'cmd_args'
p717
asbag57
(g78
g59
NtRp718
(dp719
g62
(dp720
g89
g90
ssg71
g709
sg64
(lp721
S':'
asbag57
(g78
g59
NtRp722
(dp723
g62
(dp724
sg71
g709
sg64
(lp725
g57
(g58
g59
NtRp726
(dp727
g62
(dp728
g70
I4
ssg71
g722
sg64
(lp729
g57
(g66
g59
NtRp730
(dp731
g62
(dp732
g70
I3
ssg71
Nsg64
(lp733
sbasbasbasbag57
(g73
g59
NtRp734
(dp735
g62
(dp736
sg71
g661
sg64
(lp737
g57
(g78
g59
NtRp738
(dp739
g62
(dp740
g82
g83
ssg71
g734
sg64
(lp741
S'cmd_options'
p742
asbag57
(g78
g59
NtRp743
(dp744
g62
(dp745
g89
g90
ssg71
g734
sg64
(lp746
S':'
asbag57
(g78
g59
NtRp747
(dp748
g62
(dp749
sg71
g734
sg64
(lp750
g57
(g58
g59
NtRp751
(dp752
g62
(dp753
g70
I4
ssg71
g747
sg64
(lp754
S"<Values at 0x3769cc8: {'verbose': False, 'ip': '127.0.0.1', 'with_scheduler': False, 'ips': ['2001:0:9d38:6ab8:3c49:1eb9:3f57:ff99', 'fe80::3c49:1eb9:3f57:ff99%14', '192.168.0.102', 'fe80::91ec:31f9:5083:69f3%15'], 'shutdown_timeout': 5, 'taskbar': False, 'port': 8000, 'maxthreads': None, 'softcron': False, 'server_name': 'SonTHN-Hoiio', 'bpython': False, 'nogui': False, 'pid_filename': 'httpserver.pid', 'extcron': False, 'runcron': False, 'run_system_tests': False, 'test': None, 'folder': 'D:\\\\Work\\\\webRTC\\\\web2py', 'config': '', 'import_models': False, 'winservice': '', 'shell': None, 'run': '', 'log_filename': 'httpserver.log', 'debuglevel': 30, 'args': [''], 'socket_timeout': 5, 'ssl_ca_certificate': None, 'scheduler': None, 'profiler_filename': None, 'ssl_private_key': '', 'scheduler_groups': None, 'password': '<ask>', 'request_queue_size': 5, 'ssl_certificate': '', 'cronjob': False, 'numthreads': None, 'quiet': False, 'interfaces': None, 'minthreads': None, 'timeout': 10, 'plain': False, 'nobanner': False}>"
p755
asbasbasbag57
(g73
g59
NtRp756
(dp757
g62
(dp758
sg71
g661
sg64
(lp759
g57
(g78
g59
NtRp760
(dp761
g62
(dp762
g82
g83
ssg71
g756
sg64
(lp763
S'db_sessions'
p764
asbag57
(g78
g59
NtRp765
(dp766
g62
(dp767
g89
g90
ssg71
g756
sg64
(lp768
S':'
asbag57
(g78
g59
NtRp769
(dp770
g62
(dp771
sg71
g756
sg64
(lp772
g57
(g58
g59
NtRp773
(dp774
g62
(dp775
g70
I4
ssg71
g769
sg64
(lp776
S'set([])'
p777
asbasbasbag57
(g73
g59
NtRp778
(dp779
g62
(dp780
sg71
g661
sg64
(lp781
g57
(g78
g59
NtRp782
(dp783
g62
(dp784
g82
g83
ssg71
g778
sg64
(lp785
S'debugging'
p786
asbag57
(g78
g59
NtRp787
(dp788
g62
(dp789
g89
g90
ssg71
g778
sg64
(lp790
S':'
asbag57
(g78
g59
NtRp791
(dp792
g62
(dp793
sg71
g778
sg64
(lp794
g57
(g58
g59
NtRp795
(dp796
g62
(dp797
g70
I4
ssg71
g791
sg64
(lp798
g100
asbasbasbag57
(g73
g59
NtRp799
(dp800
g62
(dp801
sg71
g661
sg64
(lp802
g57
(g78
g59
NtRp803
(dp804
g62
(dp805
g82
g83
ssg71
g799
sg64
(lp806
S'gluon_parent'
p807
asbag57
(g78
g59
NtRp808
(dp809
g62
(dp810
g89
g90
ssg71
g799
sg64
(lp811
S':'
asbag57
(g78
g59
NtRp812
(dp813
g62
(dp814
sg71
g799
sg64
(lp815
g57
(g58
g59
NtRp816
(dp817
g62
(dp818
g70
I4
ssg71
g812
sg64
(lp819
S'D:\\Work\\webRTC\\web2py'
p820
asbasbasbag57
(g73
g59
NtRp821
(dp822
g62
(dp823
sg71
g661
sg64
(lp824
g57
(g78
g59
NtRp825
(dp826
g62
(dp827
g82
g83
ssg71
g821
sg64
(lp828
S'http_accept'
p829
asbag57
(g78
g59
NtRp830
(dp831
g62
(dp832
g89
g90
ssg71
g821
sg64
(lp833
S':'
asbag57
(g78
g59
NtRp834
(dp835
g62
(dp836
sg71
g821
sg64
(lp837
g57
(g58
g59
NtRp838
(dp839
g62
(dp840
g70
I4
ssg71
g834
sg64
(lp841
S'text/html,application/xhtml+xml,application/xml;q=0.9,*/*;q=0.8'
p842
asbasbasbag57
(g73
g59
NtRp843
(dp844
g62
(dp845
sg71
g661
sg64
(lp846
g57
(g78
g59
NtRp847
(dp848
g62
(dp849
g82
g83
ssg71
g843
sg64
(lp850
S'http_accept_charset'
p851
asbag57
(g78
g59
NtRp852
(dp853
g62
(dp854
g89
g90
ssg71
g843
sg64
(lp855
S':'
asbag57
(g78
g59
NtRp856
(dp857
g62
(dp858
sg71
g843
sg64
(lp859
g57
(g58
g59
NtRp860
(dp861
g62
(dp862
g70
I4
ssg71
g856
sg64
(lp863
S'windows-1258,utf-8;q=0.7,*;q=0.3'
p864
asbasbasbag57
(g73
g59
NtRp865
(dp866
g62
(dp867
sg71
g661
sg64
(lp868
g57
(g78
g59
NtRp869
(dp870
g62
(dp871
g82
g83
ssg71
g865
sg64
(lp872
S'http_accept_encoding'
p873
asbag57
(g78
g59
NtRp874
(dp875
g62
(dp876
g89
g90
ssg71
g865
sg64
(lp877
S':'
asbag57
(g78
g59
NtRp878
(dp879
g62
(dp880
sg71
g865
sg64
(lp881
g57
(g58
g59
NtRp882
(dp883
g62
(dp884
g70
I4
ssg71
g878
sg64
(lp885
S'gzip,deflate,sdch'
p886
asbasbasbag57
(g73
g59
NtRp887
(dp888
g62
(dp889
sg71
g661
sg64
(lp890
g57
(g78
g59
NtRp891
(dp892
g62
(dp893
g82
g83
ssg71
g887
sg64
(lp894
S'http_accept_language'
p895
asbag57
(g78
g59
NtRp896
(dp897
g62
(dp898
g89
g90
ssg71
g887
sg64
(lp899
S':'
asbag57
(g78
g59
NtRp900
(dp901
g62
(dp902
sg71
g887
sg64
(lp903
g57
(g58
g59
NtRp904
(dp905
g62
(dp906
g70
I4
ssg71
g900
sg64
(lp907
S'en,vi;q=0.8,en-US;q=0.6'
p908
asbasbasbag57
(g73
g59
NtRp909
(dp910
g62
(dp911
sg71
g661
sg64
(lp912
g57
(g78
g59
NtRp913
(dp914
g62
(dp915
g82
g83
ssg71
g909
sg64
(lp916
S'http_connection'
p917
asbag57
(g78
g59
NtRp918
(dp919
g62
(dp920
g89
g90
ssg71
g909
sg64
(lp921
S':'
asbag57
(g78
g59
NtRp922
(dp923
g62
(dp924
sg71
g909
sg64
(lp925
g57
(g58
g59
NtRp926
(dp927
g62
(dp928
g70
I4
ssg71
g922
sg64
(lp929
S'keep-alive'
p930
asbasbasbag57
(g73
g59
NtRp931
(dp932
g62
(dp933
sg71
g661
sg64
(lp934
g57
(g78
g59
NtRp935
(dp936
g62
(dp937
g82
g83
ssg71
g931
sg64
(lp938
S'http_cookie'
p939
asbag57
(g78
g59
NtRp940
(dp941
g62
(dp942
g89
g90
ssg71
g931
sg64
(lp943
S':'
asbag57
(g78
g59
NtRp944
(dp945
g62
(dp946
sg71
g931
sg64
(lp947
g57
(g58
g59
NtRp948
(dp949
g62
(dp950
g70
I4
ssg71
g944
sg64
(lp951
S'session_id_welcome=127.0.0.1-dbfdfe15-329d-49b6-859c-22e2bf3300d9; session_id_admin=127.0.0.1-961df8be-0dd5-433a-b289-a2172fcc90d7'
p952
asbasbasbag57
(g73
g59
NtRp953
(dp954
g62
(dp955
sg71
g661
sg64
(lp956
g57
(g78
g59
NtRp957
(dp958
g62
(dp959
g82
g83
ssg71
g953
sg64
(lp960
S'http_host'
p961
asbag57
(g78
g59
NtRp962
(dp963
g62
(dp964
g89
g90
ssg71
g953
sg64
(lp965
S':'
asbag57
(g78
g59
NtRp966
(dp967
g62
(dp968
sg71
g953
sg64
(lp969
g57
(g58
g59
NtRp970
(dp971
g62
(dp972
g70
I4
ssg71
g966
sg64
(lp973
S'127.0.0.1:8000'
p974
asbasbasbag57
(g73
g59
NtRp975
(dp976
g62
(dp977
sg71
g661
sg64
(lp978
g57
(g78
g59
NtRp979
(dp980
g62
(dp981
g82
g83
ssg71
g975
sg64
(lp982
S'http_user_agent'
p983
asbag57
(g78
g59
NtRp984
(dp985
g62
(dp986
g89
g90
ssg71
g975
sg64
(lp987
S':'
asbag57
(g78
g59
NtRp988
(dp989
g62
(dp990
sg71
g975
sg64
(lp991
g57
(g58
g59
NtRp992
(dp993
g62
(dp994
g70
I4
ssg71
g988
sg64
(lp995
S'Mozilla/5.0 (Windows NT 6.1; WOW64) AppleWebKit/537.27 (KHTML, like Gecko) Chrome/26.0.1386.0 Safari/537.27'
p996
asbasbasbag57
(g73
g59
NtRp997
(dp998
g62
(dp999
sg71
g661
sg64
(lp1000
g57
(g78
g59
NtRp1001
(dp1002
g62
(dp1003
g82
g83
ssg71
g997
sg64
(lp1004
S'is_jython'
p1005
asbag57
(g78
g59
NtRp1006
(dp1007
g62
(dp1008
g89
g90
ssg71
g997
sg64
(lp1009
S':'
asbag57
(g78
g59
NtRp1010
(dp1011
g62
(dp1012
sg71
g997
sg64
(lp1013
g57
(g58
g59
NtRp1014
(dp1015
g62
(dp1016
g70
I4
ssg71
g1010
sg64
(lp1017
g100
asbasbasbag57
(g73
g59
NtRp1018
(dp1019
g62
(dp1020
sg71
g661
sg64
(lp1021
g57
(g78
g59
NtRp1022
(dp1023
g62
(dp1024
g82
g83
ssg71
g1018
sg64
(lp1025
S'is_pypy'
p1026
asbag57
(g78
g59
NtRp1027
(dp1028
g62
(dp1029
g89
g90
ssg71
g1018
sg64
(lp1030
S':'
asbag57
(g78
g59
NtRp1031
(dp1032
g62
(dp1033
sg71
g1018
sg64
(lp1034
g57
(g58
g59
NtRp1035
(dp1036
g62
(dp1037
g70
I4
ssg71
g1031
sg64
(lp1038
g100
asbasbasbag57
(g73
g59
NtRp1039
(dp1040
g62
(dp1041
sg71
g661
sg64
(lp1042
g57
(g78
g59
NtRp1043
(dp1044
g62
(dp1045
g82
g83
ssg71
g1039
sg64
(lp1046
S'local_hosts'
p1047
asbag57
(g78
g59
NtRp1048
(dp1049
g62
(dp1050
g89
g90
ssg71
g1039
sg64
(lp1051
S':'
asbag57
(g78
g59
NtRp1052
(dp1053
g62
(dp1054
sg71
g1039
sg64
(lp1055
g57
(g58
g59
NtRp1056
(dp1057
g62
(dp1058
g70
I4
ssg71
g1052
sg64
(lp1059
g57
(g66
g59
NtRp1060
(dp1061
g62
(dp1062
g70
I3
ssg71
Nsg64
(lp1063
g57
(g73
g59
NtRp1064
(dp1065
g62
(dp1066
sg71
g1060
sg64
(lp1067
g57
(g78
g59
NtRp1068
(dp1069
g62
(dp1070
sg71
g1064
sg64
(lp1071
g57
(g58
g59
NtRp1072
(dp1073
g62
(dp1074
g70
I3
ssg71
g1068
sg64
(lp1075
S'fe80::3c49:1eb9:3f57:ff99%14'
p1076
asbasbasbag57
(g73
g59
NtRp1077
(dp1078
g62
(dp1079
sg71
g1060
sg64
(lp1080
g57
(g78
g59
NtRp1081
(dp1082
g62
(dp1083
sg71
g1077
sg64
(lp1084
g57
(g58
g59
NtRp1085
(dp1086
g62
(dp1087
g70
I3
ssg71
g1081
sg64
(lp1088
S'SonTHN-Hoiio'
p1089
asbasbasbag57
(g73
g59
NtRp1090
(dp1091
g62
(dp1092
sg71
g1060
sg64
(lp1093
g57
(g78
g59
NtRp1094
(dp1095
g62
(dp1096
sg71
g1090
sg64
(lp1097
g57
(g58
g59
NtRp1098
(dp1099
g62
(dp1100
g70
I3
ssg71
g1094
sg64
(lp1101
S'fe80::91ec:31f9:5083:69f3%15'
p1102
asbasbasbag57
(g73
g59
NtRp1103
(dp1104
g62
(dp1105
sg71
g1060
sg64
(lp1106
g57
(g78
g59
NtRp1107
(dp1108
g62
(dp1109
sg71
g1103
sg64
(lp1110
g57
(g58
g59
NtRp1111
(dp1112
g62
(dp1113
g70
I3
ssg71
g1107
sg64
(lp1114
S'2001:0:9d38:6ab8:3c49:1eb9:3f57:ff99'
p1115
asbasbasbag57
(g73
g59
NtRp1116
(dp1117
g62
(dp1118
sg71
g1060
sg64
(lp1119
g57
(g78
g59
NtRp1120
(dp1121
g62
(dp1122
sg71
g1116
sg64
(lp1123
g57
(g58
g59
NtRp1124
(dp1125
g62
(dp1126
g70
I3
ssg71
g1120
sg64
(lp1127
S'::ffff:127.0.0.1'
p1128
asbasbasbag57
(g73
g59
NtRp1129
(dp1130
g62
(dp1131
sg71
g1060
sg64
(lp1132
g57
(g78
g59
NtRp1133
(dp1134
g62
(dp1135
sg71
g1129
sg64
(lp1136
g57
(g58
g59
NtRp1137
(dp1138
g62
(dp1139
g70
I3
ssg71
g1133
sg64
(lp1140
S'::1'
p1141
asbasbasbag57
(g73
g59
NtRp1142
(dp1143
g62
(dp1144
sg71
g1060
sg64
(lp1145
g57
(g78
g59
NtRp1146
(dp1147
g62
(dp1148
sg71
g1142
sg64
(lp1149
g57
(g58
g59
NtRp1150
(dp1151
g62
(dp1152
g70
I3
ssg71
g1146
sg64
(lp1153
S'192.168.0.102'
p1154
asbasbasbag57
(g73
g59
NtRp1155
(dp1156
g62
(dp1157
sg71
g1060
sg64
(lp1158
g57
(g78
g59
NtRp1159
(dp1160
g62
(dp1161
sg71
g1155
sg64
(lp1162
g57
(g58
g59
NtRp1163
(dp1164
g62
(dp1165
g70
I3
ssg71
g1159
sg64
(lp1166
S'127.0.0.1'
p1167
asbasbasbasbasbasbasbag57
(g73
g59
NtRp1168
(dp1169
g62
(dp1170
sg71
g661
sg64
(lp1171
g57
(g78
g59
NtRp1172
(dp1173
g62
(dp1174
g82
g83
ssg71
g1168
sg64
(lp1175
S'path_info'
p1176
asbag57
(g78
g59
NtRp1177
(dp1178
g62
(dp1179
g89
g90
ssg71
g1168
sg64
(lp1180
S':'
asbag57
(g78
g59
NtRp1181
(dp1182
g62
(dp1183
sg71
g1168
sg64
(lp1184
g57
(g58
g59
NtRp1185
(dp1186
g62
(dp1187
g70
I4
ssg71
g1181
sg64
(lp1188
S'/welcome/webrtc/index'
p1189
asbasbasbag57
(g73
g59
NtRp1190
(dp1191
g62
(dp1192
sg71
g661
sg64
(lp1193
g57
(g78
g59
NtRp1194
(dp1195
g62
(dp1196
g82
g83
ssg71
g1190
sg64
(lp1197
S'query_string'
p1198
asbag57
(g78
g59
NtRp1199
(dp1200
g62
(dp1201
g89
g90
ssg71
g1190
sg64
(lp1202
S':'
asbag57
(g78
g59
NtRp1203
(dp1204
g62
(dp1205
sg71
g1190
sg64
(lp1206
g57
(g58
g59
NtRp1207
(dp1208
g62
(dp1209
g70
I4
ssg71
g1203
sg64
(lp1210
S''
asbasbasbag57
(g73
g59
NtRp1211
(dp1212
g62
(dp1213
sg71
g661
sg64
(lp1214
g57
(g78
g59
NtRp1215
(dp1216
g62
(dp1217
g82
g83
ssg71
g1211
sg64
(lp1218
S'remote_addr'
p1219
asbag57
(g78
g59
NtRp1220
(dp1221
g62
(dp1222
g89
g90
ssg71
g1211
sg64
(lp1223
S':'
asbag57
(g78
g59
NtRp1224
(dp1225
g62
(dp1226
sg71
g1211
sg64
(lp1227
g57
(g58
g59
NtRp1228
(dp1229
g62
(dp1230
g70
I4
ssg71
g1224
sg64
(lp1231
g212
asbasbasbag57
(g73
g59
NtRp1232
(dp1233
g62
(dp1234
sg71
g661
sg64
(lp1235
g57
(g78
g59
NtRp1236
(dp1237
g62
(dp1238
g82
g83
ssg71
g1232
sg64
(lp1239
S'remote_port'
p1240
asbag57
(g78
g59
NtRp1241
(dp1242
g62
(dp1243
g89
g90
ssg71
g1232
sg64
(lp1244
S':'
asbag57
(g78
g59
NtRp1245
(dp1246
g62
(dp1247
sg71
g1232
sg64
(lp1248
g57
(g58
g59
NtRp1249
(dp1250
g62
(dp1251
g70
I4
ssg71
g1245
sg64
(lp1252
S'49382'
p1253
asbasbasbag57
(g73
g59
NtRp1254
(dp1255
g62
(dp1256
sg71
g661
sg64
(lp1257
g57
(g78
g59
NtRp1258
(dp1259
g62
(dp1260
g82
g83
ssg71
g1254
sg64
(lp1261
S'request_method'
p1262
asbag57
(g78
g59
NtRp1263
(dp1264
g62
(dp1265
g89
g90
ssg71
g1254
sg64
(lp1266
S':'
asbag57
(g78
g59
NtRp1267
(dp1268
g62
(dp1269
sg71
g1254
sg64
(lp1270
g57
(g58
g59
NtRp1271
(dp1272
g62
(dp1273
g70
I4
ssg71
g1267
sg64
(lp1274
S'GET'
p1275
asbasbasbag57
(g73
g59
NtRp1276
(dp1277
g62
(dp1278
sg71
g661
sg64
(lp1279
g57
(g78
g59
NtRp1280
(dp1281
g62
(dp1282
g82
g83
ssg71
g1276
sg64
(lp1283
S'request_uri'
p1284
asbag57
(g78
g59
NtRp1285
(dp1286
g62
(dp1287
g89
g90
ssg71
g1276
sg64
(lp1288
S':'
asbag57
(g78
g59
NtRp1289
(dp1290
g62
(dp1291
sg71
g1276
sg64
(lp1292
g57
(g58
g59
NtRp1293
(dp1294
g62
(dp1295
g70
I4
ssg71
g1289
sg64
(lp1296
g1189
asbasbasbag57
(g73
g59
NtRp1297
(dp1298
g62
(dp1299
sg71
g661
sg64
(lp1300
g57
(g78
g59
NtRp1301
(dp1302
g62
(dp1303
g82
g83
ssg71
g1297
sg64
(lp1304
S'script_name'
p1305
asbag57
(g78
g59
NtRp1306
(dp1307
g62
(dp1308
g89
g90
ssg71
g1297
sg64
(lp1309
S':'
asbag57
(g78
g59
NtRp1310
(dp1311
g62
(dp1312
sg71
g1297
sg64
(lp1313
g57
(g58
g59
NtRp1314
(dp1315
g62
(dp1316
g70
I4
ssg71
g1310
sg64
(lp1317
S''
asbasbasbag57
(g73
g59
NtRp1318
(dp1319
g62
(dp1320
sg71
g661
sg64
(lp1321
g57
(g78
g59
NtRp1322
(dp1323
g62
(dp1324
g82
g83
ssg71
g1318
sg64
(lp1325
S'server_name'
p1326
asbag57
(g78
g59
NtRp1327
(dp1328
g62
(dp1329
g89
g90
ssg71
g1318
sg64
(lp1330
S':'
asbag57
(g78
g59
NtRp1331
(dp1332
g62
(dp1333
sg71
g1318
sg64
(lp1334
g57
(g58
g59
NtRp1335
(dp1336
g62
(dp1337
g70
I4
ssg71
g1331
sg64
(lp1338
S'SonTHN-Hoiio'
p1339
asbasbasbag57
(g73
g59
NtRp1340
(dp1341
g62
(dp1342
sg71
g661
sg64
(lp1343
g57
(g78
g59
NtRp1344
(dp1345
g62
(dp1346
g82
g83
ssg71
g1340
sg64
(lp1347
S'server_port'
p1348
asbag57
(g78
g59
NtRp1349
(dp1350
g62
(dp1351
g89
g90
ssg71
g1340
sg64
(lp1352
S':'
asbag57
(g78
g59
NtRp1353
(dp1354
g62
(dp1355
sg71
g1340
sg64
(lp1356
g57
(g58
g59
NtRp1357
(dp1358
g62
(dp1359
g70
I4
ssg71
g1353
sg64
(lp1360
S'8000'
p1361
asbasbasbag57
(g73
g59
NtRp1362
(dp1363
g62
(dp1364
sg71
g661
sg64
(lp1365
g57
(g78
g59
NtRp1366
(dp1367
g62
(dp1368
g82
g83
ssg71
g1362
sg64
(lp1369
S'server_protocol'
p1370
asbag57
(g78
g59
NtRp1371
(dp1372
g62
(dp1373
g89
g90
ssg71
g1362
sg64
(lp1374
S':'
asbag57
(g78
g59
NtRp1375
(dp1376
g62
(dp1377
sg71
g1362
sg64
(lp1378
g57
(g58
g59
NtRp1379
(dp1380
g62
(dp1381
g70
I4
ssg71
g1375
sg64
(lp1382
S'HTTP/1.1'
p1383
asbasbasbag57
(g73
g59
NtRp1384
(dp1385
g62
(dp1386
sg71
g661
sg64
(lp1387
g57
(g78
g59
NtRp1388
(dp1389
g62
(dp1390
g82
g83
ssg71
g1384
sg64
(lp1391
S'server_software'
p1392
asbag57
(g78
g59
NtRp1393
(dp1394
g62
(dp1395
g89
g90
ssg71
g1384
sg64
(lp1396
S':'
asbag57
(g78
g59
NtRp1397
(dp1398
g62
(dp1399
sg71
g1384
sg64
(lp1400
g57
(g58
g59
NtRp1401
(dp1402
g62
(dp1403
g70
I4
ssg71
g1397
sg64
(lp1404
S'Rocket 1.2.6'
p1405
asbasbasbag57
(g73
g59
NtRp1406
(dp1407
g62
(dp1408
sg71
g661
sg64
(lp1409
g57
(g78
g59
NtRp1410
(dp1411
g62
(dp1412
g82
g83
ssg71
g1406
sg64
(lp1413
S'web2py_path'
p1414
asbag57
(g78
g59
NtRp1415
(dp1416
g62
(dp1417
g89
g90
ssg71
g1406
sg64
(lp1418
S':'
asbag57
(g78
g59
NtRp1419
(dp1420
g62
(dp1421
sg71
g1406
sg64
(lp1422
g57
(g58
g59
NtRp1423
(dp1424
g62
(dp1425
g70
I4
ssg71
g1419
sg64
(lp1426
g708
asbasbasbag57
(g73
g59
NtRp1427
(dp1428
g62
(dp1429
sg71
g661
sg64
(lp1430
g57
(g78
g59
NtRp1431
(dp1432
g62
(dp1433
g82
g83
ssg71
g1427
sg64
(lp1434
S'web2py_version'
p1435
asbag57
(g78
g59
NtRp1436
(dp1437
g62
(dp1438
g89
g90
ssg71
g1427
sg64
(lp1439
S':'
asbag57
(g78
g59
NtRp1440
(dp1441
g62
(dp1442
sg71
g1427
sg64
(lp1443
g57
(g58
g59
NtRp1444
(dp1445
g62
(dp1446
g70
I4
ssg71
g1440
sg64
(lp1447
g57
(g66
g59
NtRp1448
(dp1449
g62
(dp1450
g70
I3
ssg71
Nsg64
(lp1451
g57
(g73
g59
NtRp1452
(dp1453
g62
(dp1454
sg71
g1448
sg64
(lp1455
g57
(g78
g59
NtRp1456
(dp1457
g62
(dp1458
sg71
g1452
sg64
(lp1459
g57
(g58
g59
NtRp1460
(dp1461
g62
(dp1462
g70
I3
ssg71
g1456
sg64
(lp1463
S'2'
asbasbasbag57
(g73
g59
NtRp1464
(dp1465
g62
(dp1466
sg71
g1448
sg64
(lp1467
g57
(g78
g59
NtRp1468
(dp1469
g62
(dp1470
sg71
g1464
sg64
(lp1471
g57
(g58
g59
NtRp1472
(dp1473
g62
(dp1474
g70
I3
ssg71
g1468
sg64
(lp1475
S'4'
asbasbasbag57
(g73
g59
NtRp1476
(dp1477
g62
(dp1478
sg71
g1448
sg64
(lp1479
g57
(g78
g59
NtRp1480
(dp1481
g62
(dp1482
sg71
g1476
sg64
(lp1483
g57
(g58
g59
NtRp1484
(dp1485
g62
(dp1486
g70
I3
ssg71
g1480
sg64
(lp1487
S'1'
asbasbasbag57
(g73
g59
NtRp1488
(dp1489
g62
(dp1490
sg71
g1448
sg64
(lp1491
g57
(g78
g59
NtRp1492
(dp1493
g62
(dp1494
sg71
g1488
sg64
(lp1495
g57
(g58
g59
NtRp1496
(dp1497
g62
(dp1498
g70
I3
ssg71
g1492
sg64
(lp1499
S'alpha.1'
p1500
asbasbasbag57
(g73
g59
NtRp1501
(dp1502
g62
(dp1503
sg71
g1448
sg64
(lp1504
g57
(g78
g59
NtRp1505
(dp1506
g62
(dp1507
sg71
g1501
sg64
(lp1508
g57
(g58
g59
NtRp1509
(dp1510
g62
(dp1511
g70
I3
ssg71
g1505
sg64
(lp1512
S'datetime.datetime(2012, 12, 20, 18, 16, 2)'
p1513
asbasbasbasbasbasbasbag57
(g73
g59
NtRp1514
(dp1515
g62
(dp1516
sg71
g661
sg64
(lp1517
g57
(g78
g59
NtRp1518
(dp1519
g62
(dp1520
g82
g83
ssg71
g1514
sg64
(lp1521
S'wsgi_errors'
p1522
asbag57
(g78
g59
NtRp1523
(dp1524
g62
(dp1525
g89
g90
ssg71
g1514
sg64
(lp1526
S':'
asbag57
(g78
g59
NtRp1527
(dp1528
g62
(dp1529
sg71
g1514
sg64
(lp1530
g57
(g58
g59
NtRp1531
(dp1532
g62
(dp1533
g70
I4
ssg71
g1527
sg64
(lp1534
S"<open file '<stderr>', mode 'w' at 0x00000000005961E0>"
p1535
asbasbasbag57
(g73
g59
NtRp1536
(dp1537
g62
(dp1538
sg71
g661
sg64
(lp1539
g57
(g78
g59
NtRp1540
(dp1541
g62
(dp1542
g82
g83
ssg71
g1536
sg64
(lp1543
S'wsgi_file_wrapper'
p1544
asbag57
(g78
g59
NtRp1545
(dp1546
g62
(dp1547
g89
g90
ssg71
g1536
sg64
(lp1548
S':'
asbag57
(g78
g59
NtRp1549
(dp1550
g62
(dp1551
sg71
g1536
sg64
(lp1552
g57
(g58
g59
NtRp1553
(dp1554
g62
(dp1555
g70
I4
ssg71
g1549
sg64
(lp1556
S'<class wsgiref.util.FileWrapper at 0x00000000036ECEE8>'
p1557
asbasbasbag57
(g73
g59
NtRp1558
(dp1559
g62
(dp1560
sg71
g661
sg64
(lp1561
g57
(g78
g59
NtRp1562
(dp1563
g62
(dp1564
g82
g83
ssg71
g1558
sg64
(lp1565
S'wsgi_input'
p1566
asbag57
(g78
g59
NtRp1567
(dp1568
g62
(dp1569
g89
g90
ssg71
g1558
sg64
(lp1570
S':'
asbag57
(g78
g59
NtRp1571
(dp1572
g62
(dp1573
sg71
g1558
sg64
(lp1574
g57
(g58
g59
NtRp1575
(dp1576
g62
(dp1577
g70
I4
ssg71
g1571
sg64
(lp1578
S'<socket._fileobject object at 0x0000000005464228>'
p1579
asbasbasbag57
(g73
g59
NtRp1580
(dp1581
g62
(dp1582
sg71
g661
sg64
(lp1583
g57
(g78
g59
NtRp1584
(dp1585
g62
(dp1586
g82
g83
ssg71
g1580
sg64
(lp1587
S'wsgi_multiprocess'
p1588
asbag57
(g78
g59
NtRp1589
(dp1590
g62
(dp1591
g89
g90
ssg71
g1580
sg64
(lp1592
S':'
asbag57
(g78
g59
NtRp1593
(dp1594
g62
(dp1595
sg71
g1580
sg64
(lp1596
g57
(g58
g59
NtRp1597
(dp1598
g62
(dp1599
g70
I4
ssg71
g1593
sg64
(lp1600
g100
asbasbasbag57
(g73
g59
NtRp1601
(dp1602
g62
(dp1603
sg71
g661
sg64
(lp1604
g57
(g78
g59
NtRp1605
(dp1606
g62
(dp1607
g82
g83
ssg71
g1601
sg64
(lp1608
S'wsgi_multithread'
p1609
asbag57
(g78
g59
NtRp1610
(dp1611
g62
(dp1612
g89
g90
ssg71
g1601
sg64
(lp1613
S':'
asbag57
(g78
g59
NtRp1614
(dp1615
g62
(dp1616
sg71
g1601
sg64
(lp1617
g57
(g58
g59
NtRp1618
(dp1619
g62
(dp1620
g70
I4
ssg71
g1614
sg64
(lp1621
S'True'
p1622
asbasbasbag57
(g73
g59
NtRp1623
(dp1624
g62
(dp1625
sg71
g661
sg64
(lp1626
g57
(g78
g59
NtRp1627
(dp1628
g62
(dp1629
g82
g83
ssg71
g1623
sg64
(lp1630
S'wsgi_run_once'
p1631
asbag57
(g78
g59
NtRp1632
(dp1633
g62
(dp1634
g89
g90
ssg71
g1623
sg64
(lp1635
S':'
asbag57
(g78
g59
NtRp1636
(dp1637
g62
(dp1638
sg71
g1623
sg64
(lp1639
g57
(g58
g59
NtRp1640
(dp1641
g62
(dp1642
g70
I4
ssg71
g1636
sg64
(lp1643
g100
asbasbasbag57
(g73
g59
NtRp1644
(dp1645
g62
(dp1646
sg71
g661
sg64
(lp1647
g57
(g78
g59
NtRp1648
(dp1649
g62
(dp1650
g82
g83
ssg71
g1644
sg64
(lp1651
S'wsgi_url_scheme'
p1652
asbag57
(g78
g59
NtRp1653
(dp1654
g62
(dp1655
g89
g90
ssg71
g1644
sg64
(lp1656
S':'
asbag57
(g78
g59
NtRp1657
(dp1658
g62
(dp1659
sg71
g1644
sg64
(lp1660
g57
(g58
g59
NtRp1661
(dp1662
g62
(dp1663
g70
I4
ssg71
g1657
sg64
(lp1664
S'http'
p1665
asbasbasbag57
(g73
g59
NtRp1666
(dp1667
g62
(dp1668
sg71
g661
sg64
(lp1669
g57
(g78
g59
NtRp1670
(dp1671
g62
(dp1672
g82
g83
ssg71
g1666
sg64
(lp1673
S'wsgi_version'
p1674
asbag57
(g78
g59
NtRp1675
(dp1676
g62
(dp1677
g89
g90
ssg71
g1666
sg64
(lp1678
S':'
asbag57
(g78
g59
NtRp1679
(dp1680
g62
(dp1681
sg71
g1666
sg64
(lp1682
g57
(g58
g59
NtRp1683
(dp1684
g62
(dp1685
g70
I4
ssg71
g1679
sg64
(lp1686
g57
(g66
g59
NtRp1687
(dp1688
g62
(dp1689
g70
I3
ssg71
Nsg64
(lp1690
g57
(g73
g59
NtRp1691
(dp1692
g62
(dp1693
sg71
g1687
sg64
(lp1694
g57
(g78
g59
NtRp1695
(dp1696
g62
(dp1697
sg71
g1691
sg64
(lp1698
g57
(g58
g59
NtRp1699
(dp1700
g62
(dp1701
g70
I3
ssg71
g1695
sg64
(lp1702
S'1'
asbasbasbag57
(g73
g59
NtRp1703
(dp1704
g62
(dp1705
sg71
g1687
sg64
(lp1706
g57
(g78
g59
NtRp1707
(dp1708
g62
(dp1709
sg71
g1703
sg64
(lp1710
g57
(g58
g59
NtRp1711
(dp1712
g62
(dp1713
g70
I3
ssg71
g1707
sg64
(lp1714
S'0'
asbasbasbasbasbasbasbasbasbasbasbag57
(g73
g59
NtRp1715
(dp1716
g62
(dp1717
sg71
g67
sg64
(lp1718
g57
(g78
g59
NtRp1719
(dp1720
g62
(dp1721
g82
g83
ssg71
g1715
sg64
(lp1722
S'extension'
p1723
asbag57
(g78
g59
NtRp1724
(dp1725
g62
(dp1726
g89
g90
ssg71
g1715
sg64
(lp1727
S':'
asbag57
(g78
g59
NtRp1728
(dp1729
g62
(dp1730
sg71
g1715
sg64
(lp1731
g57
(g58
g59
NtRp1732
(dp1733
g62
(dp1734
g70
I5
ssg71
g1728
sg64
(lp1735
S'html'
p1736
asbasbasbag57
(g73
g59
NtRp1737
(dp1738
g62
(dp1739
sg71
g67
sg64
(lp1740
g57
(g78
g59
NtRp1741
(dp1742
g62
(dp1743
g82
g83
ssg71
g1737
sg64
(lp1744
S'folder'
p1745
asbag57
(g78
g59
NtRp1746
(dp1747
g62
(dp1748
g89
g90
ssg71
g1737
sg64
(lp1749
S':'
asbag57
(g78
g59
NtRp1750
(dp1751
g62
(dp1752
sg71
g1737
sg64
(lp1753
g57
(g58
g59
NtRp1754
(dp1755
g62
(dp1756
g70
I5
ssg71
g1750
sg64
(lp1757
S'D:\\Work\\webRTC\\web2py\\applications\\welcome\\'
p1758
asbasbasbag57
(g73
g59
NtRp1759
(dp1760
g62
(dp1761
sg71
g67
sg64
(lp1762
g57
(g78
g59
NtRp1763
(dp1764
g62
(dp1765
g82
g83
ssg71
g1759
sg64
(lp1766
S'function'
p1767
asbag57
(g78
g59
NtRp1768
(dp1769
g62
(dp1770
g89
g90
ssg71
g1759
sg64
(lp1771
S':'
asbag57
(g78
g59
NtRp1772
(dp1773
g62
(dp1774
sg71
g1759
sg64
(lp1775
g57
(g58
g59
NtRp1776
(dp1777
g62
(dp1778
g70
I5
ssg71
g1772
sg64
(lp1779
S'index'
p1780
asbasbasbag57
(g73
g59
NtRp1781
(dp1782
g62
(dp1783
sg71
g67
sg64
(lp1784
g57
(g78
g59
NtRp1785
(dp1786
g62
(dp1787
g82
g83
ssg71
g1781
sg64
(lp1788
S'get_vars'
p1789
asbag57
(g78
g59
NtRp1790
(dp1791
g62
(dp1792
g89
g90
ssg71
g1781
sg64
(lp1793
S':'
asbag57
(g78
g59
NtRp1794
(dp1795
g62
(dp1796
sg71
g1781
sg64
(lp1797
g57
(g58
g59
NtRp1798
(dp1799
g62
(dp1800
g70
I5
ssg71
g1794
sg64
(lp1801
g57
(g66
g59
NtRp1802
(dp1803
g62
(dp1804
g70
I4
ssg71
Nsg64
(lp1805
sbasbasbasbag57
(g73
g59
NtRp1806
(dp1807
g62
(dp1808
sg71
g67
sg64
(lp1809
g57
(g78
g59
NtRp1810
(dp1811
g62
(dp1812
g82
g83
ssg71
g1806
sg64
(lp1813
S'global_settings'
p1814
asbag57
(g78
g59
NtRp1815
(dp1816
g62
(dp1817
g89
g90
ssg71
g1806
sg64
(lp1818
S':'
asbag57
(g78
g59
NtRp1819
(dp1820
g62
(dp1821
sg71
g1806
sg64
(lp1822
g57
(g58
g59
NtRp1823
(dp1824
g62
(dp1825
g70
I5
ssg71
g1819
sg64
(lp1826
g57
(g66
g59
NtRp1827
(dp1828
g62
(dp1829
g70
I4
ssg71
Nsg64
(lp1830
g57
(g73
g59
NtRp1831
(dp1832
g62
(dp1833
sg71
g1827
sg64
(lp1834
g57
(g78
g59
NtRp1835
(dp1836
g62
(dp1837
g82
g83
ssg71
g1831
sg64
(lp1838
g673
asbag57
(g78
g59
NtRp1839
(dp1840
g62
(dp1841
g89
g90
ssg71
g1831
sg64
(lp1842
S':'
asbag57
(g78
g59
NtRp1843
(dp1844
g62
(dp1845
sg71
g1831
sg64
(lp1846
g57
(g58
g59
NtRp1847
(dp1848
g62
(dp1849
g70
I4
ssg71
g1843
sg64
(lp1850
S"set(['D:\\\\Work\\\\webRTC\\\\web2py\\\\applications\\\\welcome\\\\', 'D:\\\\Work\\\\webRTC\\\\web2py\\\\applications\\\\admin\\\\'])"
p1851
asbasbasbag57
(g73
g59
NtRp1852
(dp1853
g62
(dp1854
sg71
g1827
sg64
(lp1855
g57
(g78
g59
NtRp1856
(dp1857
g62
(dp1858
g82
g83
ssg71
g1852
sg64
(lp1859
g695
asbag57
(g78
g59
NtRp1860
(dp1861
g62
(dp1862
g89
g90
ssg71
g1852
sg64
(lp1863
S':'
asbag57
(g78
g59
NtRp1864
(dp1865
g62
(dp1866
sg71
g1852
sg64
(lp1867
g57
(g58
g59
NtRp1868
(dp1869
g62
(dp1870
g70
I4
ssg71
g1864
sg64
(lp1871
g708
asbasbasbag57
(g73
g59
NtRp1872
(dp1873
g62
(dp1874
sg71
g1827
sg64
(lp1875
g57
(g78
g59
NtRp1876
(dp1877
g62
(dp1878
g82
g83
ssg71
g1872
sg64
(lp1879
g717
asbag57
(g78
g59
NtRp1880
(dp1881
g62
(dp1882
g89
g90
ssg71
g1872
sg64
(lp1883
S':'
asbag57
(g78
g59
NtRp1884
(dp1885
g62
(dp1886
sg71
g1872
sg64
(lp1887
g57
(g58
g59
NtRp1888
(dp1889
g62
(dp1890
g70
I4
ssg71
g1884
sg64
(lp1891
g57
(g66
g59
NtRp1892
(dp1893
g62
(dp1894
g70
I3
ssg71
Nsg64
(lp1895
sbasbasbasbag57
(g73
g59
NtRp1896
(dp1897
g62
(dp1898
sg71
g1827
sg64
(lp1899
g57
(g78
g59
NtRp1900
(dp1901
g62
(dp1902
g82
g83
ssg71
g1896
sg64
(lp1903
g742
asbag57
(g78
g59
NtRp1904
(dp1905
g62
(dp1906
g89
g90
ssg71
g1896
sg64
(lp1907
S':'
asbag57
(g78
g59
NtRp1908
(dp1909
g62
(dp1910
sg71
g1896
sg64
(lp1911
g57
(g58
g59
NtRp1912
(dp1913
g62
(dp1914
g70
I4
ssg71
g1908
sg64
(lp1915
S"<Values at 0x3769cc8: {'verbose': False, 'ip': '127.0.0.1', 'with_scheduler': False, 'ips': ['2001:0:9d38:6ab8:3c49:1eb9:3f57:ff99', 'fe80::3c49:1eb9:3f57:ff99%14', '192.168.0.102', 'fe80::91ec:31f9:5083:69f3%15'], 'shutdown_timeout': 5, 'taskbar': False, 'port': 8000, 'maxthreads': None, 'softcron': False, 'server_name': 'SonTHN-Hoiio', 'bpython': False, 'nogui': False, 'pid_filename': 'httpserver.pid', 'extcron': False, 'runcron': False, 'run_system_tests': False, 'test': None, 'folder': 'D:\\\\Work\\\\webRTC\\\\web2py', 'config': '', 'import_models': False, 'winservice': '', 'shell': None, 'run': '', 'log_filename': 'httpserver.log', 'debuglevel': 30, 'args': [''], 'socket_timeout': 5, 'ssl_ca_certificate': None, 'scheduler': None, 'profiler_filename': None, 'ssl_private_key': '', 'scheduler_groups': None, 'password': '<ask>', 'request_queue_size': 5, 'ssl_certificate': '', 'cronjob': False, 'numthreads': None, 'quiet': False, 'interfaces': None, 'minthreads': None, 'timeout': 10, 'plain': False, 'nobanner': False}>"
p1916
asbasbasbag57
(g73
g59
NtRp1917
(dp1918
g62
(dp1919
sg71
g1827
sg64
(lp1920
g57
(g78
g59
NtRp1921
(dp1922
g62
(dp1923
g82
g83
ssg71
g1917
sg64
(lp1924
g764
asbag57
(g78
g59
NtRp1925
(dp1926
g62
(dp1927
g89
g90
ssg71
g1917
sg64
(lp1928
S':'
asbag57
(g78
g59
NtRp1929
(dp1930
g62
(dp1931
sg71
g1917
sg64
(lp1932
g57
(g58
g59
NtRp1933
(dp1934
g62
(dp1935
g70
I4
ssg71
g1929
sg64
(lp1936
S'set([])'
p1937
asbasbasbag57
(g73
g59
NtRp1938
(dp1939
g62
(dp1940
sg71
g1827
sg64
(lp1941
g57
(g78
g59
NtRp1942
(dp1943
g62
(dp1944
g82
g83
ssg71
g1938
sg64
(lp1945
g786
asbag57
(g78
g59
NtRp1946
(dp1947
g62
(dp1948
g89
g90
ssg71
g1938
sg64
(lp1949
S':'
asbag57
(g78
g59
NtRp1950
(dp1951
g62
(dp1952
sg71
g1938
sg64
(lp1953
g57
(g58
g59
NtRp1954
(dp1955
g62
(dp1956
g70
I4
ssg71
g1950
sg64
(lp1957
g100
asbasbasbag57
(g73
g59
NtRp1958
(dp1959
g62
(dp1960
sg71
g1827
sg64
(lp1961
g57
(g78
g59
NtRp1962
(dp1963
g62
(dp1964
g82
g83
ssg71
g1958
sg64
(lp1965
g807
asbag57
(g78
g59
NtRp1966
(dp1967
g62
(dp1968
g89
g90
ssg71
g1958
sg64
(lp1969
S':'
asbag57
(g78
g59
NtRp1970
(dp1971
g62
(dp1972
sg71
g1958
sg64
(lp1973
g57
(g58
g59
NtRp1974
(dp1975
g62
(dp1976
g70
I4
ssg71
g1970
sg64
(lp1977
g820
asbasbasbag57
(g73
g59
NtRp1978
(dp1979
g62
(dp1980
sg71
g1827
sg64
(lp1981
g57
(g78
g59
NtRp1982
(dp1983
g62
(dp1984
g82
g83
ssg71
g1978
sg64
(lp1985
g1005
asbag57
(g78
g59
NtRp1986
(dp1987
g62
(dp1988
g89
g90
ssg71
g1978
sg64
(lp1989
S':'
asbag57
(g78
g59
NtRp1990
(dp1991
g62
(dp1992
sg71
g1978
sg64
(lp1993
g57
(g58
g59
NtRp1994
(dp1995
g62
(dp1996
g70
I4
ssg71
g1990
sg64
(lp1997
g100
asbasbasbag57
(g73
g59
NtRp1998
(dp1999
g62
(dp2000
sg71
g1827
sg64
(lp2001
g57
(g78
g59
NtRp2002
(dp2003
g62
(dp2004
g82
g83
ssg71
g1998
sg64
(lp2005
g1026
asbag57
(g78
g59
NtRp2006
(dp2007
g62
(dp2008
g89
g90
ssg71
g1998
sg64
(lp2009
S':'
asbag57
(g78
g59
NtRp2010
(dp2011
g62
(dp2012
sg71
g1998
sg64
(lp2013
g57
(g58
g59
NtRp2014
(dp2015
g62
(dp2016
g70
I4
ssg71
g2010
sg64
(lp2017
g100
asbasbasbag57
(g73
g59
NtRp2018
(dp2019
g62
(dp2020
sg71
g1827
sg64
(lp2021
g57
(g78
g59
NtRp2022
(dp2023
g62
(dp2024
g82
g83
ssg71
g2018
sg64
(lp2025
g1047
asbag57
(g78
g59
NtRp2026
(dp2027
g62
(dp2028
g89
g90
ssg71
g2018
sg64
(lp2029
S':'
asbag57
(g78
g59
NtRp2030
(dp2031
g62
(dp2032
sg71
g2018
sg64
(lp2033
g57
(g58
g59
NtRp2034
(dp2035
g62
(dp2036
g70
I4
ssg71
g2030
sg64
(lp2037
g57
(g66
g59
NtRp2038
(dp2039
g62
(dp2040
g70
I3
ssg71
Nsg64
(lp2041
g57
(g73
g59
NtRp2042
(dp2043
g62
(dp2044
sg71
g2038
sg64
(lp2045
g57
(g78
g59
NtRp2046
(dp2047
g62
(dp2048
sg71
g2042
sg64
(lp2049
g57
(g58
g59
NtRp2050
(dp2051
g62
(dp2052
g70
I3
ssg71
g2046
sg64
(lp2053
g1076
asbasbasbag57
(g73
g59
NtRp2054
(dp2055
g62
(dp2056
sg71
g2038
sg64
(lp2057
g57
(g78
g59
NtRp2058
(dp2059
g62
(dp2060
sg71
g2054
sg64
(lp2061
g57
(g58
g59
NtRp2062
(dp2063
g62
(dp2064
g70
I3
ssg71
g2058
sg64
(lp2065
g1089
asbasbasbag57
(g73
g59
NtRp2066
(dp2067
g62
(dp2068
sg71
g2038
sg64
(lp2069
g57
(g78
g59
NtRp2070
(dp2071
g62
(dp2072
sg71
g2066
sg64
(lp2073
g57
(g58
g59
NtRp2074
(dp2075
g62
(dp2076
g70
I3
ssg71
g2070
sg64
(lp2077
g1102
asbasbasbag57
(g73
g59
NtRp2078
(dp2079
g62
(dp2080
sg71
g2038
sg64
(lp2081
g57
(g78
g59
NtRp2082
(dp2083
g62
(dp2084
sg71
g2078
sg64
(lp2085
g57
(g58
g59
NtRp2086
(dp2087
g62
(dp2088
g70
I3
ssg71
g2082
sg64
(lp2089
g1115
asbasbasbag57
(g73
g59
NtRp2090
(dp2091
g62
(dp2092
sg71
g2038
sg64
(lp2093
g57
(g78
g59
NtRp2094
(dp2095
g62
(dp2096
sg71
g2090
sg64
(lp2097
g57
(g58
g59
NtRp2098
(dp2099
g62
(dp2100
g70
I3
ssg71
g2094
sg64
(lp2101
g1128
asbasbasbag57
(g73
g59
NtRp2102
(dp2103
g62
(dp2104
sg71
g2038
sg64
(lp2105
g57
(g78
g59
NtRp2106
(dp2107
g62
(dp2108
sg71
g2102
sg64
(lp2109
g57
(g58
g59
NtRp2110
(dp2111
g62
(dp2112
g70
I3
ssg71
g2106
sg64
(lp2113
g1141
asbasbasbag57
(g73
g59
NtRp2114
(dp2115
g62
(dp2116
sg71
g2038
sg64
(lp2117
g57
(g78
g59
NtRp2118
(dp2119
g62
(dp2120
sg71
g2114
sg64
(lp2121
g57
(g58
g59
NtRp2122
(dp2123
g62
(dp2124
g70
I3
ssg71
g2118
sg64
(lp2125
g1154
asbasbasbag57
(g73
g59
NtRp2126
(dp2127
g62
(dp2128
sg71
g2038
sg64
(lp2129
g57
(g78
g59
NtRp2130
(dp2131
g62
(dp2132
sg71
g2126
sg64
(lp2133
g57
(g58
g59
NtRp2134
(dp2135
g62
(dp2136
g70
I3
ssg71
g2130
sg64
(lp2137
g1167
asbasbasbasbasbasbasbag57
(g73
g59
NtRp2138
(dp2139
g62
(dp2140
sg71
g1827
sg64
(lp2141
g57
(g78
g59
NtRp2142
(dp2143
g62
(dp2144
g82
g83
ssg71
g2138
sg64
(lp2145
g1435
asbag57
(g78
g59
NtRp2146
(dp2147
g62
(dp2148
g89
g90
ssg71
g2138
sg64
(lp2149
S':'
asbag57
(g78
g59
NtRp2150
(dp2151
g62
(dp2152
sg71
g2138
sg64
(lp2153
g57
(g58
g59
NtRp2154
(dp2155
g62
(dp2156
g70
I4
ssg71
g2150
sg64
(lp2157
g57
(g66
g59
NtRp2158
(dp2159
g62
(dp2160
g70
I3
ssg71
Nsg64
(lp2161
g57
(g73
g59
NtRp2162
(dp2163
g62
(dp2164
sg71
g2158
sg64
(lp2165
g57
(g78
g59
NtRp2166
(dp2167
g62
(dp2168
sg71
g2162
sg64
(lp2169
g57
(g58
g59
NtRp2170
(dp2171
g62
(dp2172
g70
I3
ssg71
g2166
sg64
(lp2173
S'2'
asbasbasbag57
(g73
g59
NtRp2174
(dp2175
g62
(dp2176
sg71
g2158
sg64
(lp2177
g57
(g78
g59
NtRp2178
(dp2179
g62
(dp2180
sg71
g2174
sg64
(lp2181
g57
(g58
g59
NtRp2182
(dp2183
g62
(dp2184
g70
I3
ssg71
g2178
sg64
(lp2185
S'4'
asbasbasbag57
(g73
g59
NtRp2186
(dp2187
g62
(dp2188
sg71
g2158
sg64
(lp2189
g57
(g78
g59
NtRp2190
(dp2191
g62
(dp2192
sg71
g2186
sg64
(lp2193
g57
(g58
g59
NtRp2194
(dp2195
g62
(dp2196
g70
I3
ssg71
g2190
sg64
(lp2197
S'1'
asbasbasbag57
(g73
g59
NtRp2198
(dp2199
g62
(dp2200
sg71
g2158
sg64
(lp2201
g57
(g78
g59
NtRp2202
(dp2203
g62
(dp2204
sg71
g2198
sg64
(lp2205
g57
(g58
g59
NtRp2206
(dp2207
g62
(dp2208
g70
I3
ssg71
g2202
sg64
(lp2209
g1500
asbasbasbag57
(g73
g59
NtRp2210
(dp2211
g62
(dp2212
sg71
g2158
sg64
(lp2213
g57
(g78
g59
NtRp2214
(dp2215
g62
(dp2216
sg71
g2210
sg64
(lp2217
g57
(g58
g59
NtRp2218
(dp2219
g62
(dp2220
g70
I3
ssg71
g2214
sg64
(lp2221
S'datetime.datetime(2012, 12, 20, 18, 16, 2)'
p2222
asbasbasbasbasbasbasbasbasbasbasbag57
(g73
g59
NtRp2223
(dp2224
g62
(dp2225
sg71
g67
sg64
(lp2226
g57
(g78
g59
NtRp2227
(dp2228
g62
(dp2229
g82
g83
ssg71
g2223
sg64
(lp2230
S'is_https'
p2231
asbag57
(g78
g59
NtRp2232
(dp2233
g62
(dp2234
g89
g90
ssg71
g2223
sg64
(lp2235
S':'
asbag57
(g78
g59
NtRp2236
(dp2237
g62
(dp2238
sg71
g2223
sg64
(lp2239
g57
(g58
g59
NtRp2240
(dp2241
g62
(dp2242
g70
I5
ssg71
g2236
sg64
(lp2243
g100
asbasbasbag57
(g73
g59
NtRp2244
(dp2245
g62
(dp2246
sg71
g67
sg64
(lp2247
g57
(g78
g59
NtRp2248
(dp2249
g62
(dp2250
g82
g83
ssg71
g2244
sg64
(lp2251
S'is_local'
p2252
asbag57
(g78
g59
NtRp2253
(dp2254
g62
(dp2255
g89
g90
ssg71
g2244
sg64
(lp2256
S':'
asbag57
(g78
g59
NtRp2257
(dp2258
g62
(dp2259
sg71
g2244
sg64
(lp2260
g57
(g58
g59
NtRp2261
(dp2262
g62
(dp2263
g70
I5
ssg71
g2257
sg64
(lp2264
g1622
asbasbasbag57
(g73
g59
NtRp2265
(dp2266
g62
(dp2267
sg71
g67
sg64
(lp2268
g57
(g78
g59
NtRp2269
(dp2270
g62
(dp2271
g82
g83
ssg71
g2265
sg64
(lp2272
S'is_restful'
p2273
asbag57
(g78
g59
NtRp2274
(dp2275
g62
(dp2276
g89
g90
ssg71
g2265
sg64
(lp2277
S':'
asbag57
(g78
g59
NtRp2278
(dp2279
g62
(dp2280
sg71
g2265
sg64
(lp2281
g57
(g58
g59
NtRp2282
(dp2283
g62
(dp2284
g70
I5
ssg71
g2278
sg64
(lp2285
g100
asbasbasbag57
(g73
g59
NtRp2286
(dp2287
g62
(dp2288
sg71
g67
sg64
(lp2289
g57
(g78
g59
NtRp2290
(dp2291
g62
(dp2292
g82
g83
ssg71
g2286
sg64
(lp2293
S'now'
p2294
asbag57
(g78
g59
NtRp2295
(dp2296
g62
(dp2297
g89
g90
ssg71
g2286
sg64
(lp2298
S':'
asbag57
(g78
g59
NtRp2299
(dp2300
g62
(dp2301
sg71
g2286
sg64
(lp2302
g57
(g58
g59
NtRp2303
(dp2304
g62
(dp2305
g70
I5
ssg71
g2299
sg64
(lp2306
S'datetime.datetime(2013, 1, 21, 9, 30, 51, 191000)'
p2307
asbasbasbag57
(g73
g59
NtRp2308
(dp2309
g62
(dp2310
sg71
g67
sg64
(lp2311
g57
(g78
g59
NtRp2312
(dp2313
g62
(dp2314
g82
g83
ssg71
g2308
sg64
(lp2315
S'post_vars'
p2316
asbag57
(g78
g59
NtRp2317
(dp2318
g62
(dp2319
g89
g90
ssg71
g2308
sg64
(lp2320
S':'
asbag57
(g78
g59
NtRp2321
(dp2322
g62
(dp2323
sg71
g2308
sg64
(lp2324
g57
(g58
g59
NtRp2325
(dp2326
g62
(dp2327
g70
I5
ssg71
g2321
sg64
(lp2328
g57
(g66
g59
NtRp2329
(dp2330
g62
(dp2331
g70
I4
ssg71
Nsg64
(lp2332
sbasbasbasbag57
(g73
g59
NtRp2333
(dp2334
g62
(dp2335
sg71
g67
sg64
(lp2336
g57
(g78
g59
NtRp2337
(dp2338
g62
(dp2339
g82
g83
ssg71
g2333
sg64
(lp2340
S'raw_args'
p2341
asbag57
(g78
g59
NtRp2342
(dp2343
g62
(dp2344
g89
g90
ssg71
g2333
sg64
(lp2345
S':'
asbag57
(g78
g59
NtRp2346
(dp2347
g62
(dp2348
sg71
g2333
sg64
(lp2349
g57
(g58
g59
NtRp2350
(dp2351
g62
(dp2352
g70
I5
ssg71
g2346
sg64
(lp2353
S''
asbasbasbag57
(g73
g59
NtRp2354
(dp2355
g62
(dp2356
sg71
g67
sg64
(lp2357
g57
(g78
g59
NtRp2358
(dp2359
g62
(dp2360
g82
g83
ssg71
g2354
sg64
(lp2361
S'raw_extension'
p2362
asbag57
(g78
g59
NtRp2363
(dp2364
g62
(dp2365
g89
g90
ssg71
g2354
sg64
(lp2366
S':'
asbag57
(g78
g59
NtRp2367
(dp2368
g62
(dp2369
sg71
g2354
sg64
(lp2370
g57
(g58
g59
NtRp2371
(dp2372
g62
(dp2373
g70
I5
ssg71
g2367
sg64
(lp2374
S'None'
p2375
asbasbasbag57
(g73
g59
NtRp2376
(dp2377
g62
(dp2378
sg71
g67
sg64
(lp2379
g57
(g78
g59
NtRp2380
(dp2381
g62
(dp2382
g82
g83
ssg71
g2376
sg64
(lp2383
S'url'
p2384
asbag57
(g78
g59
NtRp2385
(dp2386
g62
(dp2387
g89
g90
ssg71
g2376
sg64
(lp2388
S':'
asbag57
(g78
g59
NtRp2389
(dp2390
g62
(dp2391
sg71
g2376
sg64
(lp2392
g57
(g58
g59
NtRp2393
(dp2394
g62
(dp2395
g70
I5
ssg71
g2389
sg64
(lp2396
g1189
asbasbasbag57
(g73
g59
NtRp2397
(dp2398
g62
(dp2399
sg71
g67
sg64
(lp2400
g57
(g78
g59
NtRp2401
(dp2402
g62
(dp2403
g82
g83
ssg71
g2397
sg64
(lp2404
S'utcnow'
p2405
asbag57
(g78
g59
NtRp2406
(dp2407
g62
(dp2408
g89
g90
ssg71
g2397
sg64
(lp2409
S':'
asbag57
(g78
g59
NtRp2410
(dp2411
g62
(dp2412
sg71
g2397
sg64
(lp2413
g57
(g58
g59
NtRp2414
(dp2415
g62
(dp2416
g70
I5
ssg71
g2410
sg64
(lp2417
S'datetime.datetime(2013, 1, 21, 2, 30, 51, 191000)'
p2418
asbasbasbag57
(g73
g59
NtRp2419
(dp2420
g62
(dp2421
sg71
g67
sg64
(lp2422
g57
(g78
g59
NtRp2423
(dp2424
g62
(dp2425
g82
g83
ssg71
g2419
sg64
(lp2426
S'uuid'
p2427
asbag57
(g78
g59
NtRp2428
(dp2429
g62
(dp2430
g89
g90
ssg71
g2419
sg64
(lp2431
S':'
asbag57
(g78
g59
NtRp2432
(dp2433
g62
(dp2434
sg71
g2419
sg64
(lp2435
g57
(g58
g59
NtRp2436
(dp2437
g62
(dp2438
g70
I5
ssg71
g2432
sg64
(lp2439
S'welcome/127.0.0.1.2013-01-21.09-30-51.4bc618a5-fb40-4b67-89ba-25a8b469f949'
p2440
asbasbasbag57
(g73
g59
NtRp2441
(dp2442
g62
(dp2443
sg71
g67
sg64
(lp2444
g57
(g78
g59
NtRp2445
(dp2446
g62
(dp2447
g82
g83
ssg71
g2441
sg64
(lp2448
S'vars'
p2449
asbag57
(g78
g59
NtRp2450
(dp2451
g62
(dp2452
g89
g90
ssg71
g2441
sg64
(lp2453
S':'
asbag57
(g78
g59
NtRp2454
(dp2455
g62
(dp2456
sg71
g2441
sg64
(lp2457
g57
(g58
g59
NtRp2458
(dp2459
g62
(dp2460
g70
I5
ssg71
g2454
sg64
(lp2461
g57
(g66
g59
NtRp2462
(dp2463
g62
(dp2464
g70
I4
ssg71
Nsg64
(lp2465
sbasbasbasbag57
(g73
g59
NtRp2466
(dp2467
g62
(dp2468
sg71
g67
sg64
(lp2469
g57
(g78
g59
NtRp2470
(dp2471
g62
(dp2472
g82
g83
ssg71
g2466
sg64
(lp2473
S'wsgi'
p2474
asbag57
(g78
g59
NtRp2475
(dp2476
g62
(dp2477
g89
g90
ssg71
g2466
sg64
(lp2478
S':'
asbag57
(g78
g59
NtRp2479
(dp2480
g62
(dp2481
sg71
g2466
sg64
(lp2482
g57
(g58
g59
NtRp2483
(dp2484
g62
(dp2485
g70
I5
ssg71
g2479
sg64
(lp2486
g57
(g66
g59
NtRp2487
(dp2488
g62
(dp2489
g70
I4
ssg71
Nsg64
(lp2490
g57
(g73
g59
NtRp2491
(dp2492
g62
(dp2493
sg71
g2487
sg64
(lp2494
g57
(g78
g59
NtRp2495
(dp2496
g62
(dp2497
g82
g83
ssg71
g2491
sg64
(lp2498
S'environ'
p2499
asbag57
(g78
g59
NtRp2500
(dp2501
g62
(dp2502
g89
g90
ssg71
g2491
sg64
(lp2503
S':'
asbag57
(g78
g59
NtRp2504
(dp2505
g62
(dp2506
sg71
g2491
sg64
(lp2507
g57
(g58
g59
NtRp2508
(dp2509
g62
(dp2510
g70
I4
ssg71
g2504
sg64
(lp2511
g57
(g66
g59
NtRp2512
(dp2513
g62
(dp2514
g70
I3
ssg71
Nsg64
(lp2515
g57
(g73
g59
NtRp2516
(dp2517
g62
(dp2518
sg71
g2512
sg64
(lp2519
g57
(g78
g59
NtRp2520
(dp2521
g62
(dp2522
g82
g83
ssg71
g2516
sg64
(lp2523
S'HTTP_ACCEPT'
p2524
asbag57
(g78
g59
NtRp2525
(dp2526
g62
(dp2527
g89
g90
ssg71
g2516
sg64
(lp2528
S':'
asbag57
(g78
g59
NtRp2529
(dp2530
g62
(dp2531
sg71
g2516
sg64
(lp2532
g57
(g58
g59
NtRp2533
(dp2534
g62
(dp2535
g70
I3
ssg71
g2529
sg64
(lp2536
g842
asbasbasbag57
(g73
g59
NtRp2537
(dp2538
g62
(dp2539
sg71
g2512
sg64
(lp2540
g57
(g78
g59
NtRp2541
(dp2542
g62
(dp2543
g82
g83
ssg71
g2537
sg64
(lp2544
S'HTTP_ACCEPT_CHARSET'
p2545
asbag57
(g78
g59
NtRp2546
(dp2547
g62
(dp2548
g89
g90
ssg71
g2537
sg64
(lp2549
S':'
asbag57
(g78
g59
NtRp2550
(dp2551
g62
(dp2552
sg71
g2537
sg64
(lp2553
g57
(g58
g59
NtRp2554
(dp2555
g62
(dp2556
g70
I3
ssg71
g2550
sg64
(lp2557
g864
asbasbasbag57
(g73
g59
NtRp2558
(dp2559
g62
(dp2560
sg71
g2512
sg64
(lp2561
g57
(g78
g59
NtRp2562
(dp2563
g62
(dp2564
g82
g83
ssg71
g2558
sg64
(lp2565
S'HTTP_ACCEPT_ENCODING'
p2566
asbag57
(g78
g59
NtRp2567
(dp2568
g62
(dp2569
g89
g90
ssg71
g2558
sg64
(lp2570
S':'
asbag57
(g78
g59
NtRp2571
(dp2572
g62
(dp2573
sg71
g2558
sg64
(lp2574
g57
(g58
g59
NtRp2575
(dp2576
g62
(dp2577
g70
I3
ssg71
g2571
sg64
(lp2578
g886
asbasbasbag57
(g73
g59
NtRp2579
(dp2580
g62
(dp2581
sg71
g2512
sg64
(lp2582
g57
(g78
g59
NtRp2583
(dp2584
g62
(dp2585
g82
g83
ssg71
g2579
sg64
(lp2586
S'HTTP_ACCEPT_LANGUAGE'
p2587
asbag57
(g78
g59
NtRp2588
(dp2589
g62
(dp2590
g89
g90
ssg71
g2579
sg64
(lp2591
S':'
asbag57
(g78
g59
NtRp2592
(dp2593
g62
(dp2594
sg71
g2579
sg64
(lp2595
g57
(g58
g59
NtRp2596
(dp2597
g62
(dp2598
g70
I3
ssg71
g2592
sg64
(lp2599
g908
asbasbasbag57
(g73
g59
NtRp2600
(dp2601
g62
(dp2602
sg71
g2512
sg64
(lp2603
g57
(g78
g59
NtRp2604
(dp2605
g62
(dp2606
g82
g83
ssg71
g2600
sg64
(lp2607
S'HTTP_CONNECTION'
p2608
asbag57
(g78
g59
NtRp2609
(dp2610
g62
(dp2611
g89
g90
ssg71
g2600
sg64
(lp2612
S':'
asbag57
(g78
g59
NtRp2613
(dp2614
g62
(dp2615
sg71
g2600
sg64
(lp2616
g57
(g58
g59
NtRp2617
(dp2618
g62
(dp2619
g70
I3
ssg71
g2613
sg64
(lp2620
g930
asbasbasbag57
(g73
g59
NtRp2621
(dp2622
g62
(dp2623
sg71
g2512
sg64
(lp2624
g57
(g78
g59
NtRp2625
(dp2626
g62
(dp2627
g82
g83
ssg71
g2621
sg64
(lp2628
S'HTTP_COOKIE'
p2629
asbag57
(g78
g59
NtRp2630
(dp2631
g62
(dp2632
g89
g90
ssg71
g2621
sg64
(lp2633
S':'
asbag57
(g78
g59
NtRp2634
(dp2635
g62
(dp2636
sg71
g2621
sg64
(lp2637
g57
(g58
g59
NtRp2638
(dp2639
g62
(dp2640
g70
I3
ssg71
g2634
sg64
(lp2641
g952
asbasbasbag57
(g73
g59
NtRp2642
(dp2643
g62
(dp2644
sg71
g2512
sg64
(lp2645
g57
(g78
g59
NtRp2646
(dp2647
g62
(dp2648
g82
g83
ssg71
g2642
sg64
(lp2649
S'HTTP_HOST'
p2650
asbag57
(g78
g59
NtRp2651
(dp2652
g62
(dp2653
g89
g90
ssg71
g2642
sg64
(lp2654
S':'
asbag57
(g78
g59
NtRp2655
(dp2656
g62
(dp2657
sg71
g2642
sg64
(lp2658
g57
(g58
g59
NtRp2659
(dp2660
g62
(dp2661
g70
I3
ssg71
g2655
sg64
(lp2662
g974
asbasbasbag57
(g73
g59
NtRp2663
(dp2664
g62
(dp2665
sg71
g2512
sg64
(lp2666
g57
(g78
g59
NtRp2667
(dp2668
g62
(dp2669
g82
g83
ssg71
g2663
sg64
(lp2670
S'HTTP_USER_AGENT'
p2671
asbag57
(g78
g59
NtRp2672
(dp2673
g62
(dp2674
g89
g90
ssg71
g2663
sg64
(lp2675
S':'
asbag57
(g78
g59
NtRp2676
(dp2677
g62
(dp2678
sg71
g2663
sg64
(lp2679
g57
(g58
g59
NtRp2680
(dp2681
g62
(dp2682
g70
I3
ssg71
g2676
sg64
(lp2683
g996
asbasbasbag57
(g73
g59
NtRp2684
(dp2685
g62
(dp2686
sg71
g2512
sg64
(lp2687
g57
(g78
g59
NtRp2688
(dp2689
g62
(dp2690
g82
g83
ssg71
g2684
sg64
(lp2691
S'PATH_INFO'
p2692
asbag57
(g78
g59
NtRp2693
(dp2694
g62
(dp2695
g89
g90
ssg71
g2684
sg64
(lp2696
S':'
asbag57
(g78
g59
NtRp2697
(dp2698
g62
(dp2699
sg71
g2684
sg64
(lp2700
g57
(g58
g59
NtRp2701
(dp2702
g62
(dp2703
g70
I3
ssg71
g2697
sg64
(lp2704
g1189
asbasbasbag57
(g73
g59
NtRp2705
(dp2706
g62
(dp2707
sg71
g2512
sg64
(lp2708
g57
(g78
g59
NtRp2709
(dp2710
g62
(dp2711
g82
g83
ssg71
g2705
sg64
(lp2712
S'QUERY_STRING'
p2713
asbag57
(g78
g59
NtRp2714
(dp2715
g62
(dp2716
g89
g90
ssg71
g2705
sg64
(lp2717
S':'
asbag57
(g78
g59
NtRp2718
(dp2719
g62
(dp2720
sg71
g2705
sg64
(lp2721
g57
(g58
g59
NtRp2722
(dp2723
g62
(dp2724
g70
I3
ssg71
g2718
sg64
(lp2725
S''
asbasbasbag57
(g73
g59
NtRp2726
(dp2727
g62
(dp2728
sg71
g2512
sg64
(lp2729
g57
(g78
g59
NtRp2730
(dp2731
g62
(dp2732
g82
g83
ssg71
g2726
sg64
(lp2733
S'REMOTE_ADDR'
p2734
asbag57
(g78
g59
NtRp2735
(dp2736
g62
(dp2737
g89
g90
ssg71
g2726
sg64
(lp2738
S':'
asbag57
(g78
g59
NtRp2739
(dp2740
g62
(dp2741
sg71
g2726
sg64
(lp2742
g57
(g58
g59
NtRp2743
(dp2744
g62
(dp2745
g70
I3
ssg71
g2739
sg64
(lp2746
g212
asbasbasbag57
(g73
g59
NtRp2747
(dp2748
g62
(dp2749
sg71
g2512
sg64
(lp2750
g57
(g78
g59
NtRp2751
(dp2752
g62
(dp2753
g82
g83
ssg71
g2747
sg64
(lp2754
S'REMOTE_PORT'
p2755
asbag57
(g78
g59
NtRp2756
(dp2757
g62
(dp2758
g89
g90
ssg71
g2747
sg64
(lp2759
S':'
asbag57
(g78
g59
NtRp2760
(dp2761
g62
(dp2762
sg71
g2747
sg64
(lp2763
g57
(g58
g59
NtRp2764
(dp2765
g62
(dp2766
g70
I3
ssg71
g2760
sg64
(lp2767
g1253
asbasbasbag57
(g73
g59
NtRp2768
(dp2769
g62
(dp2770
sg71
g2512
sg64
(lp2771
g57
(g78
g59
NtRp2772
(dp2773
g62
(dp2774
g82
g83
ssg71
g2768
sg64
(lp2775
S'REQUEST_METHOD'
p2776
asbag57
(g78
g59
NtRp2777
(dp2778
g62
(dp2779
g89
g90
ssg71
g2768
sg64
(lp2780
S':'
asbag57
(g78
g59
NtRp2781
(dp2782
g62
(dp2783
sg71
g2768
sg64
(lp2784
g57
(g58
g59
NtRp2785
(dp2786
g62
(dp2787
g70
I3
ssg71
g2781
sg64
(lp2788
g1275
asbasbasbag57
(g73
g59
NtRp2789
(dp2790
g62
(dp2791
sg71
g2512
sg64
(lp2792
g57
(g78
g59
NtRp2793
(dp2794
g62
(dp2795
g82
g83
ssg71
g2789
sg64
(lp2796
S'REQUEST_URI'
p2797
asbag57
(g78
g59
NtRp2798
(dp2799
g62
(dp2800
g89
g90
ssg71
g2789
sg64
(lp2801
S':'
asbag57
(g78
g59
NtRp2802
(dp2803
g62
(dp2804
sg71
g2789
sg64
(lp2805
g57
(g58
g59
NtRp2806
(dp2807
g62
(dp2808
g70
I3
ssg71
g2802
sg64
(lp2809
g1189
asbasbasbag57
(g73
g59
NtRp2810
(dp2811
g62
(dp2812
sg71
g2512
sg64
(lp2813
g57
(g78
g59
NtRp2814
(dp2815
g62
(dp2816
g82
g83
ssg71
g2810
sg64
(lp2817
S'SCRIPT_NAME'
p2818
asbag57
(g78
g59
NtRp2819
(dp2820
g62
(dp2821
g89
g90
ssg71
g2810
sg64
(lp2822
S':'
asbag57
(g78
g59
NtRp2823
(dp2824
g62
(dp2825
sg71
g2810
sg64
(lp2826
g57
(g58
g59
NtRp2827
(dp2828
g62
(dp2829
g70
I3
ssg71
g2823
sg64
(lp2830
S''
asbasbasbag57
(g73
g59
NtRp2831
(dp2832
g62
(dp2833
sg71
g2512
sg64
(lp2834
g57
(g78
g59
NtRp2835
(dp2836
g62
(dp2837
g82
g83
ssg71
g2831
sg64
(lp2838
S'SERVER_NAME'
p2839
asbag57
(g78
g59
NtRp2840
(dp2841
g62
(dp2842
g89
g90
ssg71
g2831
sg64
(lp2843
S':'
asbag57
(g78
g59
NtRp2844
(dp2845
g62
(dp2846
sg71
g2831
sg64
(lp2847
g57
(g58
g59
NtRp2848
(dp2849
g62
(dp2850
g70
I3
ssg71
g2844
sg64
(lp2851
g1339
asbasbasbag57
(g73
g59
NtRp2852
(dp2853
g62
(dp2854
sg71
g2512
sg64
(lp2855
g57
(g78
g59
NtRp2856
(dp2857
g62
(dp2858
g82
g83
ssg71
g2852
sg64
(lp2859
S'SERVER_PORT'
p2860
asbag57
(g78
g59
NtRp2861
(dp2862
g62
(dp2863
g89
g90
ssg71
g2852
sg64
(lp2864
S':'
asbag57
(g78
g59
NtRp2865
(dp2866
g62
(dp2867
sg71
g2852
sg64
(lp2868
g57
(g58
g59
NtRp2869
(dp2870
g62
(dp2871
g70
I3
ssg71
g2865
sg64
(lp2872
g1361
asbasbasbag57
(g73
g59
NtRp2873
(dp2874
g62
(dp2875
sg71
g2512
sg64
(lp2876
g57
(g78
g59
NtRp2877
(dp2878
g62
(dp2879
g82
g83
ssg71
g2873
sg64
(lp2880
S'SERVER_PROTOCOL'
p2881
asbag57
(g78
g59
NtRp2882
(dp2883
g62
(dp2884
g89
g90
ssg71
g2873
sg64
(lp2885
S':'
asbag57
(g78
g59
NtRp2886
(dp2887
g62
(dp2888
sg71
g2873
sg64
(lp2889
g57
(g58
g59
NtRp2890
(dp2891
g62
(dp2892
g70
I3
ssg71
g2886
sg64
(lp2893
g1383
asbasbasbag57
(g73
g59
NtRp2894
(dp2895
g62
(dp2896
sg71
g2512
sg64
(lp2897
g57
(g78
g59
NtRp2898
(dp2899
g62
(dp2900
g82
g83
ssg71
g2894
sg64
(lp2901
S'SERVER_SOFTWARE'
p2902
asbag57
(g78
g59
NtRp2903
(dp2904
g62
(dp2905
g89
g90
ssg71
g2894
sg64
(lp2906
S':'
asbag57
(g78
g59
NtRp2907
(dp2908
g62
(dp2909
sg71
g2894
sg64
(lp2910
g57
(g58
g59
NtRp2911
(dp2912
g62
(dp2913
g70
I3
ssg71
g2907
sg64
(lp2914
g1405
asbasbasbag57
(g73
g59
NtRp2915
(dp2916
g62
(dp2917
sg71
g2512
sg64
(lp2918
g57
(g78
g59
NtRp2919
(dp2920
g62
(dp2921
g82
g83
ssg71
g2915
sg64
(lp2922
S'wsgi.errors'
p2923
asbag57
(g78
g59
NtRp2924
(dp2925
g62
(dp2926
g89
g90
ssg71
g2915
sg64
(lp2927
S':'
asbag57
(g78
g59
NtRp2928
(dp2929
g62
(dp2930
sg71
g2915
sg64
(lp2931
g57
(g58
g59
NtRp2932
(dp2933
g62
(dp2934
g70
I3
ssg71
g2928
sg64
(lp2935
S"<open file '<stderr>', mode 'w' at 0x00000000005961E0>"
p2936
asbasbasbag57
(g73
g59
NtRp2937
(dp2938
g62
(dp2939
sg71
g2512
sg64
(lp2940
g57
(g78
g59
NtRp2941
(dp2942
g62
(dp2943
g82
g83
ssg71
g2937
sg64
(lp2944
S'wsgi.file_wrapper'
p2945
asbag57
(g78
g59
NtRp2946
(dp2947
g62
(dp2948
g89
g90
ssg71
g2937
sg64
(lp2949
S':'
asbag57
(g78
g59
NtRp2950
(dp2951
g62
(dp2952
sg71
g2937
sg64
(lp2953
g57
(g58
g59
NtRp2954
(dp2955
g62
(dp2956
g70
I3
ssg71
g2950
sg64
(lp2957
S'<class wsgiref.util.FileWrapper at 0x00000000036ECEE8>'
p2958
asbasbasbag57
(g73
g59
NtRp2959
(dp2960
g62
(dp2961
sg71
g2512
sg64
(lp2962
g57
(g78
g59
NtRp2963
(dp2964
g62
(dp2965
g82
g83
ssg71
g2959
sg64
(lp2966
S'wsgi.input'
p2967
asbag57
(g78
g59
NtRp2968
(dp2969
g62
(dp2970
g89
g90
ssg71
g2959
sg64
(lp2971
S':'
asbag57
(g78
g59
NtRp2972
(dp2973
g62
(dp2974
sg71
g2959
sg64
(lp2975
g57
(g58
g59
NtRp2976
(dp2977
g62
(dp2978
g70
I3
ssg71
g2972
sg64
(lp2979
S'<cStringIO.StringO object at 0x000000000377C340>'
p2980
asbasbasbag57
(g73
g59
NtRp2981
(dp2982
g62
(dp2983
sg71
g2512
sg64
(lp2984
g57
(g78
g59
NtRp2985
(dp2986
g62
(dp2987
g82
g83
ssg71
g2981
sg64
(lp2988
S'wsgi.multiprocess'
p2989
asbag57
(g78
g59
NtRp2990
(dp2991
g62
(dp2992
g89
g90
ssg71
g2981
sg64
(lp2993
S':'
asbag57
(g78
g59
NtRp2994
(dp2995
g62
(dp2996
sg71
g2981
sg64
(lp2997
g57
(g58
g59
NtRp2998
(dp2999
g62
(dp3000
g70
I3
ssg71
g2994
sg64
(lp3001
g100
asbasbasbag57
(g73
g59
NtRp3002
(dp3003
g62
(dp3004
sg71
g2512
sg64
(lp3005
g57
(g78
g59
NtRp3006
(dp3007
g62
(dp3008
g82
g83
ssg71
g3002
sg64
(lp3009
S'wsgi.multithread'
p3010
asbag57
(g78
g59
NtRp3011
(dp3012
g62
(dp3013
g89
g90
ssg71
g3002
sg64
(lp3014
S':'
asbag57
(g78
g59
NtRp3015
(dp3016
g62
(dp3017
sg71
g3002
sg64
(lp3018
g57
(g58
g59
NtRp3019
(dp3020
g62
(dp3021
g70
I3
ssg71
g3015
sg64
(lp3022
g1622
asbasbasbag57
(g73
g59
NtRp3023
(dp3024
g62
(dp3025
sg71
g2512
sg64
(lp3026
g57
(g78
g59
NtRp3027
(dp3028
g62
(dp3029
g82
g83
ssg71
g3023
sg64
(lp3030
S'wsgi.run_once'
p3031
asbag57
(g78
g59
NtRp3032
(dp3033
g62
(dp3034
g89
g90
ssg71
g3023
sg64
(lp3035
S':'
asbag57
(g78
g59
NtRp3036
(dp3037
g62
(dp3038
sg71
g3023
sg64
(lp3039
g57
(g58
g59
NtRp3040
(dp3041
g62
(dp3042
g70
I3
ssg71
g3036
sg64
(lp3043
g100
asbasbasbag57
(g73
g59
NtRp3044
(dp3045
g62
(dp3046
sg71
g2512
sg64
(lp3047
g57
(g78
g59
NtRp3048
(dp3049
g62
(dp3050
g82
g83
ssg71
g3044
sg64
(lp3051
S'wsgi.url_scheme'
p3052
asbag57
(g78
g59
NtRp3053
(dp3054
g62
(dp3055
g89
g90
ssg71
g3044
sg64
(lp3056
S':'
asbag57
(g78
g59
NtRp3057
(dp3058
g62
(dp3059
sg71
g3044
sg64
(lp3060
g57
(g58
g59
NtRp3061
(dp3062
g62
(dp3063
g70
I3
ssg71
g3057
sg64
(lp3064
g1665
asbasbasbag57
(g73
g59
NtRp3065
(dp3066
g62
(dp3067
sg71
g2512
sg64
(lp3068
g57
(g78
g59
NtRp3069
(dp3070
g62
(dp3071
g82
g83
ssg71
g3065
sg64
(lp3072
S'wsgi.version'
p3073
asbag57
(g78
g59
NtRp3074
(dp3075
g62
(dp3076
g89
g90
ssg71
g3065
sg64
(lp3077
S':'
asbag57
(g78
g59
NtRp3078
(dp3079
g62
(dp3080
sg71
g3065
sg64
(lp3081
g57
(g58
g59
NtRp3082
(dp3083
g62
(dp3084
g70
I3
ssg71
g3078
sg64
(lp3085
S'1'
asbasbasbasbasbasbasbasbasbasbasbasbasbsS'frames'
p3086
(lp3087
(dp3088
S'file'
p3089
S'D:\\Work\\webRTC\\web2py\\gluon\\restricted.py'
p3090
sS'dump'
p3091
(dp3092
S'environment'
p3093
S"{'A': <class 'gluon.html.A'>, 'Auth': <class 'gluon.tools.Auth'>, 'B': <class 'gluon.html.B'>, 'BEAUTIFY': <class 'gluon.html.BEAUTIFY'>, 'BODY': <class 'gluon.html.BODY'>, 'BR': <class 'gluon.html.BR'>, 'BUTTON': <class 'gluon.html.BUTTON'>, 'CAT': <class 'gluon.html.CAT'>, 'CENTER': <class 'gluon.html.CENTER'>, 'CLEANUP': <class 'gluon.validators.CLEANUP'>, ...}"
p3094
sS'ccode'
p3095
S'<code object <module> at 00000000054DB830, file ...cations\\welcome\\views\\webrtc/index.html", line 1>'
p3096
ssS'lnum'
p3097
I212
sS'lines'
p3098
(dp3099
I207
S'    try:'
p3100
sI208
S'        if isinstance(code, types.CodeType):'
p3101
sI209
S'            ccode = code'
p3102
sI210
S'        else:'
p3103
sI211
S'            ccode = compile2(code, layer)'
p3104
sI212
S'        exec ccode in environment'
p3105
sI213
S'    except HTTP:'
p3106
sI214
S'        raise'
p3107
sI215
S'    except RestrictedError:'
p3108
sI216
S'        # do not encapsulate (obfuscate) the original RestrictedError'
p3109
ssS'call'
p3110
S'(code=\'response.write(\\\'<!DOCTYPE html>\\\\n<!-- paulirish...."></script>\\\\n</body>\\\\n</html>\\\\n\\\\n\\\', escape=False)\', environment={\'A\': <class \'gluon.html.A\'>, \'Auth\': <class \'gluon.tools.Auth\'>, \'B\': <class \'gluon.html.B\'>, \'BEAUTIFY\': <class \'gluon.html.BEAUTIFY\'>, \'BODY\': <class \'gluon.html.BODY\'>, \'BR\': <class \'gluon.html.BR\'>, \'BUTTON\': <class \'gluon.html.BUTTON\'>, \'CAT\': <class \'gluon.html.CAT\'>, \'CENTER\': <class \'gluon.html.CENTER\'>, \'CLEANUP\': <class \'gluon.validators.CLEANUP\'>, ...}, layer=r\'D:\\Work\\webRTC\\web2py\\applications\\welcome\\views\\webrtc/index.html\')'
p3111
sS'func'
p3112
S'restricted'
p3113
sa(dp3114
g3089
S'D:\\Work\\webRTC\\web2py\\applications\\welcome\\views\\webrtc\\index.html'
p3115
sg3091
(dp3116
sg3097
I83
sg3098
(dp3117
I74
S"    response.write('\\n        </div>\\n        ', escape=False)"
p3118
sI75
S'    pass'
p3119
sI76
S'response.write(\'\\n\\n        <div class="\', escape=False)'
p3120
sI77
S'response.write(middle_columns)'
p3121
sI78
S'response.write(\'">\\n            \', escape=False)'
p3122
sI79
S"response.write('\\n            ', escape=False)"
p3123
sI80
S'response.write(\'\\r\\n<h1>This is the webrtc/index.html template</h1>\\r\\n<video id="local_video" autoplay="autoplay"></video>\\r\\n\\r\\n<video id="remote_video" autoplay="autoplay"></video>\\r\\n<input type="button" onclick = "getConnection()"/>\\r\\n<script>\\r\\n    var isCaller = \', escape=False)'
p3124
sI81
S'response.write(isCaller)'
p3125
sI82
S'response.write(\';\\r\\n    var dest = "\', escape=False)'
p3126
sI83
S'response.write(dest)'
p3127
sI84
S'response.write(\'"\\r\\n</script>\\r\\n\', escape=False)'
p3128
sI85
S"response.write('\\n            ', escape=False)"
p3129
sI86
S"response.write('\\n        </div>\\n\\n        ', escape=False)"
p3130
sI87
S'if right_sidebar_enabled:'
p3131
sI88
S'    response.write(\'\\n        <div class="span3">\\n            \', escape=False)'
p3132
sI89
S"    response.write('\\n            <h3>Right Sidebar</h3>\\n            <p></p>\\n            ', escape=False)"
p3133
sI90
S"    response.write('\\n        </div>\\n        ', escape=False)"
p3134
sI91
S'    pass'
p3135
sI92
S'response.write(\'\\n    </section><!--/main-->\\n\\n    <!-- Footer ================================================== -->\\n    <div class="row">\\n        <footer class="footer span12" id="footer">\\n            <div class="footer-content">\\n                \', escape=False)'
p3136
sI93
S'response.write(\' <!-- this is default footer -->\\n                <div class="copyright pull-left">\', escape=False)'
p3137
ssg3110
S'()'
p3138
sg3112
S'<module>'
p3139
sasS'pyver'
p3140
S'Python 2.7.3: d:\\python27\\python.exe\xa0'
p3141
sS'session'
p3142
g57
(g58
g59
NtRp3143
(dp3144
g62
(dp3145
sg64
(lp3146
g57
(g66
g59
NtRp3147
(dp3148
g62
(dp3149
g70
I5
ssg71
Nsg64
(lp3150
sbasbsS'etype'
p3151
S"<type 'exceptions.NameError'>"
p3152
sS'date'
p3153
S'Mon Jan 21 09:30:51 2013'
p3154
sS'response'
p3155
g57
(g58
g59
NtRp3156
(dp3157
g62
(dp3158
sg64
(lp3159
g57
(g66
g59
NtRp3160
(dp3161
g62
(dp3162
g70
I5
ssg71
Nsg64
(lp3163
g57
(g73
g59
NtRp3164
(dp3165
g62
(dp3166
sg71
g3160
sg64
(lp3167
g57
(g78
g59
NtRp3168
(dp3169
g62
(dp3170
g82
g83
ssg71
g3164
sg64
(lp3171
g155
asbag57
(g78
g59
NtRp3172
(dp3173
g62
(dp3174
g89
g90
ssg71
g3164
sg64
(lp3175
S':'
asbag57
(g78
g59
NtRp3176
(dp3177
g62
(dp3178
sg71
g3164
sg64
(lp3179
g57
(g58
g59
NtRp3180
(dp3181
g62
(dp3182
g70
I5
ssg71
g3176
sg64
(lp3183
S'<cStringIO.StringO object at 0x000000000568B2D0>'
p3184
asbasbasbag57
(g73
g59
NtRp3185
(dp3186
g62
(dp3187
sg71
g3160
sg64
(lp3188
g57
(g78
g59
NtRp3189
(dp3190
g62
(dp3191
g82
g83
ssg71
g3185
sg64
(lp3192
g243
asbag57
(g78
g59
NtRp3193
(dp3194
g62
(dp3195
g89
g90
ssg71
g3185
sg64
(lp3196
S':'
asbag57
(g78
g59
NtRp3197
(dp3198
g62
(dp3199
sg71
g3185
sg64
(lp3200
g57
(g58
g59
NtRp3201
(dp3202
g62
(dp3203
g70
I5
ssg71
g3197
sg64
(lp3204
g57
(g66
g59
NtRp3205
(dp3206
g62
(dp3207
g70
I4
ssg71
Nsg64
(lp3208
g57
(g73
g59
NtRp3209
(dp3210
g62
(dp3211
sg71
g3205
sg64
(lp3212
g57
(g78
g59
NtRp3213
(dp3214
g62
(dp3215
g82
g83
ssg71
g3209
sg64
(lp3216
S'session_id_welcome'
p3217
asbag57
(g78
g59
NtRp3218
(dp3219
g62
(dp3220
g89
g90
ssg71
g3209
sg64
(lp3221
S':'
asbag57
(g78
g59
NtRp3222
(dp3223
g62
(dp3224
sg71
g3209
sg64
(lp3225
g57
(g58
g59
NtRp3226
(dp3227
g62
(dp3228
g70
I4
ssg71
g3222
sg64
(lp3229
g475
ag57
(g66
g59
NtRp3230
(dp3231
g62
(dp3232
g70
I3
ssg71
Nsg64
(lp3233
g57
(g73
g59
NtRp3234
(dp3235
g62
(dp3236
sg71
g3230
sg64
(lp3237
g57
(g78
g59
NtRp3238
(dp3239
g62
(dp3240
g82
g83
ssg71
g3234
sg64
(lp3241
g294
asbag57
(g78
g59
NtRp3242
(dp3243
g62
(dp3244
g89
g90
ssg71
g3234
sg64
(lp3245
S':'
asbag57
(g78
g59
NtRp3246
(dp3247
g62
(dp3248
sg71
g3234
sg64
(lp3249
g57
(g58
g59
NtRp3250
(dp3251
g62
(dp3252
g70
I3
ssg71
g3246
sg64
(lp3253
S''
asbasbasbag57
(g73
g59
NtRp3254
(dp3255
g62
(dp3256
sg71
g3230
sg64
(lp3257
g57
(g78
g59
NtRp3258
(dp3259
g62
(dp3260
g82
g83
ssg71
g3254
sg64
(lp3261
g315
asbag57
(g78
g59
NtRp3262
(dp3263
g62
(dp3264
g89
g90
ssg71
g3254
sg64
(lp3265
S':'
asbag57
(g78
g59
NtRp3266
(dp3267
g62
(dp3268
sg71
g3254
sg64
(lp3269
g57
(g58
g59
NtRp3270
(dp3271
g62
(dp3272
g70
I3
ssg71
g3266
sg64
(lp3273
S''
asbasbasbag57
(g73
g59
NtRp3274
(dp3275
g62
(dp3276
sg71
g3230
sg64
(lp3277
g57
(g78
g59
NtRp3278
(dp3279
g62
(dp3280
g82
g83
ssg71
g3274
sg64
(lp3281
g336
asbag57
(g78
g59
NtRp3282
(dp3283
g62
(dp3284
g89
g90
ssg71
g3274
sg64
(lp3285
S':'
asbag57
(g78
g59
NtRp3286
(dp3287
g62
(dp3288
sg71
g3274
sg64
(lp3289
g57
(g58
g59
NtRp3290
(dp3291
g62
(dp3292
g70
I3
ssg71
g3286
sg64
(lp3293
S''
asbasbasbag57
(g73
g59
NtRp3294
(dp3295
g62
(dp3296
sg71
g3230
sg64
(lp3297
g57
(g78
g59
NtRp3298
(dp3299
g62
(dp3300
g82
g83
ssg71
g3294
sg64
(lp3301
g357
asbag57
(g78
g59
NtRp3302
(dp3303
g62
(dp3304
g89
g90
ssg71
g3294
sg64
(lp3305
S':'
asbag57
(g78
g59
NtRp3306
(dp3307
g62
(dp3308
sg71
g3294
sg64
(lp3309
g57
(g58
g59
NtRp3310
(dp3311
g62
(dp3312
g70
I3
ssg71
g3306
sg64
(lp3313
S''
asbasbasbag57
(g73
g59
NtRp3314
(dp3315
g62
(dp3316
sg71
g3230
sg64
(lp3317
g57
(g78
g59
NtRp3318
(dp3319
g62
(dp3320
g82
g83
ssg71
g3314
sg64
(lp3321
g378
asbag57
(g78
g59
NtRp3322
(dp3323
g62
(dp3324
g89
g90
ssg71
g3314
sg64
(lp3325
S':'
asbag57
(g78
g59
NtRp3326
(dp3327
g62
(dp3328
sg71
g3314
sg64
(lp3329
g57
(g58
g59
NtRp3330
(dp3331
g62
(dp3332
g70
I3
ssg71
g3326
sg64
(lp3333
S''
asbasbasbag57
(g73
g59
NtRp3334
(dp3335
g62
(dp3336
sg71
g3230
sg64
(lp3337
g57
(g78
g59
NtRp3338
(dp3339
g62
(dp3340
g82
g83
ssg71
g3334
sg64
(lp3341
g399
asbag57
(g78
g59
NtRp3342
(dp3343
g62
(dp3344
g89
g90
ssg71
g3334
sg64
(lp3345
S':'
asbag57
(g78
g59
NtRp3346
(dp3347
g62
(dp3348
sg71
g3334
sg64
(lp3349
g57
(g58
g59
NtRp3350
(dp3351
g62
(dp3352
g70
I3
ssg71
g3346
sg64
(lp3353
S'/'
asbasbasbag57
(g73
g59
NtRp3354
(dp3355
g62
(dp3356
sg71
g3230
sg64
(lp3357
g57
(g78
g59
NtRp3358
(dp3359
g62
(dp3360
g82
g83
ssg71
g3354
sg64
(lp3361
g420
asbag57
(g78
g59
NtRp3362
(dp3363
g62
(dp3364
g89
g90
ssg71
g3354
sg64
(lp3365
S':'
asbag57
(g78
g59
NtRp3366
(dp3367
g62
(dp3368
sg71
g3354
sg64
(lp3369
g57
(g58
g59
NtRp3370
(dp3371
g62
(dp3372
g70
I3
ssg71
g3366
sg64
(lp3373
S''
asbasbasbag57
(g73
g59
NtRp3374
(dp3375
g62
(dp3376
sg71
g3230
sg64
(lp3377
g57
(g78
g59
NtRp3378
(dp3379
g62
(dp3380
g82
g83
ssg71
g3374
sg64
(lp3381
g441
asbag57
(g78
g59
NtRp3382
(dp3383
g62
(dp3384
g89
g90
ssg71
g3374
sg64
(lp3385
S':'
asbag57
(g78
g59
NtRp3386
(dp3387
g62
(dp3388
sg71
g3374
sg64
(lp3389
g57
(g58
g59
NtRp3390
(dp3391
g62
(dp3392
g70
I3
ssg71
g3386
sg64
(lp3393
S''
asbasbasbasbasbasbasbasbasbasbasbag57
(g73
g59
NtRp3394
(dp3395
g62
(dp3396
sg71
g3160
sg64
(lp3397
g57
(g78
g59
NtRp3398
(dp3399
g62
(dp3400
g82
g83
ssg71
g3394
sg64
(lp3401
S'delimiters'
p3402
asbag57
(g78
g59
NtRp3403
(dp3404
g62
(dp3405
g89
g90
ssg71
g3394
sg64
(lp3406
S':'
asbag57
(g78
g59
NtRp3407
(dp3408
g62
(dp3409
sg71
g3394
sg64
(lp3410
g57
(g58
g59
NtRp3411
(dp3412
g62
(dp3413
g70
I5
ssg71
g3407
sg64
(lp3414
g57
(g66
g59
NtRp3415
(dp3416
g62
(dp3417
g70
I4
ssg71
Nsg64
(lp3418
g57
(g73
g59
NtRp3419
(dp3420
g62
(dp3421
sg71
g3415
sg64
(lp3422
g57
(g78
g59
NtRp3423
(dp3424
g62
(dp3425
sg71
g3419
sg64
(lp3426
g57
(g58
g59
NtRp3427
(dp3428
g62
(dp3429
g70
I4
ssg71
g3423
sg64
(lp3430
S'{{'
p3431
asbasbasbag57
(g73
g59
NtRp3432
(dp3433
g62
(dp3434
sg71
g3415
sg64
(lp3435
g57
(g78
g59
NtRp3436
(dp3437
g62
(dp3438
sg71
g3432
sg64
(lp3439
g57
(g58
g59
NtRp3440
(dp3441
g62
(dp3442
g70
I4
ssg71
g3436
sg64
(lp3443
S'}}'
p3444
asbasbasbasbasbasbasbag57
(g73
g59
NtRp3445
(dp3446
g62
(dp3447
sg71
g3160
sg64
(lp3448
g57
(g78
g59
NtRp3449
(dp3450
g62
(dp3451
g82
g83
ssg71
g3445
sg64
(lp3452
S'files'
p3453
asbag57
(g78
g59
NtRp3454
(dp3455
g62
(dp3456
g89
g90
ssg71
g3445
sg64
(lp3457
S':'
asbag57
(g78
g59
NtRp3458
(dp3459
g62
(dp3460
sg71
g3445
sg64
(lp3461
g57
(g58
g59
NtRp3462
(dp3463
g62
(dp3464
g70
I5
ssg71
g3458
sg64
(lp3465
g57
(g66
g59
NtRp3466
(dp3467
g62
(dp3468
g70
I4
ssg71
Nsg64
(lp3469
g57
(g73
g59
NtRp3470
(dp3471
g62
(dp3472
sg71
g3466
sg64
(lp3473
g57
(g78
g59
NtRp3474
(dp3475
g62
(dp3476
sg71
g3470
sg64
(lp3477
g57
(g58
g59
NtRp3478
(dp3479
g62
(dp3480
g70
I4
ssg71
g3474
sg64
(lp3481
S'/welcome/static/js/jquery.js'
p3482
asbasbasbag57
(g73
g59
NtRp3483
(dp3484
g62
(dp3485
sg71
g3466
sg64
(lp3486
g57
(g78
g59
NtRp3487
(dp3488
g62
(dp3489
sg71
g3483
sg64
(lp3490
g57
(g58
g59
NtRp3491
(dp3492
g62
(dp3493
g70
I4
ssg71
g3487
sg64
(lp3494
S'/welcome/static/css/calendar.css'
p3495
asbasbasbag57
(g73
g59
NtRp3496
(dp3497
g62
(dp3498
sg71
g3466
sg64
(lp3499
g57
(g78
g59
NtRp3500
(dp3501
g62
(dp3502
sg71
g3496
sg64
(lp3503
g57
(g58
g59
NtRp3504
(dp3505
g62
(dp3506
g70
I4
ssg71
g3500
sg64
(lp3507
S'/welcome/static/js/calendar.js'
p3508
asbasbasbag57
(g73
g59
NtRp3509
(dp3510
g62
(dp3511
sg71
g3466
sg64
(lp3512
g57
(g78
g59
NtRp3513
(dp3514
g62
(dp3515
sg71
g3509
sg64
(lp3516
g57
(g58
g59
NtRp3517
(dp3518
g62
(dp3519
g70
I4
ssg71
g3513
sg64
(lp3520
S'/welcome/static/js/web2py.js'
p3521
asbasbasbag57
(g73
g59
NtRp3522
(dp3523
g62
(dp3524
sg71
g3466
sg64
(lp3525
g57
(g78
g59
NtRp3526
(dp3527
g62
(dp3528
sg71
g3522
sg64
(lp3529
g57
(g58
g59
NtRp3530
(dp3531
g62
(dp3532
g70
I4
ssg71
g3526
sg64
(lp3533
S'/welcome/static/js/adapter.js'
p3534
asbasbasbag57
(g73
g59
NtRp3535
(dp3536
g62
(dp3537
sg71
g3466
sg64
(lp3538
g57
(g78
g59
NtRp3539
(dp3540
g62
(dp3541
sg71
g3535
sg64
(lp3542
g57
(g58
g59
NtRp3543
(dp3544
g62
(dp3545
g70
I4
ssg71
g3539
sg64
(lp3546
S'/welcome/static/js/rtc.js'
p3547
asbasbasbag57
(g73
g59
NtRp3548
(dp3549
g62
(dp3550
sg71
g3466
sg64
(lp3551
g57
(g78
g59
NtRp3552
(dp3553
g62
(dp3554
sg71
g3548
sg64
(lp3555
g57
(g58
g59
NtRp3556
(dp3557
g62
(dp3558
g70
I4
ssg71
g3552
sg64
(lp3559
S'/welcome/static/css/web2py.css'
p3560
asbasbasbag57
(g73
g59
NtRp3561
(dp3562
g62
(dp3563
sg71
g3466
sg64
(lp3564
g57
(g78
g59
NtRp3565
(dp3566
g62
(dp3567
sg71
g3561
sg64
(lp3568
g57
(g58
g59
NtRp3569
(dp3570
g62
(dp3571
g70
I4
ssg71
g3565
sg64
(lp3572
S'/welcome/static/css/bootstrap.min.css'
p3573
asbasbasbag57
(g73
g59
NtRp3574
(dp3575
g62
(dp3576
sg71
g3466
sg64
(lp3577
g57
(g78
g59
NtRp3578
(dp3579
g62
(dp3580
sg71
g3574
sg64
(lp3581
g57
(g58
g59
NtRp3582
(dp3583
g62
(dp3584
g70
I4
ssg71
g3578
sg64
(lp3585
S'/welcome/static/css/bootstrap-responsive.min.css'
p3586
asbasbasbag57
(g73
g59
NtRp3587
(dp3588
g62
(dp3589
sg71
g3466
sg64
(lp3590
g57
(g78
g59
NtRp3591
(dp3592
g62
(dp3593
sg71
g3587
sg64
(lp3594
g57
(g58
g59
NtRp3595
(dp3596
g62
(dp3597
g70
I4
ssg71
g3591
sg64
(lp3598
S'/welcome/static/css/web2py_bootstrap.css'
p3599
asbasbasbasbasbasbasbag57
(g73
g59
NtRp3600
(dp3601
g62
(dp3602
sg71
g3160
sg64
(lp3603
g57
(g78
g59
NtRp3604
(dp3605
g62
(dp3606
g82
g83
ssg71
g3600
sg64
(lp3607
S'flash'
p3608
asbag57
(g78
g59
NtRp3609
(dp3610
g62
(dp3611
g89
g90
ssg71
g3600
sg64
(lp3612
S':'
asbag57
(g78
g59
NtRp3613
(dp3614
g62
(dp3615
sg71
g3600
sg64
(lp3616
g57
(g58
g59
NtRp3617
(dp3618
g62
(dp3619
g70
I5
ssg71
g3613
sg64
(lp3620
S''
asbasbasbag57
(g73
g59
NtRp3621
(dp3622
g62
(dp3623
sg71
g3160
sg64
(lp3624
g57
(g78
g59
NtRp3625
(dp3626
g62
(dp3627
g82
g83
ssg71
g3621
sg64
(lp3628
S'generic_patterns'
p3629
asbag57
(g78
g59
NtRp3630
(dp3631
g62
(dp3632
g89
g90
ssg71
g3621
sg64
(lp3633
S':'
asbag57
(g78
g59
NtRp3634
(dp3635
g62
(dp3636
sg71
g3621
sg64
(lp3637
g57
(g58
g59
NtRp3638
(dp3639
g62
(dp3640
g70
I5
ssg71
g3634
sg64
(lp3641
g57
(g66
g59
NtRp3642
(dp3643
g62
(dp3644
g70
I4
ssg71
Nsg64
(lp3645
g57
(g73
g59
NtRp3646
(dp3647
g62
(dp3648
sg71
g3642
sg64
(lp3649
g57
(g78
g59
NtRp3650
(dp3651
g62
(dp3652
sg71
g3646
sg64
(lp3653
g57
(g58
g59
NtRp3654
(dp3655
g62
(dp3656
g70
I4
ssg71
g3650
sg64
(lp3657
S'*'
asbasbasbasbasbasbasbag57
(g73
g59
NtRp3658
(dp3659
g62
(dp3660
sg71
g3160
sg64
(lp3661
g57
(g78
g59
NtRp3662
(dp3663
g62
(dp3664
g82
g83
ssg71
g3658
sg64
(lp3665
S'google_analytics_id'
p3666
asbag57
(g78
g59
NtRp3667
(dp3668
g62
(dp3669
g89
g90
ssg71
g3658
sg64
(lp3670
S':'
asbag57
(g78
g59
NtRp3671
(dp3672
g62
(dp3673
sg71
g3658
sg64
(lp3674
g57
(g58
g59
NtRp3675
(dp3676
g62
(dp3677
g70
I5
ssg71
g3671
sg64
(lp3678
S'None'
p3679
asbasbasbag57
(g73
g59
NtRp3680
(dp3681
g62
(dp3682
sg71
g3160
sg64
(lp3683
g57
(g78
g59
NtRp3684
(dp3685
g62
(dp3686
g82
g83
ssg71
g3680
sg64
(lp3687
S'headers'
p3688
asbag57
(g78
g59
NtRp3689
(dp3690
g62
(dp3691
g89
g90
ssg71
g3680
sg64
(lp3692
S':'
asbag57
(g78
g59
NtRp3693
(dp3694
g62
(dp3695
sg71
g3680
sg64
(lp3696
g57
(g58
g59
NtRp3697
(dp3698
g62
(dp3699
g70
I5
ssg71
g3693
sg64
(lp3700
g57
(g66
g59
NtRp3701
(dp3702
g62
(dp3703
g70
I4
ssg71
Nsg64
(lp3704
g57
(g73
g59
NtRp3705
(dp3706
g62
(dp3707
sg71
g3701
sg64
(lp3708
g57
(g78
g59
NtRp3709
(dp3710
g62
(dp3711
g82
g83
ssg71
g3705
sg64
(lp3712
S'X-Powered-By'
p3713
asbag57
(g78
g59
NtRp3714
(dp3715
g62
(dp3716
g89
g90
ssg71
g3705
sg64
(lp3717
S':'
asbag57
(g78
g59
NtRp3718
(dp3719
g62
(dp3720
sg71
g3705
sg64
(lp3721
g57
(g58
g59
NtRp3722
(dp3723
g62
(dp3724
g70
I4
ssg71
g3718
sg64
(lp3725
S'web2py'
p3726
asbasbasbasbasbasbasbag57
(g73
g59
NtRp3727
(dp3728
g62
(dp3729
sg71
g3160
sg64
(lp3730
g57
(g78
g59
NtRp3731
(dp3732
g62
(dp3733
g82
g83
ssg71
g3727
sg64
(lp3734
S'logo'
p3735
asbag57
(g78
g59
NtRp3736
(dp3737
g62
(dp3738
g89
g90
ssg71
g3727
sg64
(lp3739
S':'
asbag57
(g78
g59
NtRp3740
(dp3741
g62
(dp3742
sg71
g3727
sg64
(lp3743
g57
(g58
g59
NtRp3744
(dp3745
g62
(dp3746
g70
I5
ssg71
g3740
sg64
(lp3747
g57
(cgluon.html
A
p3748
g59
NtRp3749
(dp3750
g62
(dp3751
S'_class'
p3752
S'brand'
p3753
sS'_href'
p3754
S'http://www.web2py.com/'
p3755
ssg71
Nsg64
(lp3756
g57
(cgluon.html
B
p3757
g59
NtRp3758
(dp3759
g62
(dp3760
sg71
g3749
sg64
(lp3761
S'web'
p3762
ag57
(cgluon.html
SPAN
p3763
g59
NtRp3764
(dp3765
g62
(dp3766
sg71
g3758
sg64
(lp3767
I2
asbaS'py'
p3768
asbacgluon.html
XML_unpickle
p3769
(S's\r\x00\x00\x00&trade;&nbsp;'
tRp3770
asbasbasbasbag57
(g73
g59
NtRp3771
(dp3772
g62
(dp3773
sg71
g3160
sg64
(lp3774
g57
(g78
g59
NtRp3775
(dp3776
g62
(dp3777
g82
g83
ssg71
g3771
sg64
(lp3778
S'menu'
p3779
asbag57
(g78
g59
NtRp3780
(dp3781
g62
(dp3782
g89
g90
ssg71
g3771
sg64
(lp3783
S':'
asbag57
(g78
g59
NtRp3784
(dp3785
g62
(dp3786
sg71
g3771
sg64
(lp3787
g57
(g58
g59
NtRp3788
(dp3789
g62
(dp3790
g70
I5
ssg71
g3784
sg64
(lp3791
g57
(g66
g59
NtRp3792
(dp3793
g62
(dp3794
g70
I4
ssg71
Nsg64
(lp3795
g57
(g73
g59
NtRp3796
(dp3797
g62
(dp3798
sg71
g3792
sg64
(lp3799
g57
(g78
g59
NtRp3800
(dp3801
g62
(dp3802
sg71
g3796
sg64
(lp3803
g57
(g58
g59
NtRp3804
(dp3805
g62
(dp3806
g70
I4
ssg71
g3800
sg64
(lp3807
g57
(g66
g59
NtRp3808
(dp3809
g62
(dp3810
g70
I3
ssg71
Nsg64
(lp3811
g57
(g73
g59
NtRp3812
(dp3813
g62
(dp3814
sg71
g3808
sg64
(lp3815
g57
(g78
g59
NtRp3816
(dp3817
g62
(dp3818
sg71
g3812
sg64
(lp3819
g57
(g58
g59
NtRp3820
(dp3821
g62
(dp3822
g70
I3
ssg71
g3816
sg64
(lp3823
cgluon.languages
lazyT_unpickle
p3824
(S's\x04\x00\x00\x00Home'
tRp3825
asbasbasbag57
(g73
g59
NtRp3826
(dp3827
g62
(dp3828
sg71
g3808
sg64
(lp3829
g57
(g78
g59
NtRp3830
(dp3831
g62
(dp3832
sg71
g3826
sg64
(lp3833
g57
(g58
g59
NtRp3834
(dp3835
g62
(dp3836
g70
I3
ssg71
g3830
sg64
(lp3837
g100
asbasbasbag57
(g73
g59
NtRp3838
(dp3839
g62
(dp3840
sg71
g3808
sg64
(lp3841
g57
(g78
g59
NtRp3842
(dp3843
g62
(dp3844
sg71
g3838
sg64
(lp3845
g57
(g58
g59
NtRp3846
(dp3847
g62
(dp3848
g70
I3
ssg71
g3842
sg64
(lp3849
S'/welcome/default/index'
p3850
asbasbasbag57
(g73
g59
NtRp3851
(dp3852
g62
(dp3853
sg71
g3808
sg64
(lp3854
g57
(g78
g59
NtRp3855
(dp3856
g62
(dp3857
sg71
g3851
sg64
(lp3858
g57
(g58
g59
NtRp3859
(dp3860
g62
(dp3861
g70
I3
ssg71
g3855
sg64
(lp3862
g57
(g66
g59
NtRp3863
(dp3864
g62
(dp3865
g70
I2
ssg71
Nsg64
(lp3866
sbasbasbasbasbasbasbasbag57
(g73
g59
NtRp3867
(dp3868
g62
(dp3869
sg71
g3792
sg64
(lp3870
g57
(g78
g59
NtRp3871
(dp3872
g62
(dp3873
sg71
g3867
sg64
(lp3874
g57
(g58
g59
NtRp3875
(dp3876
g62
(dp3877
g70
I4
ssg71
g3871
sg64
(lp3878
g57
(g66
g59
NtRp3879
(dp3880
g62
(dp3881
g70
I3
ssg71
Nsg64
(lp3882
g57
(g73
g59
NtRp3883
(dp3884
g62
(dp3885
sg71
g3879
sg64
(lp3886
g57
(g78
g59
NtRp3887
(dp3888
g62
(dp3889
sg71
g3883
sg64
(lp3890
g57
(g58
g59
NtRp3891
(dp3892
g62
(dp3893
g70
I3
ssg71
g3887
sg64
(lp3894
g57
(g3763
g59
NtRp3895
(dp3896
g62
(dp3897
g3752
S'highlighted'
p3898
ssg71
g57
(g3748
g59
NtRp3899
(dp3900
g62
(dp3901
g3754
S'http://web2py.com'
p3902
ssg71
g57
(cgluon.html
LI
p3903
g59
NtRp3904
(dp3905
g62
(dp3906
g3752
S'dropdown'
p3907
ssg71
g57
(cgluon.html
UL
p3908
g59
NtRp3909
(dp3910
g62
(dp3911
S'mobile'
p3912
I00
sS'ul_class'
p3913
S'dropdown-menu'
p3914
sS'li_last'
p3915
S'web2py-menu-last'
p3916
sS'li_class'
p3917
g3907
sS'li_first'
p3918
S'web2py-menu-first'
p3919
sg3752
S'nav'
p3920
sS'li_active'
p3921
S'web2py-menu-active'
p3922
ssg71
Nsg64
(lp3923
g57
(g3903
g59
NtRp3924
(dp3925
g62
(dp3926
g3752
g3919
ssg71
g3909
sg64
(lp3927
g57
(g3748
g59
NtRp3928
(dp3929
g62
(dp3930
g3754
g3850
ssg71
g3924
sg64
(lp3931
g3825
asbasbag3904
asbsg64
(lp3932
g3899
ag57
(g3908
g59
NtRp3933
(dp3934
g62
(dp3935
g3752
g3914
ssg71
g3904
sg64
(lp3936
g57
(g3903
g59
NtRp3937
(dp3938
g62
(dp3939
sg71
g3933
sg64
(lp3940
g57
(g3748
g59
NtRp3941
(dp3942
g62
(dp3943
g3754
S'/admin/default/site'
p3944
ssg71
g3937
sg64
(lp3945
g3824
(S's\x08\x00\x00\x00My Sites'
tRp3946
asbasbag57
(g3903
g59
NtRp3947
(dp3948
g62
(dp3949
g3752
g3907
ssg71
g3933
sg64
(lp3950
g57
(g3748
g59
NtRp3951
(dp3952
g62
(dp3953
g3754
S'/admin/default/design/welcome'
p3954
ssg71
g3947
sg64
(lp3955
g3824
(S's\x08\x00\x00\x00This App'
tRp3956
asbag57
(g3908
g59
NtRp3957
(dp3958
g62
(dp3959
g3752
g3914
ssg71
g3947
sg64
(lp3960
g57
(g3903
g59
NtRp3961
(dp3962
g62
(dp3963
sg71
g3957
sg64
(lp3964
g57
(g3748
g59
NtRp3965
(dp3966
g62
(dp3967
g3754
S'/admin/default/edit/welcome/controllers/webrtc.py'
p3968
ssg71
g3961
sg64
(lp3969
g3824
(S's\n\x00\x00\x00Controller'
tRp3970
asbasbag57
(g3903
g59
NtRp3971
(dp3972
g62
(dp3973
sg71
g3957
sg64
(lp3974
g57
(g3748
g59
NtRp3975
(dp3976
g62
(dp3977
g3754
S'/admin/default/edit/welcome/views/webrtc/index.html'
p3978
ssg71
g3971
sg64
(lp3979
g3824
(S's\x04\x00\x00\x00View'
tRp3980
asbasbag57
(g3903
g59
NtRp3981
(dp3982
g62
(dp3983
sg71
g3957
sg64
(lp3984
g57
(g3748
g59
NtRp3985
(dp3986
g62
(dp3987
g3754
S'/admin/default/edit/welcome/views/layout.html'
p3988
ssg71
g3981
sg64
(lp3989
g3824
(S's\x06\x00\x00\x00Layout'
tRp3990
asbasbag57
(g3903
g59
NtRp3991
(dp3992
g62
(dp3993
sg71
g3957
sg64
(lp3994
g57
(g3748
g59
NtRp3995
(dp3996
g62
(dp3997
g3754
S'/admin/default/edit/welcome/static/css/web2py.css'
p3998
ssg71
g3991
sg64
(lp3999
g3824
(S's\n\x00\x00\x00Stylesheet'
tRp4000
asbasbag57
(g3903
g59
NtRp4001
(dp4002
g62
(dp4003
sg71
g3957
sg64
(lp4004
g57
(g3748
g59
NtRp4005
(dp4006
g62
(dp4007
g3754
S'/admin/default/edit/welcome/models/db.py'
p4008
ssg71
g4001
sg64
(lp4009
g3824
(S's\x08\x00\x00\x00DB Model'
tRp4010
asbasbag57
(g3903
g59
NtRp4011
(dp4012
g62
(dp4013
sg71
g3957
sg64
(lp4014
g57
(g3748
g59
NtRp4015
(dp4016
g62
(dp4017
g3754
S'/admin/default/edit/welcome/models/menu.py'
p4018
ssg71
g4011
sg64
(lp4019
g3824
(S's\n\x00\x00\x00Menu Model'
tRp4020
asbasbag57
(g3903
g59
NtRp4021
(dp4022
g62
(dp4023
sg71
g3957
sg64
(lp4024
g57
(g3748
g59
NtRp4025
(dp4026
g62
(dp4027
g3754
S'/welcome/appadmin/index'
p4028
ssg71
g4021
sg64
(lp4029
g3824
(S's\x08\x00\x00\x00Database'
tRp4030
asbasbag57
(g3903
g59
NtRp4031
(dp4032
g62
(dp4033
sg71
g3957
sg64
(lp4034
g57
(g3748
g59
NtRp4035
(dp4036
g62
(dp4037
g3754
S'/admin/default/errors/welcome'
p4038
ssg71
g4031
sg64
(lp4039
g3824
(S's\x06\x00\x00\x00Errors'
tRp4040
asbasbag57
(g3903
g59
NtRp4041
(dp4042
g62
(dp4043
sg71
g3957
sg64
(lp4044
g57
(g3748
g59
NtRp4045
(dp4046
g62
(dp4047
g3754
S'/admin/default/about/welcome'
p4048
ssg71
g4041
sg64
(lp4049
g3824
(S's\x05\x00\x00\x00About'
tRp4050
asbasbasbasbag57
(g3903
g59
NtRp4051
(dp4052
g62
(dp4053
g3752
g3907
ssg71
g3933
sg64
(lp4054
g57
(g3748
g59
NtRp4055
(dp4056
g62
(dp4057
g3754
S'http://www.web2py.com'
p4058
ssg71
g4051
sg64
(lp4059
S'web2py.com'
p4060
asbag57
(g3908
g59
NtRp4061
(dp4062
g62
(dp4063
g3752
g3914
ssg71
g4051
sg64
(lp4064
g57
(g3903
g59
NtRp4065
(dp4066
g62
(dp4067
sg71
g4061
sg64
(lp4068
g57
(g3748
g59
NtRp4069
(dp4070
g62
(dp4071
g3754
S'http://www.web2py.com/examples/default/download'
p4072
ssg71
g4065
sg64
(lp4073
g3824
(S's\x08\x00\x00\x00Download'
tRp4074
asbasbag57
(g3903
g59
NtRp4075
(dp4076
g62
(dp4077
sg71
g4061
sg64
(lp4078
g57
(g3748
g59
NtRp4079
(dp4080
g62
(dp4081
g3754
S'http://www.web2py.com/examples/default/support'
p4082
ssg71
g4075
sg64
(lp4083
g3824
(S's\x07\x00\x00\x00Support'
tRp4084
asbasbag57
(g3903
g59
NtRp4085
(dp4086
g62
(dp4087
sg71
g4061
sg64
(lp4088
g57
(g3748
g59
NtRp4089
(dp4090
g62
(dp4091
g3754
S'http://web2py.com/demo_admin'
p4092
ssg71
g4085
sg64
(lp4093
g3824
(S's\x04\x00\x00\x00Demo'
tRp4094
asbasbag57
(g3903
g59
NtRp4095
(dp4096
g62
(dp4097
sg71
g4061
sg64
(lp4098
g57
(g3748
g59
NtRp4099
(dp4100
g62
(dp4101
g3754
S'http://web2py.com/examples/default/examples'
p4102
ssg71
g4095
sg64
(lp4103
g3824
(S's\x0e\x00\x00\x00Quick Examples'
tRp4104
asbasbag57
(g3903
g59
NtRp4105
(dp4106
g62
(dp4107
sg71
g4061
sg64
(lp4108
g57
(g3748
g59
NtRp4109
(dp4110
g62
(dp4111
g3754
S'http://web2py.com/AlterEgo'
p4112
ssg71
g4105
sg64
(lp4113
g3824
(S's\x03\x00\x00\x00FAQ'
tRp4114
asbasbag57
(g3903
g59
NtRp4115
(dp4116
g62
(dp4117
sg71
g4061
sg64
(lp4118
g57
(g3748
g59
NtRp4119
(dp4120
g62
(dp4121
g3754
S'http://www.web2py.com/examples/default/videos/'
p4122
ssg71
g4115
sg64
(lp4123
g3824
(S's\x06\x00\x00\x00Videos'
tRp4124
asbasbag57
(g3903
g59
NtRp4125
(dp4126
g62
(dp4127
sg71
g4061
sg64
(lp4128
g57
(g3748
g59
NtRp4129
(dp4130
g62
(dp4131
g3754
S'http://web2py.com/appliances'
p4132
ssg71
g4125
sg64
(lp4133
g3824
(S's\x11\x00\x00\x00Free Applications'
tRp4134
asbasbag57
(g3903
g59
NtRp4135
(dp4136
g62
(dp4137
sg71
g4061
sg64
(lp4138
g57
(g3748
g59
NtRp4139
(dp4140
g62
(dp4141
g3754
S'http://web2py.com/plugins'
p4142
ssg71
g4135
sg64
(lp4143
g3824
(S's\x07\x00\x00\x00Plugins'
tRp4144
asbasbag57
(g3903
g59
NtRp4145
(dp4146
g62
(dp4147
sg71
g4061
sg64
(lp4148
g57
(g3748
g59
NtRp4149
(dp4150
g62
(dp4151
g3754
S'http://web2py.com/layouts'
p4152
ssg71
g4145
sg64
(lp4153
g3824
(S's\x07\x00\x00\x00Layouts'
tRp4154
asbasbag57
(g3903
g59
NtRp4155
(dp4156
g62
(dp4157
sg71
g4061
sg64
(lp4158
g57
(g3748
g59
NtRp4159
(dp4160
g62
(dp4161
g3754
S'http://web2pyslices.com/'
p4162
ssg71
g4155
sg64
(lp4163
g3824
(S's\x07\x00\x00\x00Recipes'
tRp4164
asbasbag57
(g3903
g59
NtRp4165
(dp4166
g62
(dp4167
sg71
g4061
sg64
(lp4168
g57
(g3748
g59
NtRp4169
(dp4170
g62
(dp4171
g3754
S'http://web2py.com/semantic'
p4172
ssg71
g4165
sg64
(lp4173
g3824
(S's\x08\x00\x00\x00Semantic'
tRp4174
asbasbasbasbag57
(g3903
g59
NtRp4175
(dp4176
g62
(dp4177
g3752
g3907
ssg71
g3933
sg64
(lp4178
g57
(g3748
g59
NtRp4179
(dp4180
g62
(dp4181
g3754
S'http://www.web2py.com/book'
p4182
ssg71
g4175
sg64
(lp4183
g3824
(S's\r\x00\x00\x00Documentation'
tRp4184
asbag57
(g3908
g59
NtRp4185
(dp4186
g62
(dp4187
g3752
g3914
ssg71
g4175
sg64
(lp4188
g57
(g3903
g59
NtRp4189
(dp4190
g62
(dp4191
sg71
g4185
sg64
(lp4192
g57
(g3748
g59
NtRp4193
(dp4194
g62
(dp4195
g3754
S'http://www.web2py.com/book/default/chapter/00'
p4196
ssg71
g4189
sg64
(lp4197
g3824
(S's\x07\x00\x00\x00Preface'
tRp4198
asbasbag57
(g3903
g59
NtRp4199
(dp4200
g62
(dp4201
sg71
g4185
sg64
(lp4202
g57
(g3748
g59
NtRp4203
(dp4204
g62
(dp4205
g3754
S'http://www.web2py.com/book/default/chapter/01'
p4206
ssg71
g4199
sg64
(lp4207
g3824
(S's\x0c\x00\x00\x00Introduction'
tRp4208
asbasbag57
(g3903
g59
NtRp4209
(dp4210
g62
(dp4211
sg71
g4185
sg64
(lp4212
g57
(g3748
g59
NtRp4213
(dp4214
g62
(dp4215
g3754
S'http://www.web2py.com/book/default/chapter/02'
p4216
ssg71
g4209
sg64
(lp4217
g3824
(S's\x06\x00\x00\x00Python'
tRp4218
asbasbag57
(g3903
g59
NtRp4219
(dp4220
g62
(dp4221
sg71
g4185
sg64
(lp4222
g57
(g3748
g59
NtRp4223
(dp4224
g62
(dp4225
g3754
S'http://www.web2py.com/book/default/chapter/03'
p4226
ssg71
g4219
sg64
(lp4227
g3824
(S's\x08\x00\x00\x00Overview'
tRp4228
asbasbag57
(g3903
g59
NtRp4229
(dp4230
g62
(dp4231
sg71
g4185
sg64
(lp4232
g57
(g3748
g59
NtRp4233
(dp4234
g62
(dp4235
g3754
S'http://www.web2py.com/book/default/chapter/04'
p4236
ssg71
g4229
sg64
(lp4237
g3824
(S's\x08\x00\x00\x00The Core'
tRp4238
asbasbag57
(g3903
g59
NtRp4239
(dp4240
g62
(dp4241
sg71
g4185
sg64
(lp4242
g57
(g3748
g59
NtRp4243
(dp4244
g62
(dp4245
g3754
S'http://www.web2py.com/book/default/chapter/05'
p4246
ssg71
g4239
sg64
(lp4247
g3824
(S's\t\x00\x00\x00The Views'
tRp4248
asbasbag57
(g3903
g59
NtRp4249
(dp4250
g62
(dp4251
sg71
g4185
sg64
(lp4252
g57
(g3748
g59
NtRp4253
(dp4254
g62
(dp4255
g3754
S'http://www.web2py.com/book/default/chapter/06'
p4256
ssg71
g4249
sg64
(lp4257
g3824
(S's\x08\x00\x00\x00Database'
tRp4258
asbasbag57
(g3903
g59
NtRp4259
(dp4260
g62
(dp4261
sg71
g4185
sg64
(lp4262
g57
(g3748
g59
NtRp4263
(dp4264
g62
(dp4265
g3754
S'http://www.web2py.com/book/default/chapter/07'
p4266
ssg71
g4259
sg64
(lp4267
g3824
(S's\x14\x00\x00\x00Forms and Validators'
tRp4268
asbasbag57
(g3903
g59
NtRp4269
(dp4270
g62
(dp4271
sg71
g4185
sg64
(lp4272
g57
(g3748
g59
NtRp4273
(dp4274
g62
(dp4275
g3754
S'http://www.web2py.com/book/default/chapter/08'
p4276
ssg71
g4269
sg64
(lp4277
g3824
(S's\r\x00\x00\x00Email and SMS'
tRp4278
asbasbag57
(g3903
g59
NtRp4279
(dp4280
g62
(dp4281
sg71
g4185
sg64
(lp4282
g57
(g3748
g59
NtRp4283
(dp4284
g62
(dp4285
g3754
S'http://www.web2py.com/book/default/chapter/09'
p4286
ssg71
g4279
sg64
(lp4287
g3824
(S's\x0e\x00\x00\x00Access Control'
tRp4288
asbasbag57
(g3903
g59
NtRp4289
(dp4290
g62
(dp4291
sg71
g4185
sg64
(lp4292
g57
(g3748
g59
NtRp4293
(dp4294
g62
(dp4295
g3754
S'http://www.web2py.com/book/default/chapter/10'
p4296
ssg71
g4289
sg64
(lp4297
g3824
(S's\x08\x00\x00\x00Services'
tRp4298
asbasbag57
(g3903
g59
NtRp4299
(dp4300
g62
(dp4301
sg71
g4185
sg64
(lp4302
g57
(g3748
g59
NtRp4303
(dp4304
g62
(dp4305
g3754
S'http://www.web2py.com/book/default/chapter/11'
p4306
ssg71
g4299
sg64
(lp4307
g3824
(S's\x0c\x00\x00\x00Ajax Recipes'
tRp4308
asbasbag57
(g3903
g59
NtRp4309
(dp4310
g62
(dp4311
sg71
g4185
sg64
(lp4312
g57
(g3748
g59
NtRp4313
(dp4314
g62
(dp4315
g3754
S'http://www.web2py.com/book/default/chapter/12'
p4316
ssg71
g4309
sg64
(lp4317
g3824
(S's\x16\x00\x00\x00Components and Plugins'
tRp4318
asbasbag57
(g3903
g59
NtRp4319
(dp4320
g62
(dp4321
sg71
g4185
sg64
(lp4322
g57
(g3748
g59
NtRp4323
(dp4324
g62
(dp4325
g3754
S'http://www.web2py.com/book/default/chapter/13'
p4326
ssg71
g4319
sg64
(lp4327
g3824
(S's\x12\x00\x00\x00Deployment Recipes'
tRp4328
asbasbag57
(g3903
g59
NtRp4329
(dp4330
g62
(dp4331
sg71
g4185
sg64
(lp4332
g57
(g3748
g59
NtRp4333
(dp4334
g62
(dp4335
g3754
S'http://www.web2py.com/book/default/chapter/14'
p4336
ssg71
g4329
sg64
(lp4337
g3824
(S's\r\x00\x00\x00Other Recipes'
tRp4338
asbasbag57
(g3903
g59
NtRp4339
(dp4340
g62
(dp4341
sg71
g4185
sg64
(lp4342
g57
(g3748
g59
NtRp4343
(dp4344
g62
(dp4345
g3754
S'http://stores.lulu.com/web2py'
p4346
ssg71
g4339
sg64
(lp4347
g3824
(S's\r\x00\x00\x00Buy this book'
tRp4348
asbasbasbasbag57
(g3903
g59
NtRp4349
(dp4350
g62
(dp4351
g3752
g3907
ssg71
g3933
sg64
(lp4352
g57
(g3748
g59
NtRp4353
(dp4354
g62
(dp4355
S'_onclick'
p4356
S'javascript:void(0);return false;'
p4357
sg3754
S'#'
ssg71
g4349
sg64
(lp4358
g3824
(S's\t\x00\x00\x00Community'
tRp4359
asbag57
(g3908
g59
NtRp4360
(dp4361
g62
(dp4362
g3752
g3914
ssg71
g4349
sg64
(lp4363
g57
(g3903
g59
NtRp4364
(dp4365
g62
(dp4366
sg71
g4360
sg64
(lp4367
g57
(g3748
g59
NtRp4368
(dp4369
g62
(dp4370
g3754
S'http://www.web2py.com/examples/default/usergroups'
p4371
ssg71
g4364
sg64
(lp4372
g3824
(S's\x06\x00\x00\x00Groups'
tRp4373
asbasbag57
(g3903
g59
NtRp4374
(dp4375
g62
(dp4376
sg71
g4360
sg64
(lp4377
g57
(g3748
g59
NtRp4378
(dp4379
g62
(dp4380
g3754
S'http://twitter.com/web2py'
p4381
ssg71
g4374
sg64
(lp4382
g3824
(S's\x07\x00\x00\x00Twitter'
tRp4383
asbasbag57
(g3903
g59
NtRp4384
(dp4385
g62
(dp4386
sg71
g4360
sg64
(lp4387
g57
(g3748
g59
NtRp4388
(dp4389
g62
(dp4390
g3754
S'http://webchat.freenode.net/?channels=web2py'
p4391
ssg71
g4384
sg64
(lp4392
g3824
(S's\t\x00\x00\x00Live Chat'
tRp4393
asbasbasbasbag57
(g3903
g59
NtRp4394
(dp4395
g62
(dp4396
g3752
g3907
ssg71
g3933
sg64
(lp4397
g57
(g3748
g59
NtRp4398
(dp4399
g62
(dp4400
g4356
g4357
sg3754
S'#'
ssg71
g4394
sg64
(lp4401
g3824
(S's\x07\x00\x00\x00Plugins'
tRp4402
asbag57
(g3908
g59
NtRp4403
(dp4404
g62
(dp4405
g3752
g3914
ssg71
g4394
sg64
(lp4406
g57
(g3903
g59
NtRp4407
(dp4408
g62
(dp4409
sg71
g4403
sg64
(lp4410
g57
(g3748
g59
NtRp4411
(dp4412
g62
(dp4413
g3754
S'http://web2py.com/examples/default/download'
p4414
ssg71
g4407
sg64
(lp4415
S'plugin_wiki'
p4416
asbasbag57
(g3903
g59
NtRp4417
(dp4418
g62
(dp4419
sg71
g4403
sg64
(lp4420
g57
(g3748
g59
NtRp4421
(dp4422
g62
(dp4423
g3754
g4142
ssg71
g4417
sg64
(lp4424
g3824
(S's\r\x00\x00\x00Other Plugins'
tRp4425
asbasbag57
(g3903
g59
NtRp4426
(dp4427
g62
(dp4428
sg71
g4403
sg64
(lp4429
g57
(g3748
g59
NtRp4430
(dp4431
g62
(dp4432
g3754
g4152
ssg71
g4426
sg64
(lp4433
g3824
(S's\x0e\x00\x00\x00Layout Plugins'
tRp4434
asbasbasbasbasbasbsg64
(lp4435
g3895
asbsg64
(lp4436
g3726
asbasbasbasbag57
(g73
g59
NtRp4437
(dp4438
g62
(dp4439
sg71
g3879
sg64
(lp4440
g57
(g78
g59
NtRp4441
(dp4442
g62
(dp4443
sg71
g4437
sg64
(lp4444
g57
(g58
g59
NtRp4445
(dp4446
g62
(dp4447
g70
I3
ssg71
g4441
sg64
(lp4448
g100
asbasbasbag57
(g73
g59
NtRp4449
(dp4450
g62
(dp4451
sg71
g3879
sg64
(lp4452
g57
(g78
g59
NtRp4453
(dp4454
g62
(dp4455
sg71
g4449
sg64
(lp4456
g57
(g58
g59
NtRp4457
(dp4458
g62
(dp4459
g70
I3
ssg71
g4453
sg64
(lp4460
g3902
asbasbasbag57
(g73
g59
NtRp4461
(dp4462
g62
(dp4463
sg71
g3879
sg64
(lp4464
g57
(g78
g59
NtRp4465
(dp4466
g62
(dp4467
sg71
g4461
sg64
(lp4468
g57
(g58
g59
NtRp4469
(dp4470
g62
(dp4471
g70
I3
ssg71
g4465
sg64
(lp4472
g57
(g66
g59
NtRp4473
(dp4474
g62
(dp4475
g70
I2
ssg71
Nsg64
(lp4476
g57
(g73
g59
NtRp4477
(dp4478
g62
(dp4479
sg71
g4473
sg64
(lp4480
g57
(g78
g59
NtRp4481
(dp4482
g62
(dp4483
sg71
g4477
sg64
(lp4484
g57
(g58
g59
NtRp4485
(dp4486
g62
(dp4487
g70
I2
ssg71
g4481
sg64
(lp4488
g57
(g66
g59
NtRp4489
(dp4490
g62
(dp4491
g70
I1
ssg71
Nsg64
(lp4492
g57
(g73
g59
NtRp4493
(dp4494
g62
(dp4495
sg71
g4489
sg64
(lp4496
g57
(g78
g59
NtRp4497
(dp4498
g62
(dp4499
sg71
g4493
sg64
(lp4500
g57
(g58
g59
NtRp4501
(dp4502
g62
(dp4503
g70
I1
ssg71
g4497
sg64
(lp4504
g3946
asbasbasbag57
(g73
g59
NtRp4505
(dp4506
g62
(dp4507
sg71
g4489
sg64
(lp4508
g57
(g78
g59
NtRp4509
(dp4510
g62
(dp4511
sg71
g4505
sg64
(lp4512
g57
(g58
g59
NtRp4513
(dp4514
g62
(dp4515
g70
I1
ssg71
g4509
sg64
(lp4516
I00
asbasbasbag57
(g73
g59
NtRp4517
(dp4518
g62
(dp4519
sg71
g4489
sg64
(lp4520
g57
(g78
g59
NtRp4521
(dp4522
g62
(dp4523
sg71
g4517
sg64
(lp4524
g57
(g58
g59
NtRp4525
(dp4526
g62
(dp4527
g70
I1
ssg71
g4521
sg64
(lp4528
g3944
asbasbasbasbasbasbasbag57
(g73
g59
NtRp4529
(dp4530
g62
(dp4531
sg71
g4473
sg64
(lp4532
g57
(g78
g59
NtRp4533
(dp4534
g62
(dp4535
sg71
g4529
sg64
(lp4536
g57
(g58
g59
NtRp4537
(dp4538
g62
(dp4539
g70
I2
ssg71
g4533
sg64
(lp4540
g57
(g66
g59
NtRp4541
(dp4542
g62
(dp4543
g70
I1
ssg71
Nsg64
(lp4544
g57
(g73
g59
NtRp4545
(dp4546
g62
(dp4547
sg71
g4541
sg64
(lp4548
g57
(g78
g59
NtRp4549
(dp4550
g62
(dp4551
sg71
g4545
sg64
(lp4552
g57
(g58
g59
NtRp4553
(dp4554
g62
(dp4555
g70
I1
ssg71
g4549
sg64
(lp4556
g3956
asbasbasbag57
(g73
g59
NtRp4557
(dp4558
g62
(dp4559
sg71
g4541
sg64
(lp4560
g57
(g78
g59
NtRp4561
(dp4562
g62
(dp4563
sg71
g4557
sg64
(lp4564
g57
(g58
g59
NtRp4565
(dp4566
g62
(dp4567
g70
I1
ssg71
g4561
sg64
(lp4568
I00
asbasbasbag57
(g73
g59
NtRp4569
(dp4570
g62
(dp4571
sg71
g4541
sg64
(lp4572
g57
(g78
g59
NtRp4573
(dp4574
g62
(dp4575
sg71
g4569
sg64
(lp4576
g57
(g58
g59
NtRp4577
(dp4578
g62
(dp4579
g70
I1
ssg71
g4573
sg64
(lp4580
g3954
asbasbasbag57
(g73
g59
NtRp4581
(dp4582
g62
(dp4583
sg71
g4541
sg64
(lp4584
g57
(g78
g59
NtRp4585
(dp4586
g62
(dp4587
sg71
g4581
sg64
(lp4588
g57
(g58
g59
NtRp4589
(dp4590
g62
(dp4591
g70
I1
ssg71
g4585
sg64
(lp4592
(lp4593
(g3970
I00
g3968
tp4594
a(g3980
I00
g3978
tp4595
a(g3990
I00
g3988
tp4596
a(g4000
I00
g3998
tp4597
a(g4010
I00
g4008
tp4598
a(g4020
I00
g4018
tp4599
a(g4030
I00
g4028
tp4600
a(g4040
I00
g4038
tp4601
a(g4050
I00
g4048
tp4602
aasbasbasbasbasbasbasbag57
(g73
g59
NtRp4603
(dp4604
g62
(dp4605
sg71
g4473
sg64
(lp4606
g57
(g78
g59
NtRp4607
(dp4608
g62
(dp4609
sg71
g4603
sg64
(lp4610
g57
(g58
g59
NtRp4611
(dp4612
g62
(dp4613
g70
I2
ssg71
g4607
sg64
(lp4614
g57
(g66
g59
NtRp4615
(dp4616
g62
(dp4617
g70
I1
ssg71
Nsg64
(lp4618
g57
(g73
g59
NtRp4619
(dp4620
g62
(dp4621
sg71
g4615
sg64
(lp4622
g57
(g78
g59
NtRp4623
(dp4624
g62
(dp4625
sg71
g4619
sg64
(lp4626
g57
(g58
g59
NtRp4627
(dp4628
g62
(dp4629
g70
I1
ssg71
g4623
sg64
(lp4630
g4060
asbasbasbag57
(g73
g59
NtRp4631
(dp4632
g62
(dp4633
sg71
g4615
sg64
(lp4634
g57
(g78
g59
NtRp4635
(dp4636
g62
(dp4637
sg71
g4631
sg64
(lp4638
g57
(g58
g59
NtRp4639
(dp4640
g62
(dp4641
g70
I1
ssg71
g4635
sg64
(lp4642
I00
asbasbasbag57
(g73
g59
NtRp4643
(dp4644
g62
(dp4645
sg71
g4615
sg64
(lp4646
g57
(g78
g59
NtRp4647
(dp4648
g62
(dp4649
sg71
g4643
sg64
(lp4650
g57
(g58
g59
NtRp4651
(dp4652
g62
(dp4653
g70
I1
ssg71
g4647
sg64
(lp4654
g4058
asbasbasbag57
(g73
g59
NtRp4655
(dp4656
g62
(dp4657
sg71
g4615
sg64
(lp4658
g57
(g78
g59
NtRp4659
(dp4660
g62
(dp4661
sg71
g4655
sg64
(lp4662
g57
(g58
g59
NtRp4663
(dp4664
g62
(dp4665
g70
I1
ssg71
g4659
sg64
(lp4666
(lp4667
(g4074
I00
g4072
tp4668
a(g4084
I00
g4082
tp4669
a(g4094
I00
g4092
tp4670
a(g4104
I00
g4102
tp4671
a(g4114
I00
g4112
tp4672
a(g4124
I00
g4122
tp4673
a(g4134
I00
g4132
tp4674
a(g4144
I00
g4142
tp4675
a(g4154
I00
g4152
tp4676
a(g4164
I00
g4162
tp4677
a(g4174
I00
g4172
tp4678
aasbasbasbasbasbasbasbag57
(g73
g59
NtRp4679
(dp4680
g62
(dp4681
sg71
g4473
sg64
(lp4682
g57
(g78
g59
NtRp4683
(dp4684
g62
(dp4685
sg71
g4679
sg64
(lp4686
g57
(g58
g59
NtRp4687
(dp4688
g62
(dp4689
g70
I2
ssg71
g4683
sg64
(lp4690
g57
(g66
g59
NtRp4691
(dp4692
g62
(dp4693
g70
I1
ssg71
Nsg64
(lp4694
g57
(g73
g59
NtRp4695
(dp4696
g62
(dp4697
sg71
g4691
sg64
(lp4698
g57
(g78
g59
NtRp4699
(dp4700
g62
(dp4701
sg71
g4695
sg64
(lp4702
g57
(g58
g59
NtRp4703
(dp4704
g62
(dp4705
g70
I1
ssg71
g4699
sg64
(lp4706
g4184
asbasbasbag57
(g73
g59
NtRp4707
(dp4708
g62
(dp4709
sg71
g4691
sg64
(lp4710
g57
(g78
g59
NtRp4711
(dp4712
g62
(dp4713
sg71
g4707
sg64
(lp4714
g57
(g58
g59
NtRp4715
(dp4716
g62
(dp4717
g70
I1
ssg71
g4711
sg64
(lp4718
I00
asbasbasbag57
(g73
g59
NtRp4719
(dp4720
g62
(dp4721
sg71
g4691
sg64
(lp4722
g57
(g78
g59
NtRp4723
(dp4724
g62
(dp4725
sg71
g4719
sg64
(lp4726
g57
(g58
g59
NtRp4727
(dp4728
g62
(dp4729
g70
I1
ssg71
g4723
sg64
(lp4730
g4182
asbasbasbag57
(g73
g59
NtRp4731
(dp4732
g62
(dp4733
sg71
g4691
sg64
(lp4734
g57
(g78
g59
NtRp4735
(dp4736
g62
(dp4737
sg71
g4731
sg64
(lp4738
g57
(g58
g59
NtRp4739
(dp4740
g62
(dp4741
g70
I1
ssg71
g4735
sg64
(lp4742
(lp4743
(g4198
I00
g4196
tp4744
a(g4208
I00
g4206
tp4745
a(g4218
I00
g4216
tp4746
a(g4228
I00
g4226
tp4747
a(g4238
I00
g4236
tp4748
a(g4248
I00
g4246
tp4749
a(g4258
I00
g4256
tp4750
a(g4268
I00
g4266
tp4751
a(g4278
I00
g4276
tp4752
a(g4288
I00
g4286
tp4753
a(g4298
I00
g4296
tp4754
a(g4308
I00
g4306
tp4755
a(g4318
I00
g4316
tp4756
a(g4328
I00
g4326
tp4757
a(g4338
I00
g4336
tp4758
a(g4348
I00
g4346
tp4759
aasbasbasbasbasbasbasbag57
(g73
g59
NtRp4760
(dp4761
g62
(dp4762
sg71
g4473
sg64
(lp4763
g57
(g78
g59
NtRp4764
(dp4765
g62
(dp4766
sg71
g4760
sg64
(lp4767
g57
(g58
g59
NtRp4768
(dp4769
g62
(dp4770
g70
I2
ssg71
g4764
sg64
(lp4771
g57
(g66
g59
NtRp4772
(dp4773
g62
(dp4774
g70
I1
ssg71
Nsg64
(lp4775
g57
(g73
g59
NtRp4776
(dp4777
g62
(dp4778
sg71
g4772
sg64
(lp4779
g57
(g78
g59
NtRp4780
(dp4781
g62
(dp4782
sg71
g4776
sg64
(lp4783
g57
(g58
g59
NtRp4784
(dp4785
g62
(dp4786
g70
I1
ssg71
g4780
sg64
(lp4787
g4359
asbasbasbag57
(g73
g59
NtRp4788
(dp4789
g62
(dp4790
sg71
g4772
sg64
(lp4791
g57
(g78
g59
NtRp4792
(dp4793
g62
(dp4794
sg71
g4788
sg64
(lp4795
g57
(g58
g59
NtRp4796
(dp4797
g62
(dp4798
g70
I1
ssg71
g4792
sg64
(lp4799
I00
asbasbasbag57
(g73
g59
NtRp4800
(dp4801
g62
(dp4802
sg71
g4772
sg64
(lp4803
g57
(g78
g59
NtRp4804
(dp4805
g62
(dp4806
sg71
g4800
sg64
(lp4807
g57
(g58
g59
NtRp4808
(dp4809
g62
(dp4810
g70
I1
ssg71
g4804
sg64
(lp4811
Nasbasbasbag57
(g73
g59
NtRp4812
(dp4813
g62
(dp4814
sg71
g4772
sg64
(lp4815
g57
(g78
g59
NtRp4816
(dp4817
g62
(dp4818
sg71
g4812
sg64
(lp4819
g57
(g58
g59
NtRp4820
(dp4821
g62
(dp4822
g70
I1
ssg71
g4816
sg64
(lp4823
(lp4824
(g4373
I00
g4371
tp4825
a(g4383
I00
g4381
tp4826
a(g4393
I00
g4391
tp4827
aasbasbasbasbasbasbasbag57
(g73
g59
NtRp4828
(dp4829
g62
(dp4830
sg71
g4473
sg64
(lp4831
g57
(g78
g59
NtRp4832
(dp4833
g62
(dp4834
sg71
g4828
sg64
(lp4835
g57
(g58
g59
NtRp4836
(dp4837
g62
(dp4838
g70
I2
ssg71
g4832
sg64
(lp4839
g57
(g66
g59
NtRp4840
(dp4841
g62
(dp4842
g70
I1
ssg71
Nsg64
(lp4843
g57
(g73
g59
NtRp4844
(dp4845
g62
(dp4846
sg71
g4840
sg64
(lp4847
g57
(g78
g59
NtRp4848
(dp4849
g62
(dp4850
sg71
g4844
sg64
(lp4851
g57
(g58
g59
NtRp4852
(dp4853
g62
(dp4854
g70
I1
ssg71
g4848
sg64
(lp4855
g4402
asbasbasbag57
(g73
g59
NtRp4856
(dp4857
g62
(dp4858
sg71
g4840
sg64
(lp4859
g57
(g78
g59
NtRp4860
(dp4861
g62
(dp4862
sg71
g4856
sg64
(lp4863
g57
(g58
g59
NtRp4864
(dp4865
g62
(dp4866
g70
I1
ssg71
g4860
sg64
(lp4867
I00
asbasbasbag57
(g73
g59
NtRp4868
(dp4869
g62
(dp4870
sg71
g4840
sg64
(lp4871
g57
(g78
g59
NtRp4872
(dp4873
g62
(dp4874
sg71
g4868
sg64
(lp4875
g57
(g58
g59
NtRp4876
(dp4877
g62
(dp4878
g70
I1
ssg71
g4872
sg64
(lp4879
Nasbasbasbag57
(g73
g59
NtRp4880
(dp4881
g62
(dp4882
sg71
g4840
sg64
(lp4883
g57
(g78
g59
NtRp4884
(dp4885
g62
(dp4886
sg71
g4880
sg64
(lp4887
g57
(g58
g59
NtRp4888
(dp4889
g62
(dp4890
g70
I1
ssg71
g4884
sg64
(lp4891
(lp4892
(g4416
I00
g4414
tp4893
a(g4425
I00
g4142
tp4894
a(g4434
I00
g4152
tp4895
aasbasbasbasbasbasbasbasbasbasbasbasbasbasbasbasbasbasbasbag57
(g73
g59
NtRp4896
(dp4897
g62
(dp4898
sg71
g3160
sg64
(lp4899
g57
(g78
g59
NtRp4900
(dp4901
g62
(dp4902
g82
g83
ssg71
g4896
sg64
(lp4903
S'meta'
p4904
asbag57
(g78
g59
NtRp4905
(dp4906
g62
(dp4907
g89
g90
ssg71
g4896
sg64
(lp4908
S':'
asbag57
(g78
g59
NtRp4909
(dp4910
g62
(dp4911
sg71
g4896
sg64
(lp4912
g57
(g58
g59
NtRp4913
(dp4914
g62
(dp4915
g70
I5
ssg71
g4909
sg64
(lp4916
g57
(g66
g59
NtRp4917
(dp4918
g62
(dp4919
g70
I4
ssg71
Nsg64
(lp4920
g57
(g73
g59
NtRp4921
(dp4922
g62
(dp4923
sg71
g4917
sg64
(lp4924
g57
(g78
g59
NtRp4925
(dp4926
g62
(dp4927
g82
g83
ssg71
g4921
sg64
(lp4928
S'author'
p4929
asbag57
(g78
g59
NtRp4930
(dp4931
g62
(dp4932
g89
g90
ssg71
g4921
sg64
(lp4933
S':'
asbag57
(g78
g59
NtRp4934
(dp4935
g62
(dp4936
sg71
g4921
sg64
(lp4937
g57
(g58
g59
NtRp4938
(dp4939
g62
(dp4940
g70
I4
ssg71
g4934
sg64
(lp4941
S'Your Name <you@example.com>'
p4942
asbasbasbag57
(g73
g59
NtRp4943
(dp4944
g62
(dp4945
sg71
g4917
sg64
(lp4946
g57
(g78
g59
NtRp4947
(dp4948
g62
(dp4949
g82
g83
ssg71
g4943
sg64
(lp4950
S'description'
p4951
asbag57
(g78
g59
NtRp4952
(dp4953
g62
(dp4954
g89
g90
ssg71
g4943
sg64
(lp4955
S':'
asbag57
(g78
g59
NtRp4956
(dp4957
g62
(dp4958
sg71
g4943
sg64
(lp4959
g57
(g58
g59
NtRp4960
(dp4961
g62
(dp4962
g70
I4
ssg71
g4956
sg64
(lp4963
S'a cool new app'
p4964
asbasbasbag57
(g73
g59
NtRp4965
(dp4966
g62
(dp4967
sg71
g4917
sg64
(lp4968
g57
(g78
g59
NtRp4969
(dp4970
g62
(dp4971
g82
g83
ssg71
g4965
sg64
(lp4972
S'generator'
p4973
asbag57
(g78
g59
NtRp4974
(dp4975
g62
(dp4976
g89
g90
ssg71
g4965
sg64
(lp4977
S':'
asbag57
(g78
g59
NtRp4978
(dp4979
g62
(dp4980
sg71
g4965
sg64
(lp4981
g57
(g58
g59
NtRp4982
(dp4983
g62
(dp4984
g70
I4
ssg71
g4978
sg64
(lp4985
S'Web2py Web Framework'
p4986
asbasbasbag57
(g73
g59
NtRp4987
(dp4988
g62
(dp4989
sg71
g4917
sg64
(lp4990
g57
(g78
g59
NtRp4991
(dp4992
g62
(dp4993
g82
g83
ssg71
g4987
sg64
(lp4994
S'keywords'
p4995
asbag57
(g78
g59
NtRp4996
(dp4997
g62
(dp4998
g89
g90
ssg71
g4987
sg64
(lp4999
S':'
asbag57
(g78
g59
NtRp5000
(dp5001
g62
(dp5002
sg71
g4987
sg64
(lp5003
g57
(g58
g59
NtRp5004
(dp5005
g62
(dp5006
g70
I4
ssg71
g5000
sg64
(lp5007
S'web2py, python, framework'
p5008
asbasbasbasbasbasbasbag57
(g73
g59
NtRp5009
(dp5010
g62
(dp5011
sg71
g3160
sg64
(lp5012
g57
(g78
g59
NtRp5013
(dp5014
g62
(dp5015
g82
g83
ssg71
g5009
sg64
(lp5016
S'models_to_run'
p5017
asbag57
(g78
g59
NtRp5018
(dp5019
g62
(dp5020
g89
g90
ssg71
g5009
sg64
(lp5021
S':'
asbag57
(g78
g59
NtRp5022
(dp5023
g62
(dp5024
sg71
g5009
sg64
(lp5025
g57
(g58
g59
NtRp5026
(dp5027
g62
(dp5028
g70
I5
ssg71
g5022
sg64
(lp5029
g57
(g66
g59
NtRp5030
(dp5031
g62
(dp5032
g70
I4
ssg71
Nsg64
(lp5033
g57
(g73
g59
NtRp5034
(dp5035
g62
(dp5036
sg71
g5030
sg64
(lp5037
g57
(g78
g59
NtRp5038
(dp5039
g62
(dp5040
sg71
g5034
sg64
(lp5041
g57
(g58
g59
NtRp5042
(dp5043
g62
(dp5044
g70
I4
ssg71
g5038
sg64
(lp5045
S'^\\w+\\.py$'
p5046
asbasbasbag57
(g73
g59
NtRp5047
(dp5048
g62
(dp5049
sg71
g5030
sg64
(lp5050
g57
(g78
g59
NtRp5051
(dp5052
g62
(dp5053
sg71
g5047
sg64
(lp5054
g57
(g58
g59
NtRp5055
(dp5056
g62
(dp5057
g70
I4
ssg71
g5051
sg64
(lp5058
S'^webrtc/\\w+\\.py$'
p5059
asbasbasbag57
(g73
g59
NtRp5060
(dp5061
g62
(dp5062
sg71
g5030
sg64
(lp5063
g57
(g78
g59
NtRp5064
(dp5065
g62
(dp5066
sg71
g5060
sg64
(lp5067
g57
(g58
g59
NtRp5068
(dp5069
g62
(dp5070
g70
I4
ssg71
g5064
sg64
(lp5071
S'^webrtc/index/\\w+\\.py$'
p5072
asbasbasbasbasbasbasbag57
(g73
g59
NtRp5073
(dp5074
g62
(dp5075
sg71
g3160
sg64
(lp5076
g57
(g78
g59
NtRp5077
(dp5078
g62
(dp5079
g82
g83
ssg71
g5073
sg64
(lp5080
S'postprocessing'
p5081
asbag57
(g78
g59
NtRp5082
(dp5083
g62
(dp5084
g89
g90
ssg71
g5073
sg64
(lp5085
S':'
asbag57
(g78
g59
NtRp5086
(dp5087
g62
(dp5088
sg71
g5073
sg64
(lp5089
g57
(g58
g59
NtRp5090
(dp5091
g62
(dp5092
g70
I5
ssg71
g5086
sg64
(lp5093
g57
(g66
g59
NtRp5094
(dp5095
g62
(dp5096
g70
I4
ssg71
Nsg64
(lp5097
sbasbasbasbag57
(g73
g59
NtRp5098
(dp5099
g62
(dp5100
sg71
g3160
sg64
(lp5101
g57
(g78
g59
NtRp5102
(dp5103
g62
(dp5104
g82
g83
ssg71
g5098
sg64
(lp5105
S'session_cookie_expires'
p5106
asbag57
(g78
g59
NtRp5107
(dp5108
g62
(dp5109
g89
g90
ssg71
g5098
sg64
(lp5110
S':'
asbag57
(g78
g59
NtRp5111
(dp5112
g62
(dp5113
sg71
g5098
sg64
(lp5114
g57
(g58
g59
NtRp5115
(dp5116
g62
(dp5117
g70
I5
ssg71
g5111
sg64
(lp5118
S'None'
p5119
asbasbasbag57
(g73
g59
NtRp5120
(dp5121
g62
(dp5122
sg71
g3160
sg64
(lp5123
g57
(g78
g59
NtRp5124
(dp5125
g62
(dp5126
g82
g83
ssg71
g5120
sg64
(lp5127
S'session_data_name'
p5128
asbag57
(g78
g59
NtRp5129
(dp5130
g62
(dp5131
g89
g90
ssg71
g5120
sg64
(lp5132
S':'
asbag57
(g78
g59
NtRp5133
(dp5134
g62
(dp5135
sg71
g5120
sg64
(lp5136
g57
(g58
g59
NtRp5137
(dp5138
g62
(dp5139
g70
I5
ssg71
g5133
sg64
(lp5140
S'session_data_welcome'
p5141
asbasbasbag57
(g73
g59
NtRp5142
(dp5143
g62
(dp5144
sg71
g3160
sg64
(lp5145
g57
(g78
g59
NtRp5146
(dp5147
g62
(dp5148
g82
g83
ssg71
g5142
sg64
(lp5149
S'session_file'
p5150
asbag57
(g78
g59
NtRp5151
(dp5152
g62
(dp5153
g89
g90
ssg71
g5142
sg64
(lp5154
S':'
asbag57
(g78
g59
NtRp5155
(dp5156
g62
(dp5157
sg71
g5142
sg64
(lp5158
g57
(g58
g59
NtRp5159
(dp5160
g62
(dp5161
g70
I5
ssg71
g5155
sg64
(lp5162
S'None'
p5163
asbasbasbag57
(g73
g59
NtRp5164
(dp5165
g62
(dp5166
sg71
g3160
sg64
(lp5167
g57
(g78
g59
NtRp5168
(dp5169
g62
(dp5170
g82
g83
ssg71
g5164
sg64
(lp5171
S'session_filename'
p5172
asbag57
(g78
g59
NtRp5173
(dp5174
g62
(dp5175
g89
g90
ssg71
g5164
sg64
(lp5176
S':'
asbag57
(g78
g59
NtRp5177
(dp5178
g62
(dp5179
sg71
g5164
sg64
(lp5180
g57
(g58
g59
NtRp5181
(dp5182
g62
(dp5183
g70
I5
ssg71
g5177
sg64
(lp5184
S'D:\\Work\\webRTC\\web2py\\applications\\welcome\\sessions\\127.0.0.1-dbfdfe15-329d-49b6-859c-22e2bf3300d9'
p5185
asbasbasbag57
(g73
g59
NtRp5186
(dp5187
g62
(dp5188
sg71
g3160
sg64
(lp5189
g57
(g78
g59
NtRp5190
(dp5191
g62
(dp5192
g82
g83
ssg71
g5186
sg64
(lp5193
S'session_id'
p5194
asbag57
(g78
g59
NtRp5195
(dp5196
g62
(dp5197
g89
g90
ssg71
g5186
sg64
(lp5198
S':'
asbag57
(g78
g59
NtRp5199
(dp5200
g62
(dp5201
sg71
g5186
sg64
(lp5202
g57
(g58
g59
NtRp5203
(dp5204
g62
(dp5205
g70
I5
ssg71
g5199
sg64
(lp5206
g475
asbasbasbag57
(g73
g59
NtRp5207
(dp5208
g62
(dp5209
sg71
g3160
sg64
(lp5210
g57
(g78
g59
NtRp5211
(dp5212
g62
(dp5213
g82
g83
ssg71
g5207
sg64
(lp5214
S'session_id_name'
p5215
asbag57
(g78
g59
NtRp5216
(dp5217
g62
(dp5218
g89
g90
ssg71
g5207
sg64
(lp5219
S':'
asbag57
(g78
g59
NtRp5220
(dp5221
g62
(dp5222
sg71
g5207
sg64
(lp5223
g57
(g58
g59
NtRp5224
(dp5225
g62
(dp5226
g70
I5
ssg71
g5220
sg64
(lp5227
g3217
asbasbasbag57
(g73
g59
NtRp5228
(dp5229
g62
(dp5230
sg71
g3160
sg64
(lp5231
g57
(g78
g59
NtRp5232
(dp5233
g62
(dp5234
g82
g83
ssg71
g5228
sg64
(lp5235
S'session_new'
p5236
asbag57
(g78
g59
NtRp5237
(dp5238
g62
(dp5239
g89
g90
ssg71
g5228
sg64
(lp5240
S':'
asbag57
(g78
g59
NtRp5241
(dp5242
g62
(dp5243
sg71
g5228
sg64
(lp5244
g57
(g58
g59
NtRp5245
(dp5246
g62
(dp5247
g70
I5
ssg71
g5241
sg64
(lp5248
g100
asbasbasbag57
(g73
g59
NtRp5249
(dp5250
g62
(dp5251
sg71
g3160
sg64
(lp5252
g57
(g78
g59
NtRp5253
(dp5254
g62
(dp5255
g82
g83
ssg71
g5249
sg64
(lp5256
S'session_storage_type'
p5257
asbag57
(g78
g59
NtRp5258
(dp5259
g62
(dp5260
g89
g90
ssg71
g5249
sg64
(lp5261
S':'
asbag57
(g78
g59
NtRp5262
(dp5263
g62
(dp5264
sg71
g5249
sg64
(lp5265
g57
(g58
g59
NtRp5266
(dp5267
g62
(dp5268
g70
I5
ssg71
g5262
sg64
(lp5269
g3089
asbasbasbag57
(g73
g59
NtRp5270
(dp5271
g62
(dp5272
sg71
g3160
sg64
(lp5273
g57
(g78
g59
NtRp5274
(dp5275
g62
(dp5276
g82
g83
ssg71
g5270
sg64
(lp5277
S'status'
p5278
asbag57
(g78
g59
NtRp5279
(dp5280
g62
(dp5281
g89
g90
ssg71
g5270
sg64
(lp5282
S':'
asbag57
(g78
g59
NtRp5283
(dp5284
g62
(dp5285
sg71
g5270
sg64
(lp5286
g57
(g58
g59
NtRp5287
(dp5288
g62
(dp5289
g70
I5
ssg71
g5283
sg64
(lp5290
S'200'
p5291
asbasbasbag57
(g73
g59
NtRp5292
(dp5293
g62
(dp5294
sg71
g3160
sg64
(lp5295
g57
(g78
g59
NtRp5296
(dp5297
g62
(dp5298
g82
g83
ssg71
g5292
sg64
(lp5299
S'subtitle'
p5300
asbag57
(g78
g59
NtRp5301
(dp5302
g62
(dp5303
g89
g90
ssg71
g5292
sg64
(lp5304
S':'
asbag57
(g78
g59
NtRp5305
(dp5306
g62
(dp5307
sg71
g5292
sg64
(lp5308
g57
(g58
g59
NtRp5309
(dp5310
g62
(dp5311
g70
I5
ssg71
g5305
sg64
(lp5312
g3824
(S's\r\x00\x00\x00customize me!'
tRp5313
asbasbasbag57
(g73
g59
NtRp5314
(dp5315
g62
(dp5316
sg71
g3160
sg64
(lp5317
g57
(g78
g59
NtRp5318
(dp5319
g62
(dp5320
g82
g83
ssg71
g5314
sg64
(lp5321
S'title'
p5322
asbag57
(g78
g59
NtRp5323
(dp5324
g62
(dp5325
g89
g90
ssg71
g5314
sg64
(lp5326
S':'
asbag57
(g78
g59
NtRp5327
(dp5328
g62
(dp5329
sg71
g5314
sg64
(lp5330
g57
(g58
g59
NtRp5331
(dp5332
g62
(dp5333
g70
I5
ssg71
g5327
sg64
(lp5334
S'Welcome'
p5335
asbasbasbag57
(g73
g59
NtRp5336
(dp5337
g62
(dp5338
sg71
g3160
sg64
(lp5339
g57
(g78
g59
NtRp5340
(dp5341
g62
(dp5342
g82
g83
ssg71
g5336
sg64
(lp5343
S'view'
p5344
asbag57
(g78
g59
NtRp5345
(dp5346
g62
(dp5347
g89
g90
ssg71
g5336
sg64
(lp5348
S':'
asbag57
(g78
g59
NtRp5349
(dp5350
g62
(dp5351
sg71
g5336
sg64
(lp5352
g57
(g58
g59
NtRp5353
(dp5354
g62
(dp5355
g70
I5
ssg71
g5349
sg64
(lp5356
S'webrtc/index.html'
p5357
asbasbasbasbasbsS'locals'
p5358
(dp5359
S'Service'
p5360
S"<class 'gluon.tools.Service'>"
p5361
sS'OBJECT'
p5362
S"<class 'gluon.html.OBJECT'>"
p5363
sS'SQLDB'
p5364
S"<class 'gluon.dal.DAL'>"
p5365
sg3142
S'<Storage {}>'
p5366
sS'LINK'
p5367
S"<class 'gluon.html.LINK'>"
p5368
sS'BR'
p5369
S"<class 'gluon.html.BR'>"
p5370
sS'local_import'
p5371
S'<function <lambda>>'
p5372
sS'OPTGROUP'
p5373
S"<class 'gluon.html.OPTGROUP'>"
p5374
sS'__package__'
p5375
S'None'
p5376
sS'PRE'
p5377
S"<class 'gluon.html.PRE'>"
p5378
sS'IS_INT_IN_RANGE'
p5379
S"<class 'gluon.validators.IS_INT_IN_RANGE'>"
p5380
sS'left_sidebar_enabled'
p5381
g100
sS'IS_LOWER'
p5382
S"<class 'gluon.validators.IS_LOWER'>"
p5383
sS'IS_STRONG'
p5384
S"<class 'gluon.validators.IS_STRONG'>"
p5385
sS'cache'
p5386
S'<gluon.cache.Cache object>'
p5387
sS'IS_IN_DB'
p5388
S"<class 'gluon.validators.IS_IN_DB'>"
p5389
sS'TAG'
p5390
S'<gluon.html.__TAG__ object>'
p5391
sS'SQLField'
p5392
S"<class 'gluon.dal.Field'>"
p5393
sS'mail'
p5394
S'<gluon.tools.Mail object>'
p5395
sS'isCaller'
p5396
S"'true'"
p5397
sS'BODY'
p5398
S"<class 'gluon.html.BODY'>"
p5399
sS'IS_DATE_IN_RANGE'
p5400
S"<class 'gluon.validators.IS_DATE_IN_RANGE'>"
p5401
sS'IFRAME'
p5402
S"<class 'gluon.html.IFRAME'>"
p5403
sS'URL'
p5404
S'<function URL>'
p5405
sS'__file__'
p5406
S"r'D:\\Work\\webRTC\\web2py\\applications\\welcome\\views\\webrtc/index.html'"
p5407
sS'db'
p5408
S'<DAL uri="sqlite://storage.sqlite">'
p5409
sS'auth'
p5410
S'<gluon.tools.Auth object>'
p5411
sS'P'
S"<class 'gluon.html.P'>"
p5412
sS'TFOOT'
p5413
S"<class 'gluon.html.TFOOT'>"
p5414
sS'XHTML'
p5415
S"<class 'gluon.html.XHTML'>"
p5416
sS'ON'
p5417
g1622
sS'OL'
p5418
S"<class 'gluon.html.OL'>"
p5419
sS'TEXTAREA'
p5420
S"<class 'gluon.html.TEXTAREA'>"
p5421
sS'MENU'
p5422
S"<class 'gluon.html.MENU'>"
p5423
sS'IS_IMAGE'
p5424
S"<class 'gluon.validators.IS_IMAGE'>"
p5425
sS'EM'
p5426
S"<class 'gluon.html.EM'>"
p5427
sS'CODE'
p5428
S"<class 'gluon.html.CODE'>"
p5429
sS'HTTP'
p5430
S"<class 'gluon.http.HTTP'>"
p5431
sS'HR'
p5432
S"<class 'gluon.html.HR'>"
p5433
sS'IS_DATETIME'
p5434
S"<class 'gluon.validators.IS_DATETIME'>"
p5435
sS'STYLE'
p5436
S"<class 'gluon.html.STYLE'>"
p5437
sS'LABEL'
p5438
S"<class 'gluon.html.LABEL'>"
p5439
sS'CLEANUP'
p5440
S"<class 'gluon.validators.CLEANUP'>"
p5441
sS'plugins'
p5442
S'<gluon.tools.PluginManager object>'
p5443
sS'SELECT'
p5444
S"<class 'gluon.html.SELECT'>"
p5445
sS'use_janrain'
p5446
S'<function use_janrain>'
p5447
sS'CENTER'
p5448
S"<class 'gluon.html.CENTER'>"
p5449
sS'prettydate'
p5450
S'<function prettydate>'
p5451
sS'Crud'
p5452
S"<class 'gluon.tools.Crud'>"
p5453
sS'Auth'
p5454
S"<class 'gluon.tools.Auth'>"
p5455
sS'DEVELOPMENT_MENU'
p5456
g1622
sS'__builtins__'
p5457
S"{'ArithmeticError': <type 'exceptions.ArithmeticError'>, 'AssertionError': <type 'exceptions.AssertionError'>, 'AttributeError': <type 'exceptions.AttributeError'>, 'BaseException': <type 'exceptions.BaseException'>, 'BufferError': <type 'exceptions.BufferError'>, 'BytesWarning': <type 'exceptions.BytesWarning'>, 'DeprecationWarning': <type 'exceptions.DeprecationWarning'>, 'EOFError': <type 'exceptions.EOFError'>, 'Ellipsis': Ellipsis, 'EnvironmentError': <type 'exceptions.EnvironmentError'>, ...}"
p5458
sS'HTML'
p5459
S"<class 'gluon.html.HTML'>"
p5460
sS'SQLFORM'
p5461
S"<class 'gluon.sqlhtml.SQLFORM'>"
p5462
sS'LOAD'
p5463
S'<function LOAD>'
p5464
sS'redirect'
p5465
S'<function redirect>'
p5466
sS'FIELDSET'
p5467
S"<class 'gluon.html.FIELDSET'>"
p5468
sS'IS_EQUAL_TO'
p5469
S"<class 'gluon.validators.IS_EQUAL_TO'>"
p5470
sS'embed64'
p5471
S'<function embed64>'
p5472
sS'IS_LIST_OF'
p5473
S"<class 'gluon.validators.IS_LIST_OF'>"
p5474
sS'INPUT'
p5475
S"<class 'gluon.html.INPUT'>"
p5476
sS'EMBED'
p5477
S"<class 'gluon.html.EMBED'>"
p5478
sS'_'
S'<function _>'
p5479
sS'H2'
p5480
S"<class 'gluon.html.H2'>"
p5481
sS'H3'
p5482
S"<class 'gluon.html.H3'>"
p5483
sS'BUTTON'
p5484
S"<class 'gluon.html.BUTTON'>"
p5485
sS'H1'
p5486
S"<class 'gluon.html.H1'>"
p5487
sS'H6'
p5488
S"<class 'gluon.html.H6'>"
p5489
sS'H4'
p5490
S"<class 'gluon.html.H4'>"
p5491
sS'H5'
p5492
S"<class 'gluon.html.H5'>"
p5493
sS'UL'
p5494
S"<class 'gluon.html.UL'>"
p5495
sS'IS_UPPER'
p5496
S"<class 'gluon.validators.IS_UPPER'>"
p5497
sS'xmlescape'
p5498
S'<function xmlescape>'
p5499
sS'IS_TIME'
p5500
S"<class 'gluon.validators.IS_TIME'>"
p5501
sS'OPTION'
p5502
S"<class 'gluon.html.OPTION'>"
p5503
sS'TITLE'
p5504
S"<class 'gluon.html.TITLE'>"
p5505
sS'CRYPT'
p5506
S"<class 'gluon.validators.CRYPT'>"
p5507
sS'IS_EMPTY_OR'
p5508
S"<class 'gluon.validators.IS_EMPTY_OR'>"
p5509
sS'MARKMIN'
p5510
S"<class 'gluon.html.MARKMIN'>"
p5511
sS'__name__'
p5512
S"'__restricted__'"
p5513
sS'STRONG'
p5514
S"<class 'gluon.html.STRONG'>"
p5515
sS'COL'
p5516
S"<class 'gluon.html.COL'>"
p5517
sS'service'
p5518
S'<gluon.tools.Service object>'
p5519
sS'SCRIPT'
p5520
S"<class 'gluon.html.SCRIPT'>"
p5521
sS'is_mobile'
p5522
g100
sS'TABLE'
p5523
S"<class 'gluon.html.TABLE'>"
p5524
sS'IS_IPV4'
p5525
S"<class 'gluon.validators.IS_IPV4'>"
p5526
sS'IS_LENGTH'
p5527
S"<class 'gluon.validators.IS_LENGTH'>"
p5528
sS'XML'
p5529
S"<class 'gluon.html.XML'>"
p5530
sS'B'
S"<class 'gluon.html.B'>"
p5531
sS'IMG'
p5532
S"<class 'gluon.html.IMG'>"
p5533
sS'SQLTABLE'
p5534
S"<class 'gluon.sqlhtml.SQLTABLE'>"
p5535
sS'IS_MATCH'
p5536
S"<class 'gluon.validators.IS_MATCH'>"
p5537
sS'IS_ALPHANUMERIC'
p5538
S"<class 'gluon.validators.IS_ALPHANUMERIC'>"
p5539
sS'SPAN'
p5540
S"<class 'gluon.html.SPAN'>"
p5541
sS'IS_SLUG'
p5542
S"<class 'gluon.validators.IS_SLUG'>"
p5543
sS'BEAUTIFY'
p5544
S"<class 'gluon.html.BEAUTIFY'>"
p5545
sS'META'
p5546
S"<class 'gluon.html.META'>"
p5547
sS'IS_DATE'
p5548
S"<class 'gluon.validators.IS_DATE'>"
p5549
sS'IS_EMAIL'
p5550
S"<class 'gluon.validators.IS_EMAIL'>"
p5551
sS'IS_NOT_EMPTY'
p5552
S"<class 'gluon.validators.IS_NOT_EMPTY'>"
p5553
sS'IS_FLOAT_IN_RANGE'
p5554
S"<class 'gluon.validators.IS_FLOAT_IN_RANGE'>"
p5555
sS'TBODY'
p5556
S"<class 'gluon.html.TBODY'>"
p5557
sS'CAT'
p5558
S"<class 'gluon.html.CAT'>"
p5559
sS'Field'
p5560
S"<class 'gluon.dal.Field'>"
p5561
sS'middle_columns'
p5562
S"'span12'"
p5563
sS'DIV'
p5564
S"<class 'gluon.html.DIV'>"
p5565
sS'LEGEND'
p5566
S"<class 'gluon.html.LEGEND'>"
p5567
sS'COLGROUP'
p5568
S"<class 'gluon.html.COLGROUP'>"
p5569
sS'DAL'
p5570
S"<class 'gluon.dal.DAL'>"
p5571
sS'TT'
p5572
S"<class 'gluon.html.TT'>"
p5573
sS'TR'
p5574
S"<class 'gluon.html.TR'>"
p5575
sS'LI'
p5576
S"<class 'gluon.html.LI'>"
p5577
sS'right_sidebar_enabled'
p5578
g100
sS'TH'
p5579
S"<class 'gluon.html.TH'>"
p5580
sS'TD'
p5581
S"<class 'gluon.html.TD'>"
p5582
sS'PluginManager'
p5583
S"<class 'gluon.tools.PluginManager'>"
p5584
sS'IS_URL'
p5585
S"<class 'gluon.validators.IS_URL'>"
p5586
sS'A'
S"<class 'gluon.html.A'>"
p5587
sS'HEAD'
p5588
S"<class 'gluon.html.HEAD'>"
p5589
sS'IS_DATETIME_IN_RANGE'
p5590
S"<class 'gluon.validators.IS_DATETIME_IN_RANGE'>"
p5591
sS'FORM'
p5592
S"<class 'gluon.html.FORM'>"
p5593
sS'I'
S"<class 'gluon.html.I'>"
p5594
sS'crud'
p5595
S'<gluon.tools.Crud object>'
p5596
sS'IS_NOT_IN_DB'
p5597
S"<class 'gluon.validators.IS_NOT_IN_DB'>"
p5598
sg3155
S"<Storage {'body': <cStringIO.StringO object at 0...x00000000054E2F28>, 'view': 'webrtc/index.html'}>"
p5599
sS'THEAD'
p5600
S"<class 'gluon.html.THEAD'>"
p5601
sS'IS_NULL_OR'
p5602
S"<class 'gluon.validators.IS_EMPTY_OR'>"
p5603
sg56
S"<Storage {'function': 'index', 'body': <cStringI...ications\\\\welcome\\\\', 'post_vars': <Storage {}>}>"
p5604
sS'IS_EXPR'
p5605
S"<class 'gluon.validators.IS_EXPR'>"
p5606
sS'T'
S'<gluon.languages.translator object>'
p5607
sS'IS_IN_SET'
p5608
S"<class 'gluon.validators.IS_IN_SET'>"
p5609
sS'IS_UPLOAD_FILENAME'
p5610
S"<class 'gluon.validators.IS_UPLOAD_FILENAME'>"
p5611
sS'IS_DECIMAL_IN_RANGE'
p5612
S"<class 'gluon.validators.IS_DECIMAL_IN_RANGE'>"
p5613
sssS'traceback'
p5614
S'Traceback (most recent call last):\n  File "D:\\Work\\webRTC\\web2py\\gluon\\restricted.py", line 212, in restricted\n    exec ccode in environment\n  File "D:\\Work\\webRTC\\web2py\\applications\\welcome\\views\\webrtc/index.html", line 83, in <module>\nNameError: name \'dest\' is not defined\n'
p5615
s.