(dp1
S'output'
p2
S"<type 'exceptions.IOError'> [Errno socket error] [Errno 10061] No connection could be made because the target machine actively refused it"
p3
sS'layer'
p4
S'D:\\Work\\webRTC\\web2py\\applications\\welcome\\controllers/webrtc.py'
p5
sS'code'
p6
S"# coding: utf8\n# try something like\nhost_name = request.env['http_host']\nhost_name = host_name[:host_name.find(':')]\ndef teacher():\n    import sha, random, base64\n    key_gen = base64.b64encode(sha.sha(str(random.random())).hexdigest())[:8]\n    db.rtc.insert(access_token = key_gen)\n    return dict(host = host_name,access_token = key_gen,class_name=request.args[0])\ndef student():\n    import sha, random, base64\n    key_gen = base64.b64encode(sha.sha(str(random.random())).hexdigest())[:8]\n    id = db.rtc.insert(access_token = key_gen)\n    relate_keys_db = db(db.rtc.id < id).select(db.rtc.access_token,limitby=(0, 2))\n    relate_keys = [str(item.access_token) for item in relate_keys_db]\n    return dict(host = host_name,access_token = key_gen,class_name=request.args[0],relate_keys= XML(relate_keys))\ndef connect():\n   from gluon.contrib.websocket_messaging import websocket_send\n   websocket_send('http://'+host_name+':8888',request.vars.msg,'rtc',request.args[0])\ndef demo():\n    response.files.append(URL('static','js/adapter.js')) \n    return dict()\n\nresponse._vars=response._caller(connect)\n"
p7
sS'snapshot'
p8
(dp9
S'exception'
p10
(dp11
S'__getslice__'
p12
S"<method-wrapper '__getslice__' of exceptions.IOError object>"
p13
sS'__str__'
p14
S"<method-wrapper '__str__' of exceptions.IOError object>"
p15
sS'__reduce__'
p16
S'<built-in method __reduce__ of exceptions.IOError object>'
p17
sS'__dict__'
p18
S'{}'
p19
sS'__sizeof__'
p20
S'<built-in method __sizeof__ of exceptions.IOError object>'
p21
sS'__init__'
p22
S"<method-wrapper '__init__' of exceptions.IOError object>"
p23
sS'__setattr__'
p24
S"<method-wrapper '__setattr__' of exceptions.IOError object>"
p25
sS'__reduce_ex__'
p26
S'<built-in method __reduce_ex__ of exceptions.IOError object>'
p27
sS'__new__'
p28
S'<built-in method __new__ of type object>'
p29
sS'errno'
p30
S"'socket error'"
p31
sS'__format__'
p32
S'<built-in method __format__ of exceptions.IOError object>'
p33
sS'__class__'
p34
S"<type 'exceptions.IOError'>"
p35
sS'filename'
p36
S'None'
p37
sS'__doc__'
p38
S"'I/O operation failed.'"
p39
sS'__getitem__'
p40
S"<method-wrapper '__getitem__' of exceptions.IOError object>"
p41
sS'__setstate__'
p42
S'<built-in method __setstate__ of exceptions.IOError object>'
p43
sS'__getattribute__'
p44
S"<method-wrapper '__getattribute__' of exceptions.IOError object>"
p45
sS'args'
p46
S"('socket error', error(10061, 'No connection could be made because the target machine actively refused it'))"
p47
sS'__subclasshook__'
p48
S'<built-in method __subclasshook__ of type object>'
p49
sS'__unicode__'
p50
S'<built-in method __unicode__ of exceptions.IOError object>'
p51
sS'strerror'
p52
S"error(10061, 'No connection could be made because the target machine actively refused it')"
p53
sS'__delattr__'
p54
S"<method-wrapper '__delattr__' of exceptions.IOError object>"
p55
sS'__repr__'
p56
S"<method-wrapper '__repr__' of exceptions.IOError object>"
p57
sS'__hash__'
p58
S"<method-wrapper '__hash__' of exceptions.IOError object>"
p59
ssS'evalue'
p60
S'[Errno socket error] [Errno 10061] No connection could be made because the target machine actively refused it'
p61
sS'request'
p62
ccopy_reg
_reconstructor
p63
(cgluon.html
BEAUTIFY
p64
c__builtin__
object
p65
NtRp66
(dp67
S'attributes'
p68
(dp69
sS'components'
p70
(lp71
g63
(cgluon.html
TABLE
p72
g65
NtRp73
(dp74
g68
(dp75
S'level'
p76
I5
ssS'parent'
p77
Nsg70
(lp78
g63
(cgluon.html
TR
p79
g65
NtRp80
(dp81
g68
(dp82
sg77
g73
sg70
(lp83
g63
(cgluon.html
TD
p84
g65
NtRp85
(dp86
g68
(dp87
S'_style'
p88
S'font-weight:bold;vertical-align:top'
p89
ssg77
g80
sg70
(lp90
S'ajax'
p91
asbag63
(g84
g65
NtRp92
(dp93
g68
(dp94
S'_valign'
p95
S'top'
p96
ssg77
g80
sg70
(lp97
S':'
asbag63
(g84
g65
NtRp98
(dp99
g68
(dp100
sg77
g80
sg70
(lp101
g63
(g64
g65
NtRp102
(dp103
g68
(dp104
g76
I5
ssg77
g98
sg70
(lp105
S'True'
p106
asbasbasbag63
(g79
g65
NtRp107
(dp108
g68
(dp109
sg77
g73
sg70
(lp110
g63
(g84
g65
NtRp111
(dp112
g68
(dp113
g88
g89
ssg77
g107
sg70
(lp114
S'application'
p115
asbag63
(g84
g65
NtRp116
(dp117
g68
(dp118
g95
g96
ssg77
g107
sg70
(lp119
S':'
asbag63
(g84
g65
NtRp120
(dp121
g68
(dp122
sg77
g107
sg70
(lp123
g63
(g64
g65
NtRp124
(dp125
g68
(dp126
g76
I5
ssg77
g120
sg70
(lp127
S'welcome'
p128
asbasbasbag63
(g79
g65
NtRp129
(dp130
g68
(dp131
sg77
g73
sg70
(lp132
g63
(g84
g65
NtRp133
(dp134
g68
(dp135
g88
g89
ssg77
g129
sg70
(lp136
g46
asbag63
(g84
g65
NtRp137
(dp138
g68
(dp139
g95
g96
ssg77
g129
sg70
(lp140
S':'
asbag63
(g84
g65
NtRp141
(dp142
g68
(dp143
sg77
g129
sg70
(lp144
g63
(g64
g65
NtRp145
(dp146
g68
(dp147
g76
I5
ssg77
g141
sg70
(lp148
g63
(g72
g65
NtRp149
(dp150
g68
(dp151
g76
I4
ssg77
Nsg70
(lp152
g63
(g79
g65
NtRp153
(dp154
g68
(dp155
sg77
g149
sg70
(lp156
g63
(g84
g65
NtRp157
(dp158
g68
(dp159
sg77
g153
sg70
(lp160
g63
(g64
g65
NtRp161
(dp162
g68
(dp163
g76
I4
ssg77
g157
sg70
(lp164
S'se0566'
p165
asbasbasbasbasbasbasbag63
(g79
g65
NtRp166
(dp167
g68
(dp168
sg77
g73
sg70
(lp169
g63
(g84
g65
NtRp170
(dp171
g68
(dp172
g88
g89
ssg77
g166
sg70
(lp173
S'body'
p174
asbag63
(g84
g65
NtRp175
(dp176
g68
(dp177
g95
g96
ssg77
g166
sg70
(lp178
S':'
asbag63
(g84
g65
NtRp179
(dp180
g68
(dp181
sg77
g166
sg70
(lp182
g63
(g64
g65
NtRp183
(dp184
g68
(dp185
g76
I5
ssg77
g179
sg70
(lp186
S'<cStringIO.StringO object at 0x000000000885BE30>'
p187
asbasbasbag63
(g79
g65
NtRp188
(dp189
g68
(dp190
sg77
g73
sg70
(lp191
g63
(g84
g65
NtRp192
(dp193
g68
(dp194
g88
g89
ssg77
g188
sg70
(lp195
S'cid'
p196
asbag63
(g84
g65
NtRp197
(dp198
g68
(dp199
g95
g96
ssg77
g188
sg70
(lp200
S':'
asbag63
(g84
g65
NtRp201
(dp202
g68
(dp203
sg77
g188
sg70
(lp204
g63
(g64
g65
NtRp205
(dp206
g68
(dp207
g76
I5
ssg77
g201
sg70
(lp208
S'None'
p209
asbasbasbag63
(g79
g65
NtRp210
(dp211
g68
(dp212
sg77
g73
sg70
(lp213
g63
(g84
g65
NtRp214
(dp215
g68
(dp216
g88
g89
ssg77
g210
sg70
(lp217
S'client'
p218
asbag63
(g84
g65
NtRp219
(dp220
g68
(dp221
g95
g96
ssg77
g210
sg70
(lp222
S':'
asbag63
(g84
g65
NtRp223
(dp224
g68
(dp225
sg77
g210
sg70
(lp226
g63
(g64
g65
NtRp227
(dp228
g68
(dp229
g76
I5
ssg77
g223
sg70
(lp230
S'127.0.0.1'
p231
asbasbasbag63
(g79
g65
NtRp232
(dp233
g68
(dp234
sg77
g73
sg70
(lp235
g63
(g84
g65
NtRp236
(dp237
g68
(dp238
g88
g89
ssg77
g232
sg70
(lp239
S'controller'
p240
asbag63
(g84
g65
NtRp241
(dp242
g68
(dp243
g95
g96
ssg77
g232
sg70
(lp244
S':'
asbag63
(g84
g65
NtRp245
(dp246
g68
(dp247
sg77
g232
sg70
(lp248
g63
(g64
g65
NtRp249
(dp250
g68
(dp251
g76
I5
ssg77
g245
sg70
(lp252
S'webrtc'
p253
asbasbasbag63
(g79
g65
NtRp254
(dp255
g68
(dp256
sg77
g73
sg70
(lp257
g63
(g84
g65
NtRp258
(dp259
g68
(dp260
g88
g89
ssg77
g254
sg70
(lp261
S'cookies'
p262
asbag63
(g84
g65
NtRp263
(dp264
g68
(dp265
g95
g96
ssg77
g254
sg70
(lp266
S':'
asbag63
(g84
g65
NtRp267
(dp268
g68
(dp269
sg77
g254
sg70
(lp270
g63
(g64
g65
NtRp271
(dp272
g68
(dp273
g76
I5
ssg77
g267
sg70
(lp274
g63
(g72
g65
NtRp275
(dp276
g68
(dp277
g76
I4
ssg77
Nsg70
(lp278
g63
(g79
g65
NtRp279
(dp280
g68
(dp281
sg77
g275
sg70
(lp282
g63
(g84
g65
NtRp283
(dp284
g68
(dp285
g88
g89
ssg77
g279
sg70
(lp286
S'session_id_admin'
p287
asbag63
(g84
g65
NtRp288
(dp289
g68
(dp290
g95
g96
ssg77
g279
sg70
(lp291
S':'
asbag63
(g84
g65
NtRp292
(dp293
g68
(dp294
sg77
g279
sg70
(lp295
g63
(g64
g65
NtRp296
(dp297
g68
(dp298
g76
I4
ssg77
g292
sg70
(lp299
S'127.0.0.1-badaaec6-5d3f-4673-8f7a-dc4d2c8041d6'
p300
ag63
(g72
g65
NtRp301
(dp302
g68
(dp303
g76
I3
ssg77
Nsg70
(lp304
g63
(g79
g65
NtRp305
(dp306
g68
(dp307
sg77
g301
sg70
(lp308
g63
(g84
g65
NtRp309
(dp310
g68
(dp311
g88
g89
ssg77
g305
sg70
(lp312
S'comment'
p313
asbag63
(g84
g65
NtRp314
(dp315
g68
(dp316
g95
g96
ssg77
g305
sg70
(lp317
S':'
asbag63
(g84
g65
NtRp318
(dp319
g68
(dp320
sg77
g305
sg70
(lp321
g63
(g64
g65
NtRp322
(dp323
g68
(dp324
g76
I3
ssg77
g318
sg70
(lp325
S''
asbasbasbag63
(g79
g65
NtRp326
(dp327
g68
(dp328
sg77
g301
sg70
(lp329
g63
(g84
g65
NtRp330
(dp331
g68
(dp332
g88
g89
ssg77
g326
sg70
(lp333
S'domain'
p334
asbag63
(g84
g65
NtRp335
(dp336
g68
(dp337
g95
g96
ssg77
g326
sg70
(lp338
S':'
asbag63
(g84
g65
NtRp339
(dp340
g68
(dp341
sg77
g326
sg70
(lp342
g63
(g64
g65
NtRp343
(dp344
g68
(dp345
g76
I3
ssg77
g339
sg70
(lp346
S''
asbasbasbag63
(g79
g65
NtRp347
(dp348
g68
(dp349
sg77
g301
sg70
(lp350
g63
(g84
g65
NtRp351
(dp352
g68
(dp353
g88
g89
ssg77
g347
sg70
(lp354
S'expires'
p355
asbag63
(g84
g65
NtRp356
(dp357
g68
(dp358
g95
g96
ssg77
g347
sg70
(lp359
S':'
asbag63
(g84
g65
NtRp360
(dp361
g68
(dp362
sg77
g347
sg70
(lp363
g63
(g64
g65
NtRp364
(dp365
g68
(dp366
g76
I3
ssg77
g360
sg70
(lp367
S''
asbasbasbag63
(g79
g65
NtRp368
(dp369
g68
(dp370
sg77
g301
sg70
(lp371
g63
(g84
g65
NtRp372
(dp373
g68
(dp374
g88
g89
ssg77
g368
sg70
(lp375
S'httponly'
p376
asbag63
(g84
g65
NtRp377
(dp378
g68
(dp379
g95
g96
ssg77
g368
sg70
(lp380
S':'
asbag63
(g84
g65
NtRp381
(dp382
g68
(dp383
sg77
g368
sg70
(lp384
g63
(g64
g65
NtRp385
(dp386
g68
(dp387
g76
I3
ssg77
g381
sg70
(lp388
S''
asbasbasbag63
(g79
g65
NtRp389
(dp390
g68
(dp391
sg77
g301
sg70
(lp392
g63
(g84
g65
NtRp393
(dp394
g68
(dp395
g88
g89
ssg77
g389
sg70
(lp396
S'max-age'
p397
asbag63
(g84
g65
NtRp398
(dp399
g68
(dp400
g95
g96
ssg77
g389
sg70
(lp401
S':'
asbag63
(g84
g65
NtRp402
(dp403
g68
(dp404
sg77
g389
sg70
(lp405
g63
(g64
g65
NtRp406
(dp407
g68
(dp408
g76
I3
ssg77
g402
sg70
(lp409
S''
asbasbasbag63
(g79
g65
NtRp410
(dp411
g68
(dp412
sg77
g301
sg70
(lp413
g63
(g84
g65
NtRp414
(dp415
g68
(dp416
g88
g89
ssg77
g410
sg70
(lp417
S'path'
p418
asbag63
(g84
g65
NtRp419
(dp420
g68
(dp421
g95
g96
ssg77
g410
sg70
(lp422
S':'
asbag63
(g84
g65
NtRp423
(dp424
g68
(dp425
sg77
g410
sg70
(lp426
g63
(g64
g65
NtRp427
(dp428
g68
(dp429
g76
I3
ssg77
g423
sg70
(lp430
S''
asbasbasbag63
(g79
g65
NtRp431
(dp432
g68
(dp433
sg77
g301
sg70
(lp434
g63
(g84
g65
NtRp435
(dp436
g68
(dp437
g88
g89
ssg77
g431
sg70
(lp438
S'secure'
p439
asbag63
(g84
g65
NtRp440
(dp441
g68
(dp442
g95
g96
ssg77
g431
sg70
(lp443
S':'
asbag63
(g84
g65
NtRp444
(dp445
g68
(dp446
sg77
g431
sg70
(lp447
g63
(g64
g65
NtRp448
(dp449
g68
(dp450
g76
I3
ssg77
g444
sg70
(lp451
S''
asbasbasbag63
(g79
g65
NtRp452
(dp453
g68
(dp454
sg77
g301
sg70
(lp455
g63
(g84
g65
NtRp456
(dp457
g68
(dp458
g88
g89
ssg77
g452
sg70
(lp459
S'version'
p460
asbag63
(g84
g65
NtRp461
(dp462
g68
(dp463
g95
g96
ssg77
g452
sg70
(lp464
S':'
asbag63
(g84
g65
NtRp465
(dp466
g68
(dp467
sg77
g452
sg70
(lp468
g63
(g64
g65
NtRp469
(dp470
g68
(dp471
g76
I3
ssg77
g465
sg70
(lp472
S''
asbasbasbasbasbasbasbag63
(g79
g65
NtRp473
(dp474
g68
(dp475
sg77
g275
sg70
(lp476
g63
(g84
g65
NtRp477
(dp478
g68
(dp479
g88
g89
ssg77
g473
sg70
(lp480
S'session_id_welcome'
p481
asbag63
(g84
g65
NtRp482
(dp483
g68
(dp484
g95
g96
ssg77
g473
sg70
(lp485
S':'
asbag63
(g84
g65
NtRp486
(dp487
g68
(dp488
sg77
g473
sg70
(lp489
g63
(g64
g65
NtRp490
(dp491
g68
(dp492
g76
I4
ssg77
g486
sg70
(lp493
S'127.0.0.1-e6406ed3-36fc-4bf4-81da-8304a3548287'
p494
ag63
(g72
g65
NtRp495
(dp496
g68
(dp497
g76
I3
ssg77
Nsg70
(lp498
g63
(g79
g65
NtRp499
(dp500
g68
(dp501
sg77
g495
sg70
(lp502
g63
(g84
g65
NtRp503
(dp504
g68
(dp505
g88
g89
ssg77
g499
sg70
(lp506
g313
asbag63
(g84
g65
NtRp507
(dp508
g68
(dp509
g95
g96
ssg77
g499
sg70
(lp510
S':'
asbag63
(g84
g65
NtRp511
(dp512
g68
(dp513
sg77
g499
sg70
(lp514
g63
(g64
g65
NtRp515
(dp516
g68
(dp517
g76
I3
ssg77
g511
sg70
(lp518
S''
asbasbasbag63
(g79
g65
NtRp519
(dp520
g68
(dp521
sg77
g495
sg70
(lp522
g63
(g84
g65
NtRp523
(dp524
g68
(dp525
g88
g89
ssg77
g519
sg70
(lp526
g334
asbag63
(g84
g65
NtRp527
(dp528
g68
(dp529
g95
g96
ssg77
g519
sg70
(lp530
S':'
asbag63
(g84
g65
NtRp531
(dp532
g68
(dp533
sg77
g519
sg70
(lp534
g63
(g64
g65
NtRp535
(dp536
g68
(dp537
g76
I3
ssg77
g531
sg70
(lp538
S''
asbasbasbag63
(g79
g65
NtRp539
(dp540
g68
(dp541
sg77
g495
sg70
(lp542
g63
(g84
g65
NtRp543
(dp544
g68
(dp545
g88
g89
ssg77
g539
sg70
(lp546
g355
asbag63
(g84
g65
NtRp547
(dp548
g68
(dp549
g95
g96
ssg77
g539
sg70
(lp550
S':'
asbag63
(g84
g65
NtRp551
(dp552
g68
(dp553
sg77
g539
sg70
(lp554
g63
(g64
g65
NtRp555
(dp556
g68
(dp557
g76
I3
ssg77
g551
sg70
(lp558
S''
asbasbasbag63
(g79
g65
NtRp559
(dp560
g68
(dp561
sg77
g495
sg70
(lp562
g63
(g84
g65
NtRp563
(dp564
g68
(dp565
g88
g89
ssg77
g559
sg70
(lp566
g376
asbag63
(g84
g65
NtRp567
(dp568
g68
(dp569
g95
g96
ssg77
g559
sg70
(lp570
S':'
asbag63
(g84
g65
NtRp571
(dp572
g68
(dp573
sg77
g559
sg70
(lp574
g63
(g64
g65
NtRp575
(dp576
g68
(dp577
g76
I3
ssg77
g571
sg70
(lp578
S''
asbasbasbag63
(g79
g65
NtRp579
(dp580
g68
(dp581
sg77
g495
sg70
(lp582
g63
(g84
g65
NtRp583
(dp584
g68
(dp585
g88
g89
ssg77
g579
sg70
(lp586
g397
asbag63
(g84
g65
NtRp587
(dp588
g68
(dp589
g95
g96
ssg77
g579
sg70
(lp590
S':'
asbag63
(g84
g65
NtRp591
(dp592
g68
(dp593
sg77
g579
sg70
(lp594
g63
(g64
g65
NtRp595
(dp596
g68
(dp597
g76
I3
ssg77
g591
sg70
(lp598
S''
asbasbasbag63
(g79
g65
NtRp599
(dp600
g68
(dp601
sg77
g495
sg70
(lp602
g63
(g84
g65
NtRp603
(dp604
g68
(dp605
g88
g89
ssg77
g599
sg70
(lp606
g418
asbag63
(g84
g65
NtRp607
(dp608
g68
(dp609
g95
g96
ssg77
g599
sg70
(lp610
S':'
asbag63
(g84
g65
NtRp611
(dp612
g68
(dp613
sg77
g599
sg70
(lp614
g63
(g64
g65
NtRp615
(dp616
g68
(dp617
g76
I3
ssg77
g611
sg70
(lp618
S''
asbasbasbag63
(g79
g65
NtRp619
(dp620
g68
(dp621
sg77
g495
sg70
(lp622
g63
(g84
g65
NtRp623
(dp624
g68
(dp625
g88
g89
ssg77
g619
sg70
(lp626
g439
asbag63
(g84
g65
NtRp627
(dp628
g68
(dp629
g95
g96
ssg77
g619
sg70
(lp630
S':'
asbag63
(g84
g65
NtRp631
(dp632
g68
(dp633
sg77
g619
sg70
(lp634
g63
(g64
g65
NtRp635
(dp636
g68
(dp637
g76
I3
ssg77
g631
sg70
(lp638
S''
asbasbasbag63
(g79
g65
NtRp639
(dp640
g68
(dp641
sg77
g495
sg70
(lp642
g63
(g84
g65
NtRp643
(dp644
g68
(dp645
g88
g89
ssg77
g639
sg70
(lp646
g460
asbag63
(g84
g65
NtRp647
(dp648
g68
(dp649
g95
g96
ssg77
g639
sg70
(lp650
S':'
asbag63
(g84
g65
NtRp651
(dp652
g68
(dp653
sg77
g639
sg70
(lp654
g63
(g64
g65
NtRp655
(dp656
g68
(dp657
g76
I3
ssg77
g651
sg70
(lp658
S''
asbasbasbasbasbasbasbasbasbasbasbag63
(g79
g65
NtRp659
(dp660
g68
(dp661
sg77
g73
sg70
(lp662
g63
(g84
g65
NtRp663
(dp664
g68
(dp665
g88
g89
ssg77
g659
sg70
(lp666
S'env'
p667
asbag63
(g84
g65
NtRp668
(dp669
g68
(dp670
g95
g96
ssg77
g659
sg70
(lp671
S':'
asbag63
(g84
g65
NtRp672
(dp673
g68
(dp674
sg77
g659
sg70
(lp675
g63
(g64
g65
NtRp676
(dp677
g68
(dp678
g76
I5
ssg77
g672
sg70
(lp679
g63
(g72
g65
NtRp680
(dp681
g68
(dp682
g76
I4
ssg77
Nsg70
(lp683
g63
(g79
g65
NtRp684
(dp685
g68
(dp686
sg77
g680
sg70
(lp687
g63
(g84
g65
NtRp688
(dp689
g68
(dp690
g88
g89
ssg77
g684
sg70
(lp691
S'app_folders'
p692
asbag63
(g84
g65
NtRp693
(dp694
g68
(dp695
g95
g96
ssg77
g684
sg70
(lp696
S':'
asbag63
(g84
g65
NtRp697
(dp698
g68
(dp699
sg77
g684
sg70
(lp700
g63
(g64
g65
NtRp701
(dp702
g68
(dp703
g76
I4
ssg77
g697
sg70
(lp704
S"set(['D:\\\\Work\\\\webRTC\\\\web2py\\\\applications\\\\welcome\\\\', 'D:\\\\Work\\\\webRTC\\\\web2py\\\\applications\\\\admin\\\\'])"
p705
asbasbasbag63
(g79
g65
NtRp706
(dp707
g68
(dp708
sg77
g680
sg70
(lp709
g63
(g84
g65
NtRp710
(dp711
g68
(dp712
g88
g89
ssg77
g706
sg70
(lp713
S'applications_parent'
p714
asbag63
(g84
g65
NtRp715
(dp716
g68
(dp717
g95
g96
ssg77
g706
sg70
(lp718
S':'
asbag63
(g84
g65
NtRp719
(dp720
g68
(dp721
sg77
g706
sg70
(lp722
g63
(g64
g65
NtRp723
(dp724
g68
(dp725
g76
I4
ssg77
g719
sg70
(lp726
S'D:\\Work\\webRTC\\web2py'
p727
asbasbasbag63
(g79
g65
NtRp728
(dp729
g68
(dp730
sg77
g680
sg70
(lp731
g63
(g84
g65
NtRp732
(dp733
g68
(dp734
g88
g89
ssg77
g728
sg70
(lp735
S'cmd_args'
p736
asbag63
(g84
g65
NtRp737
(dp738
g68
(dp739
g95
g96
ssg77
g728
sg70
(lp740
S':'
asbag63
(g84
g65
NtRp741
(dp742
g68
(dp743
sg77
g728
sg70
(lp744
g63
(g64
g65
NtRp745
(dp746
g68
(dp747
g76
I4
ssg77
g741
sg70
(lp748
g63
(g72
g65
NtRp749
(dp750
g68
(dp751
g76
I3
ssg77
Nsg70
(lp752
sbasbasbasbag63
(g79
g65
NtRp753
(dp754
g68
(dp755
sg77
g680
sg70
(lp756
g63
(g84
g65
NtRp757
(dp758
g68
(dp759
g88
g89
ssg77
g753
sg70
(lp760
S'cmd_options'
p761
asbag63
(g84
g65
NtRp762
(dp763
g68
(dp764
g95
g96
ssg77
g753
sg70
(lp765
S':'
asbag63
(g84
g65
NtRp766
(dp767
g68
(dp768
sg77
g753
sg70
(lp769
g63
(g64
g65
NtRp770
(dp771
g68
(dp772
g76
I4
ssg77
g766
sg70
(lp773
S"<Values at 0x3719cc8: {'verbose': False, 'ip': '127.0.0.1', 'with_scheduler': False, 'ips': ['2001:0:9d38:6ab8:2058:2e34:3f57:ff8f', '192.168.0.112', 'fe80::2058:2e34:3f57:ff8f%14', 'fe80::91ec:31f9:5083:69f3%15'], 'shutdown_timeout': 5, 'taskbar': False, 'port': 8000, 'maxthreads': None, 'softcron': False, 'server_name': 'SonTHN-Hoiio', 'bpython': False, 'nogui': False, 'pid_filename': 'httpserver.pid', 'extcron': False, 'runcron': False, 'run_system_tests': False, 'test': None, 'folder': 'D:\\\\Work\\\\webRTC\\\\web2py', 'config': '', 'import_models': False, 'winservice': '', 'shell': None, 'run': '', 'log_filename': 'httpserver.log', 'debuglevel': 30, 'args': [''], 'socket_timeout': 5, 'ssl_ca_certificate': None, 'scheduler': None, 'profiler_filename': None, 'ssl_private_key': '', 'scheduler_groups': None, 'password': '<ask>', 'request_queue_size': 5, 'ssl_certificate': '', 'cronjob': False, 'numthreads': None, 'quiet': False, 'interfaces': None, 'minthreads': None, 'timeout': 10, 'plain': False, 'nobanner': False}>"
p774
asbasbasbag63
(g79
g65
NtRp775
(dp776
g68
(dp777
sg77
g680
sg70
(lp778
g63
(g84
g65
NtRp779
(dp780
g68
(dp781
g88
g89
ssg77
g775
sg70
(lp782
S'db_sessions'
p783
asbag63
(g84
g65
NtRp784
(dp785
g68
(dp786
g95
g96
ssg77
g775
sg70
(lp787
S':'
asbag63
(g84
g65
NtRp788
(dp789
g68
(dp790
sg77
g775
sg70
(lp791
g63
(g64
g65
NtRp792
(dp793
g68
(dp794
g76
I4
ssg77
g788
sg70
(lp795
S'set([])'
p796
asbasbasbag63
(g79
g65
NtRp797
(dp798
g68
(dp799
sg77
g680
sg70
(lp800
g63
(g84
g65
NtRp801
(dp802
g68
(dp803
g88
g89
ssg77
g797
sg70
(lp804
S'debugging'
p805
asbag63
(g84
g65
NtRp806
(dp807
g68
(dp808
g95
g96
ssg77
g797
sg70
(lp809
S':'
asbag63
(g84
g65
NtRp810
(dp811
g68
(dp812
sg77
g797
sg70
(lp813
g63
(g64
g65
NtRp814
(dp815
g68
(dp816
g76
I4
ssg77
g810
sg70
(lp817
S'False'
p818
asbasbasbag63
(g79
g65
NtRp819
(dp820
g68
(dp821
sg77
g680
sg70
(lp822
g63
(g84
g65
NtRp823
(dp824
g68
(dp825
g88
g89
ssg77
g819
sg70
(lp826
S'gluon_parent'
p827
asbag63
(g84
g65
NtRp828
(dp829
g68
(dp830
g95
g96
ssg77
g819
sg70
(lp831
S':'
asbag63
(g84
g65
NtRp832
(dp833
g68
(dp834
sg77
g819
sg70
(lp835
g63
(g64
g65
NtRp836
(dp837
g68
(dp838
g76
I4
ssg77
g832
sg70
(lp839
S'D:\\Work\\webRTC\\web2py'
p840
asbasbasbag63
(g79
g65
NtRp841
(dp842
g68
(dp843
sg77
g680
sg70
(lp844
g63
(g84
g65
NtRp845
(dp846
g68
(dp847
g88
g89
ssg77
g841
sg70
(lp848
S'http_accept'
p849
asbag63
(g84
g65
NtRp850
(dp851
g68
(dp852
g95
g96
ssg77
g841
sg70
(lp853
S':'
asbag63
(g84
g65
NtRp854
(dp855
g68
(dp856
sg77
g841
sg70
(lp857
g63
(g64
g65
NtRp858
(dp859
g68
(dp860
g76
I4
ssg77
g854
sg70
(lp861
S'*/*'
p862
asbasbasbag63
(g79
g65
NtRp863
(dp864
g68
(dp865
sg77
g680
sg70
(lp866
g63
(g84
g65
NtRp867
(dp868
g68
(dp869
g88
g89
ssg77
g863
sg70
(lp870
S'http_accept_charset'
p871
asbag63
(g84
g65
NtRp872
(dp873
g68
(dp874
g95
g96
ssg77
g863
sg70
(lp875
S':'
asbag63
(g84
g65
NtRp876
(dp877
g68
(dp878
sg77
g863
sg70
(lp879
g63
(g64
g65
NtRp880
(dp881
g68
(dp882
g76
I4
ssg77
g876
sg70
(lp883
S'windows-1258,utf-8;q=0.7,*;q=0.3'
p884
asbasbasbag63
(g79
g65
NtRp885
(dp886
g68
(dp887
sg77
g680
sg70
(lp888
g63
(g84
g65
NtRp889
(dp890
g68
(dp891
g88
g89
ssg77
g885
sg70
(lp892
S'http_accept_encoding'
p893
asbag63
(g84
g65
NtRp894
(dp895
g68
(dp896
g95
g96
ssg77
g885
sg70
(lp897
S':'
asbag63
(g84
g65
NtRp898
(dp899
g68
(dp900
sg77
g885
sg70
(lp901
g63
(g64
g65
NtRp902
(dp903
g68
(dp904
g76
I4
ssg77
g898
sg70
(lp905
S'gzip,deflate,sdch'
p906
asbasbasbag63
(g79
g65
NtRp907
(dp908
g68
(dp909
sg77
g680
sg70
(lp910
g63
(g84
g65
NtRp911
(dp912
g68
(dp913
g88
g89
ssg77
g907
sg70
(lp914
S'http_accept_language'
p915
asbag63
(g84
g65
NtRp916
(dp917
g68
(dp918
g95
g96
ssg77
g907
sg70
(lp919
S':'
asbag63
(g84
g65
NtRp920
(dp921
g68
(dp922
sg77
g907
sg70
(lp923
g63
(g64
g65
NtRp924
(dp925
g68
(dp926
g76
I4
ssg77
g920
sg70
(lp927
S'en,vi;q=0.8,en-US;q=0.6'
p928
asbasbasbag63
(g79
g65
NtRp929
(dp930
g68
(dp931
sg77
g680
sg70
(lp932
g63
(g84
g65
NtRp933
(dp934
g68
(dp935
g88
g89
ssg77
g929
sg70
(lp936
S'http_connection'
p937
asbag63
(g84
g65
NtRp938
(dp939
g68
(dp940
g95
g96
ssg77
g929
sg70
(lp941
S':'
asbag63
(g84
g65
NtRp942
(dp943
g68
(dp944
sg77
g929
sg70
(lp945
g63
(g64
g65
NtRp946
(dp947
g68
(dp948
g76
I4
ssg77
g942
sg70
(lp949
S'keep-alive'
p950
asbasbasbag63
(g79
g65
NtRp951
(dp952
g68
(dp953
sg77
g680
sg70
(lp954
g63
(g84
g65
NtRp955
(dp956
g68
(dp957
g88
g89
ssg77
g951
sg70
(lp958
S'http_cookie'
p959
asbag63
(g84
g65
NtRp960
(dp961
g68
(dp962
g95
g96
ssg77
g951
sg70
(lp963
S':'
asbag63
(g84
g65
NtRp964
(dp965
g68
(dp966
sg77
g951
sg70
(lp967
g63
(g64
g65
NtRp968
(dp969
g68
(dp970
g76
I4
ssg77
g964
sg70
(lp971
S'session_id_admin=127.0.0.1-badaaec6-5d3f-4673-8f7a-dc4d2c8041d6; session_id_welcome=127.0.0.1-e6406ed3-36fc-4bf4-81da-8304a3548287'
p972
asbasbasbag63
(g79
g65
NtRp973
(dp974
g68
(dp975
sg77
g680
sg70
(lp976
g63
(g84
g65
NtRp977
(dp978
g68
(dp979
g88
g89
ssg77
g973
sg70
(lp980
S'http_host'
p981
asbag63
(g84
g65
NtRp982
(dp983
g68
(dp984
g95
g96
ssg77
g973
sg70
(lp985
S':'
asbag63
(g84
g65
NtRp986
(dp987
g68
(dp988
sg77
g973
sg70
(lp989
g63
(g64
g65
NtRp990
(dp991
g68
(dp992
g76
I4
ssg77
g986
sg70
(lp993
S'127.0.0.1:8000'
p994
asbasbasbag63
(g79
g65
NtRp995
(dp996
g68
(dp997
sg77
g680
sg70
(lp998
g63
(g84
g65
NtRp999
(dp1000
g68
(dp1001
g88
g89
ssg77
g995
sg70
(lp1002
S'http_referer'
p1003
asbag63
(g84
g65
NtRp1004
(dp1005
g68
(dp1006
g95
g96
ssg77
g995
sg70
(lp1007
S':'
asbag63
(g84
g65
NtRp1008
(dp1009
g68
(dp1010
sg77
g995
sg70
(lp1011
g63
(g64
g65
NtRp1012
(dp1013
g68
(dp1014
g76
I4
ssg77
g1008
sg70
(lp1015
S'http://127.0.0.1:8000/welcome/webrtc/student/se0566'
p1016
asbasbasbag63
(g79
g65
NtRp1017
(dp1018
g68
(dp1019
sg77
g680
sg70
(lp1020
g63
(g84
g65
NtRp1021
(dp1022
g68
(dp1023
g88
g89
ssg77
g1017
sg70
(lp1024
S'http_user_agent'
p1025
asbag63
(g84
g65
NtRp1026
(dp1027
g68
(dp1028
g95
g96
ssg77
g1017
sg70
(lp1029
S':'
asbag63
(g84
g65
NtRp1030
(dp1031
g68
(dp1032
sg77
g1017
sg70
(lp1033
g63
(g64
g65
NtRp1034
(dp1035
g68
(dp1036
g76
I4
ssg77
g1030
sg70
(lp1037
S'Mozilla/5.0 (Windows NT 6.1; WOW64) AppleWebKit/537.27 (KHTML, like Gecko) Chrome/26.0.1386.0 Safari/537.27'
p1038
asbasbasbag63
(g79
g65
NtRp1039
(dp1040
g68
(dp1041
sg77
g680
sg70
(lp1042
g63
(g84
g65
NtRp1043
(dp1044
g68
(dp1045
g88
g89
ssg77
g1039
sg70
(lp1046
S'http_x_requested_with'
p1047
asbag63
(g84
g65
NtRp1048
(dp1049
g68
(dp1050
g95
g96
ssg77
g1039
sg70
(lp1051
S':'
asbag63
(g84
g65
NtRp1052
(dp1053
g68
(dp1054
sg77
g1039
sg70
(lp1055
g63
(g64
g65
NtRp1056
(dp1057
g68
(dp1058
g76
I4
ssg77
g1052
sg70
(lp1059
S'XMLHttpRequest'
p1060
asbasbasbag63
(g79
g65
NtRp1061
(dp1062
g68
(dp1063
sg77
g680
sg70
(lp1064
g63
(g84
g65
NtRp1065
(dp1066
g68
(dp1067
g88
g89
ssg77
g1061
sg70
(lp1068
S'is_jython'
p1069
asbag63
(g84
g65
NtRp1070
(dp1071
g68
(dp1072
g95
g96
ssg77
g1061
sg70
(lp1073
S':'
asbag63
(g84
g65
NtRp1074
(dp1075
g68
(dp1076
sg77
g1061
sg70
(lp1077
g63
(g64
g65
NtRp1078
(dp1079
g68
(dp1080
g76
I4
ssg77
g1074
sg70
(lp1081
g818
asbasbasbag63
(g79
g65
NtRp1082
(dp1083
g68
(dp1084
sg77
g680
sg70
(lp1085
g63
(g84
g65
NtRp1086
(dp1087
g68
(dp1088
g88
g89
ssg77
g1082
sg70
(lp1089
S'is_pypy'
p1090
asbag63
(g84
g65
NtRp1091
(dp1092
g68
(dp1093
g95
g96
ssg77
g1082
sg70
(lp1094
S':'
asbag63
(g84
g65
NtRp1095
(dp1096
g68
(dp1097
sg77
g1082
sg70
(lp1098
g63
(g64
g65
NtRp1099
(dp1100
g68
(dp1101
g76
I4
ssg77
g1095
sg70
(lp1102
g818
asbasbasbag63
(g79
g65
NtRp1103
(dp1104
g68
(dp1105
sg77
g680
sg70
(lp1106
g63
(g84
g65
NtRp1107
(dp1108
g68
(dp1109
g88
g89
ssg77
g1103
sg70
(lp1110
S'local_hosts'
p1111
asbag63
(g84
g65
NtRp1112
(dp1113
g68
(dp1114
g95
g96
ssg77
g1103
sg70
(lp1115
S':'
asbag63
(g84
g65
NtRp1116
(dp1117
g68
(dp1118
sg77
g1103
sg70
(lp1119
g63
(g64
g65
NtRp1120
(dp1121
g68
(dp1122
g76
I4
ssg77
g1116
sg70
(lp1123
g63
(g72
g65
NtRp1124
(dp1125
g68
(dp1126
g76
I3
ssg77
Nsg70
(lp1127
g63
(g79
g65
NtRp1128
(dp1129
g68
(dp1130
sg77
g1124
sg70
(lp1131
g63
(g84
g65
NtRp1132
(dp1133
g68
(dp1134
sg77
g1128
sg70
(lp1135
g63
(g64
g65
NtRp1136
(dp1137
g68
(dp1138
g76
I3
ssg77
g1132
sg70
(lp1139
S'2001:0:9d38:6ab8:2058:2e34:3f57:ff8f'
p1140
asbasbasbag63
(g79
g65
NtRp1141
(dp1142
g68
(dp1143
sg77
g1124
sg70
(lp1144
g63
(g84
g65
NtRp1145
(dp1146
g68
(dp1147
sg77
g1141
sg70
(lp1148
g63
(g64
g65
NtRp1149
(dp1150
g68
(dp1151
g76
I3
ssg77
g1145
sg70
(lp1152
S'SonTHN-Hoiio'
p1153
asbasbasbag63
(g79
g65
NtRp1154
(dp1155
g68
(dp1156
sg77
g1124
sg70
(lp1157
g63
(g84
g65
NtRp1158
(dp1159
g68
(dp1160
sg77
g1154
sg70
(lp1161
g63
(g64
g65
NtRp1162
(dp1163
g68
(dp1164
g76
I3
ssg77
g1158
sg70
(lp1165
S'fe80::91ec:31f9:5083:69f3%15'
p1166
asbasbasbag63
(g79
g65
NtRp1167
(dp1168
g68
(dp1169
sg77
g1124
sg70
(lp1170
g63
(g84
g65
NtRp1171
(dp1172
g68
(dp1173
sg77
g1167
sg70
(lp1174
g63
(g64
g65
NtRp1175
(dp1176
g68
(dp1177
g76
I3
ssg77
g1171
sg70
(lp1178
S'::ffff:127.0.0.1'
p1179
asbasbasbag63
(g79
g65
NtRp1180
(dp1181
g68
(dp1182
sg77
g1124
sg70
(lp1183
g63
(g84
g65
NtRp1184
(dp1185
g68
(dp1186
sg77
g1180
sg70
(lp1187
g63
(g64
g65
NtRp1188
(dp1189
g68
(dp1190
g76
I3
ssg77
g1184
sg70
(lp1191
S'::1'
p1192
asbasbasbag63
(g79
g65
NtRp1193
(dp1194
g68
(dp1195
sg77
g1124
sg70
(lp1196
g63
(g84
g65
NtRp1197
(dp1198
g68
(dp1199
sg77
g1193
sg70
(lp1200
g63
(g64
g65
NtRp1201
(dp1202
g68
(dp1203
g76
I3
ssg77
g1197
sg70
(lp1204
S'192.168.0.112'
p1205
asbasbasbag63
(g79
g65
NtRp1206
(dp1207
g68
(dp1208
sg77
g1124
sg70
(lp1209
g63
(g84
g65
NtRp1210
(dp1211
g68
(dp1212
sg77
g1206
sg70
(lp1213
g63
(g64
g65
NtRp1214
(dp1215
g68
(dp1216
g76
I3
ssg77
g1210
sg70
(lp1217
S'fe80::2058:2e34:3f57:ff8f%14'
p1218
asbasbasbag63
(g79
g65
NtRp1219
(dp1220
g68
(dp1221
sg77
g1124
sg70
(lp1222
g63
(g84
g65
NtRp1223
(dp1224
g68
(dp1225
sg77
g1219
sg70
(lp1226
g63
(g64
g65
NtRp1227
(dp1228
g68
(dp1229
g76
I3
ssg77
g1223
sg70
(lp1230
S'127.0.0.1'
p1231
asbasbasbasbasbasbasbag63
(g79
g65
NtRp1232
(dp1233
g68
(dp1234
sg77
g680
sg70
(lp1235
g63
(g84
g65
NtRp1236
(dp1237
g68
(dp1238
g88
g89
ssg77
g1232
sg70
(lp1239
S'path_info'
p1240
asbag63
(g84
g65
NtRp1241
(dp1242
g68
(dp1243
g95
g96
ssg77
g1232
sg70
(lp1244
S':'
asbag63
(g84
g65
NtRp1245
(dp1246
g68
(dp1247
sg77
g1232
sg70
(lp1248
g63
(g64
g65
NtRp1249
(dp1250
g68
(dp1251
g76
I4
ssg77
g1245
sg70
(lp1252
S'/welcome/webrtc/connect/se0566'
p1253
asbasbasbag63
(g79
g65
NtRp1254
(dp1255
g68
(dp1256
sg77
g680
sg70
(lp1257
g63
(g84
g65
NtRp1258
(dp1259
g68
(dp1260
g88
g89
ssg77
g1254
sg70
(lp1261
S'query_string'
p1262
asbag63
(g84
g65
NtRp1263
(dp1264
g68
(dp1265
g95
g96
ssg77
g1254
sg70
(lp1266
S':'
asbag63
(g84
g65
NtRp1267
(dp1268
g68
(dp1269
sg77
g1254
sg70
(lp1270
g63
(g64
g65
NtRp1271
(dp1272
g68
(dp1273
g76
I4
ssg77
g1267
sg70
(lp1274
S'msg=%7B%22dest_key%22%3A%22a%22%2C%22access_token%22%3A%22NTYyZjk3%22%2C%22type%22%3A%22candidate%22%2C%22label%22%3A0%2C%22id%22%3A%22audio%22%2C%22candidate%22%3A%22a%3Dcandidate%3A2800047373+1+tcp+1509957375+192.168.0.112+53611+typ+host+generation+0%5Cr%5Cn%22%7D'
p1275
asbasbasbag63
(g79
g65
NtRp1276
(dp1277
g68
(dp1278
sg77
g680
sg70
(lp1279
g63
(g84
g65
NtRp1280
(dp1281
g68
(dp1282
g88
g89
ssg77
g1276
sg70
(lp1283
S'remote_addr'
p1284
asbag63
(g84
g65
NtRp1285
(dp1286
g68
(dp1287
g95
g96
ssg77
g1276
sg70
(lp1288
S':'
asbag63
(g84
g65
NtRp1289
(dp1290
g68
(dp1291
sg77
g1276
sg70
(lp1292
g63
(g64
g65
NtRp1293
(dp1294
g68
(dp1295
g76
I4
ssg77
g1289
sg70
(lp1296
g231
asbasbasbag63
(g79
g65
NtRp1297
(dp1298
g68
(dp1299
sg77
g680
sg70
(lp1300
g63
(g84
g65
NtRp1301
(dp1302
g68
(dp1303
g88
g89
ssg77
g1297
sg70
(lp1304
S'remote_port'
p1305
asbag63
(g84
g65
NtRp1306
(dp1307
g68
(dp1308
g95
g96
ssg77
g1297
sg70
(lp1309
S':'
asbag63
(g84
g65
NtRp1310
(dp1311
g68
(dp1312
sg77
g1297
sg70
(lp1313
g63
(g64
g65
NtRp1314
(dp1315
g68
(dp1316
g76
I4
ssg77
g1310
sg70
(lp1317
S'53622'
p1318
asbasbasbag63
(g79
g65
NtRp1319
(dp1320
g68
(dp1321
sg77
g680
sg70
(lp1322
g63
(g84
g65
NtRp1323
(dp1324
g68
(dp1325
g88
g89
ssg77
g1319
sg70
(lp1326
S'request_method'
p1327
asbag63
(g84
g65
NtRp1328
(dp1329
g68
(dp1330
g95
g96
ssg77
g1319
sg70
(lp1331
S':'
asbag63
(g84
g65
NtRp1332
(dp1333
g68
(dp1334
sg77
g1319
sg70
(lp1335
g63
(g64
g65
NtRp1336
(dp1337
g68
(dp1338
g76
I4
ssg77
g1332
sg70
(lp1339
S'GET'
p1340
asbasbasbag63
(g79
g65
NtRp1341
(dp1342
g68
(dp1343
sg77
g680
sg70
(lp1344
g63
(g84
g65
NtRp1345
(dp1346
g68
(dp1347
g88
g89
ssg77
g1341
sg70
(lp1348
S'request_uri'
p1349
asbag63
(g84
g65
NtRp1350
(dp1351
g68
(dp1352
g95
g96
ssg77
g1341
sg70
(lp1353
S':'
asbag63
(g84
g65
NtRp1354
(dp1355
g68
(dp1356
sg77
g1341
sg70
(lp1357
g63
(g64
g65
NtRp1358
(dp1359
g68
(dp1360
g76
I4
ssg77
g1354
sg70
(lp1361
S'/welcome/webrtc/connect/se0566?msg=%7B%22dest_key%22%3A%22a%22%2C%22access_token%22%3A%22NTYyZjk3%22%2C%22type%22%3A%22candidate%22%2C%22label%22%3A0%2C%22id%22%3A%22audio%22%2C%22candidate%22%3A%22a%3Dcandidate%3A2800047373+1+tcp+1509957375+192.168.0.112+53611+typ+host+generation+0%5Cr%5Cn%22%7D'
p1362
asbasbasbag63
(g79
g65
NtRp1363
(dp1364
g68
(dp1365
sg77
g680
sg70
(lp1366
g63
(g84
g65
NtRp1367
(dp1368
g68
(dp1369
g88
g89
ssg77
g1363
sg70
(lp1370
S'script_name'
p1371
asbag63
(g84
g65
NtRp1372
(dp1373
g68
(dp1374
g95
g96
ssg77
g1363
sg70
(lp1375
S':'
asbag63
(g84
g65
NtRp1376
(dp1377
g68
(dp1378
sg77
g1363
sg70
(lp1379
g63
(g64
g65
NtRp1380
(dp1381
g68
(dp1382
g76
I4
ssg77
g1376
sg70
(lp1383
S''
asbasbasbag63
(g79
g65
NtRp1384
(dp1385
g68
(dp1386
sg77
g680
sg70
(lp1387
g63
(g84
g65
NtRp1388
(dp1389
g68
(dp1390
g88
g89
ssg77
g1384
sg70
(lp1391
S'server_name'
p1392
asbag63
(g84
g65
NtRp1393
(dp1394
g68
(dp1395
g95
g96
ssg77
g1384
sg70
(lp1396
S':'
asbag63
(g84
g65
NtRp1397
(dp1398
g68
(dp1399
sg77
g1384
sg70
(lp1400
g63
(g64
g65
NtRp1401
(dp1402
g68
(dp1403
g76
I4
ssg77
g1397
sg70
(lp1404
S'SonTHN-Hoiio'
p1405
asbasbasbag63
(g79
g65
NtRp1406
(dp1407
g68
(dp1408
sg77
g680
sg70
(lp1409
g63
(g84
g65
NtRp1410
(dp1411
g68
(dp1412
g88
g89
ssg77
g1406
sg70
(lp1413
S'server_port'
p1414
asbag63
(g84
g65
NtRp1415
(dp1416
g68
(dp1417
g95
g96
ssg77
g1406
sg70
(lp1418
S':'
asbag63
(g84
g65
NtRp1419
(dp1420
g68
(dp1421
sg77
g1406
sg70
(lp1422
g63
(g64
g65
NtRp1423
(dp1424
g68
(dp1425
g76
I4
ssg77
g1419
sg70
(lp1426
S'8000'
p1427
asbasbasbag63
(g79
g65
NtRp1428
(dp1429
g68
(dp1430
sg77
g680
sg70
(lp1431
g63
(g84
g65
NtRp1432
(dp1433
g68
(dp1434
g88
g89
ssg77
g1428
sg70
(lp1435
S'server_protocol'
p1436
asbag63
(g84
g65
NtRp1437
(dp1438
g68
(dp1439
g95
g96
ssg77
g1428
sg70
(lp1440
S':'
asbag63
(g84
g65
NtRp1441
(dp1442
g68
(dp1443
sg77
g1428
sg70
(lp1444
g63
(g64
g65
NtRp1445
(dp1446
g68
(dp1447
g76
I4
ssg77
g1441
sg70
(lp1448
S'HTTP/1.1'
p1449
asbasbasbag63
(g79
g65
NtRp1450
(dp1451
g68
(dp1452
sg77
g680
sg70
(lp1453
g63
(g84
g65
NtRp1454
(dp1455
g68
(dp1456
g88
g89
ssg77
g1450
sg70
(lp1457
S'server_software'
p1458
asbag63
(g84
g65
NtRp1459
(dp1460
g68
(dp1461
g95
g96
ssg77
g1450
sg70
(lp1462
S':'
asbag63
(g84
g65
NtRp1463
(dp1464
g68
(dp1465
sg77
g1450
sg70
(lp1466
g63
(g64
g65
NtRp1467
(dp1468
g68
(dp1469
g76
I4
ssg77
g1463
sg70
(lp1470
S'Rocket 1.2.6'
p1471
asbasbasbag63
(g79
g65
NtRp1472
(dp1473
g68
(dp1474
sg77
g680
sg70
(lp1475
g63
(g84
g65
NtRp1476
(dp1477
g68
(dp1478
g88
g89
ssg77
g1472
sg70
(lp1479
S'web2py_path'
p1480
asbag63
(g84
g65
NtRp1481
(dp1482
g68
(dp1483
g95
g96
ssg77
g1472
sg70
(lp1484
S':'
asbag63
(g84
g65
NtRp1485
(dp1486
g68
(dp1487
sg77
g1472
sg70
(lp1488
g63
(g64
g65
NtRp1489
(dp1490
g68
(dp1491
g76
I4
ssg77
g1485
sg70
(lp1492
g727
asbasbasbag63
(g79
g65
NtRp1493
(dp1494
g68
(dp1495
sg77
g680
sg70
(lp1496
g63
(g84
g65
NtRp1497
(dp1498
g68
(dp1499
g88
g89
ssg77
g1493
sg70
(lp1500
S'web2py_version'
p1501
asbag63
(g84
g65
NtRp1502
(dp1503
g68
(dp1504
g95
g96
ssg77
g1493
sg70
(lp1505
S':'
asbag63
(g84
g65
NtRp1506
(dp1507
g68
(dp1508
sg77
g1493
sg70
(lp1509
g63
(g64
g65
NtRp1510
(dp1511
g68
(dp1512
g76
I4
ssg77
g1506
sg70
(lp1513
g63
(g72
g65
NtRp1514
(dp1515
g68
(dp1516
g76
I3
ssg77
Nsg70
(lp1517
g63
(g79
g65
NtRp1518
(dp1519
g68
(dp1520
sg77
g1514
sg70
(lp1521
g63
(g84
g65
NtRp1522
(dp1523
g68
(dp1524
sg77
g1518
sg70
(lp1525
g63
(g64
g65
NtRp1526
(dp1527
g68
(dp1528
g76
I3
ssg77
g1522
sg70
(lp1529
S'2'
asbasbasbag63
(g79
g65
NtRp1530
(dp1531
g68
(dp1532
sg77
g1514
sg70
(lp1533
g63
(g84
g65
NtRp1534
(dp1535
g68
(dp1536
sg77
g1530
sg70
(lp1537
g63
(g64
g65
NtRp1538
(dp1539
g68
(dp1540
g76
I3
ssg77
g1534
sg70
(lp1541
S'4'
asbasbasbag63
(g79
g65
NtRp1542
(dp1543
g68
(dp1544
sg77
g1514
sg70
(lp1545
g63
(g84
g65
NtRp1546
(dp1547
g68
(dp1548
sg77
g1542
sg70
(lp1549
g63
(g64
g65
NtRp1550
(dp1551
g68
(dp1552
g76
I3
ssg77
g1546
sg70
(lp1553
S'1'
asbasbasbag63
(g79
g65
NtRp1554
(dp1555
g68
(dp1556
sg77
g1514
sg70
(lp1557
g63
(g84
g65
NtRp1558
(dp1559
g68
(dp1560
sg77
g1554
sg70
(lp1561
g63
(g64
g65
NtRp1562
(dp1563
g68
(dp1564
g76
I3
ssg77
g1558
sg70
(lp1565
S'alpha.1'
p1566
asbasbasbag63
(g79
g65
NtRp1567
(dp1568
g68
(dp1569
sg77
g1514
sg70
(lp1570
g63
(g84
g65
NtRp1571
(dp1572
g68
(dp1573
sg77
g1567
sg70
(lp1574
g63
(g64
g65
NtRp1575
(dp1576
g68
(dp1577
g76
I3
ssg77
g1571
sg70
(lp1578
S'datetime.datetime(2012, 12, 20, 18, 16, 2)'
p1579
asbasbasbasbasbasbasbag63
(g79
g65
NtRp1580
(dp1581
g68
(dp1582
sg77
g680
sg70
(lp1583
g63
(g84
g65
NtRp1584
(dp1585
g68
(dp1586
g88
g89
ssg77
g1580
sg70
(lp1587
S'wsgi_errors'
p1588
asbag63
(g84
g65
NtRp1589
(dp1590
g68
(dp1591
g95
g96
ssg77
g1580
sg70
(lp1592
S':'
asbag63
(g84
g65
NtRp1593
(dp1594
g68
(dp1595
sg77
g1580
sg70
(lp1596
g63
(g64
g65
NtRp1597
(dp1598
g68
(dp1599
g76
I4
ssg77
g1593
sg70
(lp1600
S"<open file '<stderr>', mode 'w' at 0x0000000001C761E0>"
p1601
asbasbasbag63
(g79
g65
NtRp1602
(dp1603
g68
(dp1604
sg77
g680
sg70
(lp1605
g63
(g84
g65
NtRp1606
(dp1607
g68
(dp1608
g88
g89
ssg77
g1602
sg70
(lp1609
S'wsgi_file_wrapper'
p1610
asbag63
(g84
g65
NtRp1611
(dp1612
g68
(dp1613
g95
g96
ssg77
g1602
sg70
(lp1614
S':'
asbag63
(g84
g65
NtRp1615
(dp1616
g68
(dp1617
sg77
g1602
sg70
(lp1618
g63
(g64
g65
NtRp1619
(dp1620
g68
(dp1621
g76
I4
ssg77
g1615
sg70
(lp1622
S'<class wsgiref.util.FileWrapper at 0x000000000369CEE8>'
p1623
asbasbasbag63
(g79
g65
NtRp1624
(dp1625
g68
(dp1626
sg77
g680
sg70
(lp1627
g63
(g84
g65
NtRp1628
(dp1629
g68
(dp1630
g88
g89
ssg77
g1624
sg70
(lp1631
S'wsgi_input'
p1632
asbag63
(g84
g65
NtRp1633
(dp1634
g68
(dp1635
g95
g96
ssg77
g1624
sg70
(lp1636
S':'
asbag63
(g84
g65
NtRp1637
(dp1638
g68
(dp1639
sg77
g1624
sg70
(lp1640
g63
(g64
g65
NtRp1641
(dp1642
g68
(dp1643
g76
I4
ssg77
g1637
sg70
(lp1644
S'<socket._fileobject object at 0x000000000526FA20>'
p1645
asbasbasbag63
(g79
g65
NtRp1646
(dp1647
g68
(dp1648
sg77
g680
sg70
(lp1649
g63
(g84
g65
NtRp1650
(dp1651
g68
(dp1652
g88
g89
ssg77
g1646
sg70
(lp1653
S'wsgi_multiprocess'
p1654
asbag63
(g84
g65
NtRp1655
(dp1656
g68
(dp1657
g95
g96
ssg77
g1646
sg70
(lp1658
S':'
asbag63
(g84
g65
NtRp1659
(dp1660
g68
(dp1661
sg77
g1646
sg70
(lp1662
g63
(g64
g65
NtRp1663
(dp1664
g68
(dp1665
g76
I4
ssg77
g1659
sg70
(lp1666
g818
asbasbasbag63
(g79
g65
NtRp1667
(dp1668
g68
(dp1669
sg77
g680
sg70
(lp1670
g63
(g84
g65
NtRp1671
(dp1672
g68
(dp1673
g88
g89
ssg77
g1667
sg70
(lp1674
S'wsgi_multithread'
p1675
asbag63
(g84
g65
NtRp1676
(dp1677
g68
(dp1678
g95
g96
ssg77
g1667
sg70
(lp1679
S':'
asbag63
(g84
g65
NtRp1680
(dp1681
g68
(dp1682
sg77
g1667
sg70
(lp1683
g63
(g64
g65
NtRp1684
(dp1685
g68
(dp1686
g76
I4
ssg77
g1680
sg70
(lp1687
g106
asbasbasbag63
(g79
g65
NtRp1688
(dp1689
g68
(dp1690
sg77
g680
sg70
(lp1691
g63
(g84
g65
NtRp1692
(dp1693
g68
(dp1694
g88
g89
ssg77
g1688
sg70
(lp1695
S'wsgi_run_once'
p1696
asbag63
(g84
g65
NtRp1697
(dp1698
g68
(dp1699
g95
g96
ssg77
g1688
sg70
(lp1700
S':'
asbag63
(g84
g65
NtRp1701
(dp1702
g68
(dp1703
sg77
g1688
sg70
(lp1704
g63
(g64
g65
NtRp1705
(dp1706
g68
(dp1707
g76
I4
ssg77
g1701
sg70
(lp1708
g818
asbasbasbag63
(g79
g65
NtRp1709
(dp1710
g68
(dp1711
sg77
g680
sg70
(lp1712
g63
(g84
g65
NtRp1713
(dp1714
g68
(dp1715
g88
g89
ssg77
g1709
sg70
(lp1716
S'wsgi_url_scheme'
p1717
asbag63
(g84
g65
NtRp1718
(dp1719
g68
(dp1720
g95
g96
ssg77
g1709
sg70
(lp1721
S':'
asbag63
(g84
g65
NtRp1722
(dp1723
g68
(dp1724
sg77
g1709
sg70
(lp1725
g63
(g64
g65
NtRp1726
(dp1727
g68
(dp1728
g76
I4
ssg77
g1722
sg70
(lp1729
S'http'
p1730
asbasbasbag63
(g79
g65
NtRp1731
(dp1732
g68
(dp1733
sg77
g680
sg70
(lp1734
g63
(g84
g65
NtRp1735
(dp1736
g68
(dp1737
g88
g89
ssg77
g1731
sg70
(lp1738
S'wsgi_version'
p1739
asbag63
(g84
g65
NtRp1740
(dp1741
g68
(dp1742
g95
g96
ssg77
g1731
sg70
(lp1743
S':'
asbag63
(g84
g65
NtRp1744
(dp1745
g68
(dp1746
sg77
g1731
sg70
(lp1747
g63
(g64
g65
NtRp1748
(dp1749
g68
(dp1750
g76
I4
ssg77
g1744
sg70
(lp1751
g63
(g72
g65
NtRp1752
(dp1753
g68
(dp1754
g76
I3
ssg77
Nsg70
(lp1755
g63
(g79
g65
NtRp1756
(dp1757
g68
(dp1758
sg77
g1752
sg70
(lp1759
g63
(g84
g65
NtRp1760
(dp1761
g68
(dp1762
sg77
g1756
sg70
(lp1763
g63
(g64
g65
NtRp1764
(dp1765
g68
(dp1766
g76
I3
ssg77
g1760
sg70
(lp1767
S'1'
asbasbasbag63
(g79
g65
NtRp1768
(dp1769
g68
(dp1770
sg77
g1752
sg70
(lp1771
g63
(g84
g65
NtRp1772
(dp1773
g68
(dp1774
sg77
g1768
sg70
(lp1775
g63
(g64
g65
NtRp1776
(dp1777
g68
(dp1778
g76
I3
ssg77
g1772
sg70
(lp1779
S'0'
asbasbasbasbasbasbasbasbasbasbasbag63
(g79
g65
NtRp1780
(dp1781
g68
(dp1782
sg77
g73
sg70
(lp1783
g63
(g84
g65
NtRp1784
(dp1785
g68
(dp1786
g88
g89
ssg77
g1780
sg70
(lp1787
S'extension'
p1788
asbag63
(g84
g65
NtRp1789
(dp1790
g68
(dp1791
g95
g96
ssg77
g1780
sg70
(lp1792
S':'
asbag63
(g84
g65
NtRp1793
(dp1794
g68
(dp1795
sg77
g1780
sg70
(lp1796
g63
(g64
g65
NtRp1797
(dp1798
g68
(dp1799
g76
I5
ssg77
g1793
sg70
(lp1800
S'html'
p1801
asbasbasbag63
(g79
g65
NtRp1802
(dp1803
g68
(dp1804
sg77
g73
sg70
(lp1805
g63
(g84
g65
NtRp1806
(dp1807
g68
(dp1808
g88
g89
ssg77
g1802
sg70
(lp1809
S'folder'
p1810
asbag63
(g84
g65
NtRp1811
(dp1812
g68
(dp1813
g95
g96
ssg77
g1802
sg70
(lp1814
S':'
asbag63
(g84
g65
NtRp1815
(dp1816
g68
(dp1817
sg77
g1802
sg70
(lp1818
g63
(g64
g65
NtRp1819
(dp1820
g68
(dp1821
g76
I5
ssg77
g1815
sg70
(lp1822
S'D:\\Work\\webRTC\\web2py\\applications\\welcome\\'
p1823
asbasbasbag63
(g79
g65
NtRp1824
(dp1825
g68
(dp1826
sg77
g73
sg70
(lp1827
g63
(g84
g65
NtRp1828
(dp1829
g68
(dp1830
g88
g89
ssg77
g1824
sg70
(lp1831
S'function'
p1832
asbag63
(g84
g65
NtRp1833
(dp1834
g68
(dp1835
g95
g96
ssg77
g1824
sg70
(lp1836
S':'
asbag63
(g84
g65
NtRp1837
(dp1838
g68
(dp1839
sg77
g1824
sg70
(lp1840
g63
(g64
g65
NtRp1841
(dp1842
g68
(dp1843
g76
I5
ssg77
g1837
sg70
(lp1844
S'connect'
p1845
asbasbasbag63
(g79
g65
NtRp1846
(dp1847
g68
(dp1848
sg77
g73
sg70
(lp1849
g63
(g84
g65
NtRp1850
(dp1851
g68
(dp1852
g88
g89
ssg77
g1846
sg70
(lp1853
S'get_vars'
p1854
asbag63
(g84
g65
NtRp1855
(dp1856
g68
(dp1857
g95
g96
ssg77
g1846
sg70
(lp1858
S':'
asbag63
(g84
g65
NtRp1859
(dp1860
g68
(dp1861
sg77
g1846
sg70
(lp1862
g63
(g64
g65
NtRp1863
(dp1864
g68
(dp1865
g76
I5
ssg77
g1859
sg70
(lp1866
g63
(g72
g65
NtRp1867
(dp1868
g68
(dp1869
g76
I4
ssg77
Nsg70
(lp1870
g63
(g79
g65
NtRp1871
(dp1872
g68
(dp1873
sg77
g1867
sg70
(lp1874
g63
(g84
g65
NtRp1875
(dp1876
g68
(dp1877
g88
g89
ssg77
g1871
sg70
(lp1878
S'msg'
p1879
asbag63
(g84
g65
NtRp1880
(dp1881
g68
(dp1882
g95
g96
ssg77
g1871
sg70
(lp1883
S':'
asbag63
(g84
g65
NtRp1884
(dp1885
g68
(dp1886
sg77
g1871
sg70
(lp1887
g63
(g64
g65
NtRp1888
(dp1889
g68
(dp1890
g76
I4
ssg77
g1884
sg70
(lp1891
S'{"dest_key":"a","access_token":"NTYyZjk3","type":"candidate","label":0,"id":"audio","candidate":"a=candidate:2800047373 1 tcp 1509957375 192.168.0.112 53611 typ host generation 0\\r\\n"}'
p1892
asbasbasbasbasbasbasbag63
(g79
g65
NtRp1893
(dp1894
g68
(dp1895
sg77
g73
sg70
(lp1896
g63
(g84
g65
NtRp1897
(dp1898
g68
(dp1899
g88
g89
ssg77
g1893
sg70
(lp1900
S'global_settings'
p1901
asbag63
(g84
g65
NtRp1902
(dp1903
g68
(dp1904
g95
g96
ssg77
g1893
sg70
(lp1905
S':'
asbag63
(g84
g65
NtRp1906
(dp1907
g68
(dp1908
sg77
g1893
sg70
(lp1909
g63
(g64
g65
NtRp1910
(dp1911
g68
(dp1912
g76
I5
ssg77
g1906
sg70
(lp1913
g63
(g72
g65
NtRp1914
(dp1915
g68
(dp1916
g76
I4
ssg77
Nsg70
(lp1917
g63
(g79
g65
NtRp1918
(dp1919
g68
(dp1920
sg77
g1914
sg70
(lp1921
g63
(g84
g65
NtRp1922
(dp1923
g68
(dp1924
g88
g89
ssg77
g1918
sg70
(lp1925
g692
asbag63
(g84
g65
NtRp1926
(dp1927
g68
(dp1928
g95
g96
ssg77
g1918
sg70
(lp1929
S':'
asbag63
(g84
g65
NtRp1930
(dp1931
g68
(dp1932
sg77
g1918
sg70
(lp1933
g63
(g64
g65
NtRp1934
(dp1935
g68
(dp1936
g76
I4
ssg77
g1930
sg70
(lp1937
S"set(['D:\\\\Work\\\\webRTC\\\\web2py\\\\applications\\\\welcome\\\\', 'D:\\\\Work\\\\webRTC\\\\web2py\\\\applications\\\\admin\\\\'])"
p1938
asbasbasbag63
(g79
g65
NtRp1939
(dp1940
g68
(dp1941
sg77
g1914
sg70
(lp1942
g63
(g84
g65
NtRp1943
(dp1944
g68
(dp1945
g88
g89
ssg77
g1939
sg70
(lp1946
g714
asbag63
(g84
g65
NtRp1947
(dp1948
g68
(dp1949
g95
g96
ssg77
g1939
sg70
(lp1950
S':'
asbag63
(g84
g65
NtRp1951
(dp1952
g68
(dp1953
sg77
g1939
sg70
(lp1954
g63
(g64
g65
NtRp1955
(dp1956
g68
(dp1957
g76
I4
ssg77
g1951
sg70
(lp1958
g727
asbasbasbag63
(g79
g65
NtRp1959
(dp1960
g68
(dp1961
sg77
g1914
sg70
(lp1962
g63
(g84
g65
NtRp1963
(dp1964
g68
(dp1965
g88
g89
ssg77
g1959
sg70
(lp1966
g736
asbag63
(g84
g65
NtRp1967
(dp1968
g68
(dp1969
g95
g96
ssg77
g1959
sg70
(lp1970
S':'
asbag63
(g84
g65
NtRp1971
(dp1972
g68
(dp1973
sg77
g1959
sg70
(lp1974
g63
(g64
g65
NtRp1975
(dp1976
g68
(dp1977
g76
I4
ssg77
g1971
sg70
(lp1978
g63
(g72
g65
NtRp1979
(dp1980
g68
(dp1981
g76
I3
ssg77
Nsg70
(lp1982
sbasbasbasbag63
(g79
g65
NtRp1983
(dp1984
g68
(dp1985
sg77
g1914
sg70
(lp1986
g63
(g84
g65
NtRp1987
(dp1988
g68
(dp1989
g88
g89
ssg77
g1983
sg70
(lp1990
g761
asbag63
(g84
g65
NtRp1991
(dp1992
g68
(dp1993
g95
g96
ssg77
g1983
sg70
(lp1994
S':'
asbag63
(g84
g65
NtRp1995
(dp1996
g68
(dp1997
sg77
g1983
sg70
(lp1998
g63
(g64
g65
NtRp1999
(dp2000
g68
(dp2001
g76
I4
ssg77
g1995
sg70
(lp2002
S"<Values at 0x3719cc8: {'verbose': False, 'ip': '127.0.0.1', 'with_scheduler': False, 'ips': ['2001:0:9d38:6ab8:2058:2e34:3f57:ff8f', '192.168.0.112', 'fe80::2058:2e34:3f57:ff8f%14', 'fe80::91ec:31f9:5083:69f3%15'], 'shutdown_timeout': 5, 'taskbar': False, 'port': 8000, 'maxthreads': None, 'softcron': False, 'server_name': 'SonTHN-Hoiio', 'bpython': False, 'nogui': False, 'pid_filename': 'httpserver.pid', 'extcron': False, 'runcron': False, 'run_system_tests': False, 'test': None, 'folder': 'D:\\\\Work\\\\webRTC\\\\web2py', 'config': '', 'import_models': False, 'winservice': '', 'shell': None, 'run': '', 'log_filename': 'httpserver.log', 'debuglevel': 30, 'args': [''], 'socket_timeout': 5, 'ssl_ca_certificate': None, 'scheduler': None, 'profiler_filename': None, 'ssl_private_key': '', 'scheduler_groups': None, 'password': '<ask>', 'request_queue_size': 5, 'ssl_certificate': '', 'cronjob': False, 'numthreads': None, 'quiet': False, 'interfaces': None, 'minthreads': None, 'timeout': 10, 'plain': False, 'nobanner': False}>"
p2003
asbasbasbag63
(g79
g65
NtRp2004
(dp2005
g68
(dp2006
sg77
g1914
sg70
(lp2007
g63
(g84
g65
NtRp2008
(dp2009
g68
(dp2010
g88
g89
ssg77
g2004
sg70
(lp2011
g783
asbag63
(g84
g65
NtRp2012
(dp2013
g68
(dp2014
g95
g96
ssg77
g2004
sg70
(lp2015
S':'
asbag63
(g84
g65
NtRp2016
(dp2017
g68
(dp2018
sg77
g2004
sg70
(lp2019
g63
(g64
g65
NtRp2020
(dp2021
g68
(dp2022
g76
I4
ssg77
g2016
sg70
(lp2023
S'set([])'
p2024
asbasbasbag63
(g79
g65
NtRp2025
(dp2026
g68
(dp2027
sg77
g1914
sg70
(lp2028
g63
(g84
g65
NtRp2029
(dp2030
g68
(dp2031
g88
g89
ssg77
g2025
sg70
(lp2032
g805
asbag63
(g84
g65
NtRp2033
(dp2034
g68
(dp2035
g95
g96
ssg77
g2025
sg70
(lp2036
S':'
asbag63
(g84
g65
NtRp2037
(dp2038
g68
(dp2039
sg77
g2025
sg70
(lp2040
g63
(g64
g65
NtRp2041
(dp2042
g68
(dp2043
g76
I4
ssg77
g2037
sg70
(lp2044
g818
asbasbasbag63
(g79
g65
NtRp2045
(dp2046
g68
(dp2047
sg77
g1914
sg70
(lp2048
g63
(g84
g65
NtRp2049
(dp2050
g68
(dp2051
g88
g89
ssg77
g2045
sg70
(lp2052
g827
asbag63
(g84
g65
NtRp2053
(dp2054
g68
(dp2055
g95
g96
ssg77
g2045
sg70
(lp2056
S':'
asbag63
(g84
g65
NtRp2057
(dp2058
g68
(dp2059
sg77
g2045
sg70
(lp2060
g63
(g64
g65
NtRp2061
(dp2062
g68
(dp2063
g76
I4
ssg77
g2057
sg70
(lp2064
g840
asbasbasbag63
(g79
g65
NtRp2065
(dp2066
g68
(dp2067
sg77
g1914
sg70
(lp2068
g63
(g84
g65
NtRp2069
(dp2070
g68
(dp2071
g88
g89
ssg77
g2065
sg70
(lp2072
g1069
asbag63
(g84
g65
NtRp2073
(dp2074
g68
(dp2075
g95
g96
ssg77
g2065
sg70
(lp2076
S':'
asbag63
(g84
g65
NtRp2077
(dp2078
g68
(dp2079
sg77
g2065
sg70
(lp2080
g63
(g64
g65
NtRp2081
(dp2082
g68
(dp2083
g76
I4
ssg77
g2077
sg70
(lp2084
g818
asbasbasbag63
(g79
g65
NtRp2085
(dp2086
g68
(dp2087
sg77
g1914
sg70
(lp2088
g63
(g84
g65
NtRp2089
(dp2090
g68
(dp2091
g88
g89
ssg77
g2085
sg70
(lp2092
g1090
asbag63
(g84
g65
NtRp2093
(dp2094
g68
(dp2095
g95
g96
ssg77
g2085
sg70
(lp2096
S':'
asbag63
(g84
g65
NtRp2097
(dp2098
g68
(dp2099
sg77
g2085
sg70
(lp2100
g63
(g64
g65
NtRp2101
(dp2102
g68
(dp2103
g76
I4
ssg77
g2097
sg70
(lp2104
g818
asbasbasbag63
(g79
g65
NtRp2105
(dp2106
g68
(dp2107
sg77
g1914
sg70
(lp2108
g63
(g84
g65
NtRp2109
(dp2110
g68
(dp2111
g88
g89
ssg77
g2105
sg70
(lp2112
g1111
asbag63
(g84
g65
NtRp2113
(dp2114
g68
(dp2115
g95
g96
ssg77
g2105
sg70
(lp2116
S':'
asbag63
(g84
g65
NtRp2117
(dp2118
g68
(dp2119
sg77
g2105
sg70
(lp2120
g63
(g64
g65
NtRp2121
(dp2122
g68
(dp2123
g76
I4
ssg77
g2117
sg70
(lp2124
g63
(g72
g65
NtRp2125
(dp2126
g68
(dp2127
g76
I3
ssg77
Nsg70
(lp2128
g63
(g79
g65
NtRp2129
(dp2130
g68
(dp2131
sg77
g2125
sg70
(lp2132
g63
(g84
g65
NtRp2133
(dp2134
g68
(dp2135
sg77
g2129
sg70
(lp2136
g63
(g64
g65
NtRp2137
(dp2138
g68
(dp2139
g76
I3
ssg77
g2133
sg70
(lp2140
g1140
asbasbasbag63
(g79
g65
NtRp2141
(dp2142
g68
(dp2143
sg77
g2125
sg70
(lp2144
g63
(g84
g65
NtRp2145
(dp2146
g68
(dp2147
sg77
g2141
sg70
(lp2148
g63
(g64
g65
NtRp2149
(dp2150
g68
(dp2151
g76
I3
ssg77
g2145
sg70
(lp2152
g1153
asbasbasbag63
(g79
g65
NtRp2153
(dp2154
g68
(dp2155
sg77
g2125
sg70
(lp2156
g63
(g84
g65
NtRp2157
(dp2158
g68
(dp2159
sg77
g2153
sg70
(lp2160
g63
(g64
g65
NtRp2161
(dp2162
g68
(dp2163
g76
I3
ssg77
g2157
sg70
(lp2164
g1166
asbasbasbag63
(g79
g65
NtRp2165
(dp2166
g68
(dp2167
sg77
g2125
sg70
(lp2168
g63
(g84
g65
NtRp2169
(dp2170
g68
(dp2171
sg77
g2165
sg70
(lp2172
g63
(g64
g65
NtRp2173
(dp2174
g68
(dp2175
g76
I3
ssg77
g2169
sg70
(lp2176
g1179
asbasbasbag63
(g79
g65
NtRp2177
(dp2178
g68
(dp2179
sg77
g2125
sg70
(lp2180
g63
(g84
g65
NtRp2181
(dp2182
g68
(dp2183
sg77
g2177
sg70
(lp2184
g63
(g64
g65
NtRp2185
(dp2186
g68
(dp2187
g76
I3
ssg77
g2181
sg70
(lp2188
g1192
asbasbasbag63
(g79
g65
NtRp2189
(dp2190
g68
(dp2191
sg77
g2125
sg70
(lp2192
g63
(g84
g65
NtRp2193
(dp2194
g68
(dp2195
sg77
g2189
sg70
(lp2196
g63
(g64
g65
NtRp2197
(dp2198
g68
(dp2199
g76
I3
ssg77
g2193
sg70
(lp2200
g1205
asbasbasbag63
(g79
g65
NtRp2201
(dp2202
g68
(dp2203
sg77
g2125
sg70
(lp2204
g63
(g84
g65
NtRp2205
(dp2206
g68
(dp2207
sg77
g2201
sg70
(lp2208
g63
(g64
g65
NtRp2209
(dp2210
g68
(dp2211
g76
I3
ssg77
g2205
sg70
(lp2212
g1218
asbasbasbag63
(g79
g65
NtRp2213
(dp2214
g68
(dp2215
sg77
g2125
sg70
(lp2216
g63
(g84
g65
NtRp2217
(dp2218
g68
(dp2219
sg77
g2213
sg70
(lp2220
g63
(g64
g65
NtRp2221
(dp2222
g68
(dp2223
g76
I3
ssg77
g2217
sg70
(lp2224
g1231
asbasbasbasbasbasbasbag63
(g79
g65
NtRp2225
(dp2226
g68
(dp2227
sg77
g1914
sg70
(lp2228
g63
(g84
g65
NtRp2229
(dp2230
g68
(dp2231
g88
g89
ssg77
g2225
sg70
(lp2232
g1501
asbag63
(g84
g65
NtRp2233
(dp2234
g68
(dp2235
g95
g96
ssg77
g2225
sg70
(lp2236
S':'
asbag63
(g84
g65
NtRp2237
(dp2238
g68
(dp2239
sg77
g2225
sg70
(lp2240
g63
(g64
g65
NtRp2241
(dp2242
g68
(dp2243
g76
I4
ssg77
g2237
sg70
(lp2244
g63
(g72
g65
NtRp2245
(dp2246
g68
(dp2247
g76
I3
ssg77
Nsg70
(lp2248
g63
(g79
g65
NtRp2249
(dp2250
g68
(dp2251
sg77
g2245
sg70
(lp2252
g63
(g84
g65
NtRp2253
(dp2254
g68
(dp2255
sg77
g2249
sg70
(lp2256
g63
(g64
g65
NtRp2257
(dp2258
g68
(dp2259
g76
I3
ssg77
g2253
sg70
(lp2260
S'2'
asbasbasbag63
(g79
g65
NtRp2261
(dp2262
g68
(dp2263
sg77
g2245
sg70
(lp2264
g63
(g84
g65
NtRp2265
(dp2266
g68
(dp2267
sg77
g2261
sg70
(lp2268
g63
(g64
g65
NtRp2269
(dp2270
g68
(dp2271
g76
I3
ssg77
g2265
sg70
(lp2272
S'4'
asbasbasbag63
(g79
g65
NtRp2273
(dp2274
g68
(dp2275
sg77
g2245
sg70
(lp2276
g63
(g84
g65
NtRp2277
(dp2278
g68
(dp2279
sg77
g2273
sg70
(lp2280
g63
(g64
g65
NtRp2281
(dp2282
g68
(dp2283
g76
I3
ssg77
g2277
sg70
(lp2284
S'1'
asbasbasbag63
(g79
g65
NtRp2285
(dp2286
g68
(dp2287
sg77
g2245
sg70
(lp2288
g63
(g84
g65
NtRp2289
(dp2290
g68
(dp2291
sg77
g2285
sg70
(lp2292
g63
(g64
g65
NtRp2293
(dp2294
g68
(dp2295
g76
I3
ssg77
g2289
sg70
(lp2296
g1566
asbasbasbag63
(g79
g65
NtRp2297
(dp2298
g68
(dp2299
sg77
g2245
sg70
(lp2300
g63
(g84
g65
NtRp2301
(dp2302
g68
(dp2303
sg77
g2297
sg70
(lp2304
g63
(g64
g65
NtRp2305
(dp2306
g68
(dp2307
g76
I3
ssg77
g2301
sg70
(lp2308
S'datetime.datetime(2012, 12, 20, 18, 16, 2)'
p2309
asbasbasbasbasbasbasbasbasbasbasbag63
(g79
g65
NtRp2310
(dp2311
g68
(dp2312
sg77
g73
sg70
(lp2313
g63
(g84
g65
NtRp2314
(dp2315
g68
(dp2316
g88
g89
ssg77
g2310
sg70
(lp2317
S'is_https'
p2318
asbag63
(g84
g65
NtRp2319
(dp2320
g68
(dp2321
g95
g96
ssg77
g2310
sg70
(lp2322
S':'
asbag63
(g84
g65
NtRp2323
(dp2324
g68
(dp2325
sg77
g2310
sg70
(lp2326
g63
(g64
g65
NtRp2327
(dp2328
g68
(dp2329
g76
I5
ssg77
g2323
sg70
(lp2330
g818
asbasbasbag63
(g79
g65
NtRp2331
(dp2332
g68
(dp2333
sg77
g73
sg70
(lp2334
g63
(g84
g65
NtRp2335
(dp2336
g68
(dp2337
g88
g89
ssg77
g2331
sg70
(lp2338
S'is_local'
p2339
asbag63
(g84
g65
NtRp2340
(dp2341
g68
(dp2342
g95
g96
ssg77
g2331
sg70
(lp2343
S':'
asbag63
(g84
g65
NtRp2344
(dp2345
g68
(dp2346
sg77
g2331
sg70
(lp2347
g63
(g64
g65
NtRp2348
(dp2349
g68
(dp2350
g76
I5
ssg77
g2344
sg70
(lp2351
g106
asbasbasbag63
(g79
g65
NtRp2352
(dp2353
g68
(dp2354
sg77
g73
sg70
(lp2355
g63
(g84
g65
NtRp2356
(dp2357
g68
(dp2358
g88
g89
ssg77
g2352
sg70
(lp2359
S'is_restful'
p2360
asbag63
(g84
g65
NtRp2361
(dp2362
g68
(dp2363
g95
g96
ssg77
g2352
sg70
(lp2364
S':'
asbag63
(g84
g65
NtRp2365
(dp2366
g68
(dp2367
sg77
g2352
sg70
(lp2368
g63
(g64
g65
NtRp2369
(dp2370
g68
(dp2371
g76
I5
ssg77
g2365
sg70
(lp2372
g818
asbasbasbag63
(g79
g65
NtRp2373
(dp2374
g68
(dp2375
sg77
g73
sg70
(lp2376
g63
(g84
g65
NtRp2377
(dp2378
g68
(dp2379
g88
g89
ssg77
g2373
sg70
(lp2380
S'now'
p2381
asbag63
(g84
g65
NtRp2382
(dp2383
g68
(dp2384
g95
g96
ssg77
g2373
sg70
(lp2385
S':'
asbag63
(g84
g65
NtRp2386
(dp2387
g68
(dp2388
sg77
g2373
sg70
(lp2389
g63
(g64
g65
NtRp2390
(dp2391
g68
(dp2392
g76
I5
ssg77
g2386
sg70
(lp2393
S'datetime.datetime(2013, 1, 29, 12, 49, 6, 869000)'
p2394
asbasbasbag63
(g79
g65
NtRp2395
(dp2396
g68
(dp2397
sg77
g73
sg70
(lp2398
g63
(g84
g65
NtRp2399
(dp2400
g68
(dp2401
g88
g89
ssg77
g2395
sg70
(lp2402
S'post_vars'
p2403
asbag63
(g84
g65
NtRp2404
(dp2405
g68
(dp2406
g95
g96
ssg77
g2395
sg70
(lp2407
S':'
asbag63
(g84
g65
NtRp2408
(dp2409
g68
(dp2410
sg77
g2395
sg70
(lp2411
g63
(g64
g65
NtRp2412
(dp2413
g68
(dp2414
g76
I5
ssg77
g2408
sg70
(lp2415
g63
(g72
g65
NtRp2416
(dp2417
g68
(dp2418
g76
I4
ssg77
Nsg70
(lp2419
sbasbasbasbag63
(g79
g65
NtRp2420
(dp2421
g68
(dp2422
sg77
g73
sg70
(lp2423
g63
(g84
g65
NtRp2424
(dp2425
g68
(dp2426
g88
g89
ssg77
g2420
sg70
(lp2427
S'raw_args'
p2428
asbag63
(g84
g65
NtRp2429
(dp2430
g68
(dp2431
g95
g96
ssg77
g2420
sg70
(lp2432
S':'
asbag63
(g84
g65
NtRp2433
(dp2434
g68
(dp2435
sg77
g2420
sg70
(lp2436
g63
(g64
g65
NtRp2437
(dp2438
g68
(dp2439
g76
I5
ssg77
g2433
sg70
(lp2440
g165
asbasbasbag63
(g79
g65
NtRp2441
(dp2442
g68
(dp2443
sg77
g73
sg70
(lp2444
g63
(g84
g65
NtRp2445
(dp2446
g68
(dp2447
g88
g89
ssg77
g2441
sg70
(lp2448
S'raw_extension'
p2449
asbag63
(g84
g65
NtRp2450
(dp2451
g68
(dp2452
g95
g96
ssg77
g2441
sg70
(lp2453
S':'
asbag63
(g84
g65
NtRp2454
(dp2455
g68
(dp2456
sg77
g2441
sg70
(lp2457
g63
(g64
g65
NtRp2458
(dp2459
g68
(dp2460
g76
I5
ssg77
g2454
sg70
(lp2461
S'None'
p2462
asbasbasbag63
(g79
g65
NtRp2463
(dp2464
g68
(dp2465
sg77
g73
sg70
(lp2466
g63
(g84
g65
NtRp2467
(dp2468
g68
(dp2469
g88
g89
ssg77
g2463
sg70
(lp2470
S'url'
p2471
asbag63
(g84
g65
NtRp2472
(dp2473
g68
(dp2474
g95
g96
ssg77
g2463
sg70
(lp2475
S':'
asbag63
(g84
g65
NtRp2476
(dp2477
g68
(dp2478
sg77
g2463
sg70
(lp2479
g63
(g64
g65
NtRp2480
(dp2481
g68
(dp2482
g76
I5
ssg77
g2476
sg70
(lp2483
g1253
asbasbasbag63
(g79
g65
NtRp2484
(dp2485
g68
(dp2486
sg77
g73
sg70
(lp2487
g63
(g84
g65
NtRp2488
(dp2489
g68
(dp2490
g88
g89
ssg77
g2484
sg70
(lp2491
S'utcnow'
p2492
asbag63
(g84
g65
NtRp2493
(dp2494
g68
(dp2495
g95
g96
ssg77
g2484
sg70
(lp2496
S':'
asbag63
(g84
g65
NtRp2497
(dp2498
g68
(dp2499
sg77
g2484
sg70
(lp2500
g63
(g64
g65
NtRp2501
(dp2502
g68
(dp2503
g76
I5
ssg77
g2497
sg70
(lp2504
S'datetime.datetime(2013, 1, 29, 5, 49, 6, 869000)'
p2505
asbasbasbag63
(g79
g65
NtRp2506
(dp2507
g68
(dp2508
sg77
g73
sg70
(lp2509
g63
(g84
g65
NtRp2510
(dp2511
g68
(dp2512
g88
g89
ssg77
g2506
sg70
(lp2513
S'uuid'
p2514
asbag63
(g84
g65
NtRp2515
(dp2516
g68
(dp2517
g95
g96
ssg77
g2506
sg70
(lp2518
S':'
asbag63
(g84
g65
NtRp2519
(dp2520
g68
(dp2521
sg77
g2506
sg70
(lp2522
g63
(g64
g65
NtRp2523
(dp2524
g68
(dp2525
g76
I5
ssg77
g2519
sg70
(lp2526
S'welcome/127.0.0.1.2013-01-29.12-49-06.edd7799b-3eaa-438c-ac6f-ea958b195cf4'
p2527
asbasbasbag63
(g79
g65
NtRp2528
(dp2529
g68
(dp2530
sg77
g73
sg70
(lp2531
g63
(g84
g65
NtRp2532
(dp2533
g68
(dp2534
g88
g89
ssg77
g2528
sg70
(lp2535
S'vars'
p2536
asbag63
(g84
g65
NtRp2537
(dp2538
g68
(dp2539
g95
g96
ssg77
g2528
sg70
(lp2540
S':'
asbag63
(g84
g65
NtRp2541
(dp2542
g68
(dp2543
sg77
g2528
sg70
(lp2544
g63
(g64
g65
NtRp2545
(dp2546
g68
(dp2547
g76
I5
ssg77
g2541
sg70
(lp2548
g63
(g72
g65
NtRp2549
(dp2550
g68
(dp2551
g76
I4
ssg77
Nsg70
(lp2552
g63
(g79
g65
NtRp2553
(dp2554
g68
(dp2555
sg77
g2549
sg70
(lp2556
g63
(g84
g65
NtRp2557
(dp2558
g68
(dp2559
g88
g89
ssg77
g2553
sg70
(lp2560
g1879
asbag63
(g84
g65
NtRp2561
(dp2562
g68
(dp2563
g95
g96
ssg77
g2553
sg70
(lp2564
S':'
asbag63
(g84
g65
NtRp2565
(dp2566
g68
(dp2567
sg77
g2553
sg70
(lp2568
g63
(g64
g65
NtRp2569
(dp2570
g68
(dp2571
g76
I4
ssg77
g2565
sg70
(lp2572
g1892
asbasbasbasbasbasbasbag63
(g79
g65
NtRp2573
(dp2574
g68
(dp2575
sg77
g73
sg70
(lp2576
g63
(g84
g65
NtRp2577
(dp2578
g68
(dp2579
g88
g89
ssg77
g2573
sg70
(lp2580
S'wsgi'
p2581
asbag63
(g84
g65
NtRp2582
(dp2583
g68
(dp2584
g95
g96
ssg77
g2573
sg70
(lp2585
S':'
asbag63
(g84
g65
NtRp2586
(dp2587
g68
(dp2588
sg77
g2573
sg70
(lp2589
g63
(g64
g65
NtRp2590
(dp2591
g68
(dp2592
g76
I5
ssg77
g2586
sg70
(lp2593
g63
(g72
g65
NtRp2594
(dp2595
g68
(dp2596
g76
I4
ssg77
Nsg70
(lp2597
g63
(g79
g65
NtRp2598
(dp2599
g68
(dp2600
sg77
g2594
sg70
(lp2601
g63
(g84
g65
NtRp2602
(dp2603
g68
(dp2604
g88
g89
ssg77
g2598
sg70
(lp2605
S'environ'
p2606
asbag63
(g84
g65
NtRp2607
(dp2608
g68
(dp2609
g95
g96
ssg77
g2598
sg70
(lp2610
S':'
asbag63
(g84
g65
NtRp2611
(dp2612
g68
(dp2613
sg77
g2598
sg70
(lp2614
g63
(g64
g65
NtRp2615
(dp2616
g68
(dp2617
g76
I4
ssg77
g2611
sg70
(lp2618
g63
(g72
g65
NtRp2619
(dp2620
g68
(dp2621
g76
I3
ssg77
Nsg70
(lp2622
g63
(g79
g65
NtRp2623
(dp2624
g68
(dp2625
sg77
g2619
sg70
(lp2626
g63
(g84
g65
NtRp2627
(dp2628
g68
(dp2629
g88
g89
ssg77
g2623
sg70
(lp2630
S'HTTP_ACCEPT'
p2631
asbag63
(g84
g65
NtRp2632
(dp2633
g68
(dp2634
g95
g96
ssg77
g2623
sg70
(lp2635
S':'
asbag63
(g84
g65
NtRp2636
(dp2637
g68
(dp2638
sg77
g2623
sg70
(lp2639
g63
(g64
g65
NtRp2640
(dp2641
g68
(dp2642
g76
I3
ssg77
g2636
sg70
(lp2643
g862
asbasbasbag63
(g79
g65
NtRp2644
(dp2645
g68
(dp2646
sg77
g2619
sg70
(lp2647
g63
(g84
g65
NtRp2648
(dp2649
g68
(dp2650
g88
g89
ssg77
g2644
sg70
(lp2651
S'HTTP_ACCEPT_CHARSET'
p2652
asbag63
(g84
g65
NtRp2653
(dp2654
g68
(dp2655
g95
g96
ssg77
g2644
sg70
(lp2656
S':'
asbag63
(g84
g65
NtRp2657
(dp2658
g68
(dp2659
sg77
g2644
sg70
(lp2660
g63
(g64
g65
NtRp2661
(dp2662
g68
(dp2663
g76
I3
ssg77
g2657
sg70
(lp2664
g884
asbasbasbag63
(g79
g65
NtRp2665
(dp2666
g68
(dp2667
sg77
g2619
sg70
(lp2668
g63
(g84
g65
NtRp2669
(dp2670
g68
(dp2671
g88
g89
ssg77
g2665
sg70
(lp2672
S'HTTP_ACCEPT_ENCODING'
p2673
asbag63
(g84
g65
NtRp2674
(dp2675
g68
(dp2676
g95
g96
ssg77
g2665
sg70
(lp2677
S':'
asbag63
(g84
g65
NtRp2678
(dp2679
g68
(dp2680
sg77
g2665
sg70
(lp2681
g63
(g64
g65
NtRp2682
(dp2683
g68
(dp2684
g76
I3
ssg77
g2678
sg70
(lp2685
g906
asbasbasbag63
(g79
g65
NtRp2686
(dp2687
g68
(dp2688
sg77
g2619
sg70
(lp2689
g63
(g84
g65
NtRp2690
(dp2691
g68
(dp2692
g88
g89
ssg77
g2686
sg70
(lp2693
S'HTTP_ACCEPT_LANGUAGE'
p2694
asbag63
(g84
g65
NtRp2695
(dp2696
g68
(dp2697
g95
g96
ssg77
g2686
sg70
(lp2698
S':'
asbag63
(g84
g65
NtRp2699
(dp2700
g68
(dp2701
sg77
g2686
sg70
(lp2702
g63
(g64
g65
NtRp2703
(dp2704
g68
(dp2705
g76
I3
ssg77
g2699
sg70
(lp2706
g928
asbasbasbag63
(g79
g65
NtRp2707
(dp2708
g68
(dp2709
sg77
g2619
sg70
(lp2710
g63
(g84
g65
NtRp2711
(dp2712
g68
(dp2713
g88
g89
ssg77
g2707
sg70
(lp2714
S'HTTP_CONNECTION'
p2715
asbag63
(g84
g65
NtRp2716
(dp2717
g68
(dp2718
g95
g96
ssg77
g2707
sg70
(lp2719
S':'
asbag63
(g84
g65
NtRp2720
(dp2721
g68
(dp2722
sg77
g2707
sg70
(lp2723
g63
(g64
g65
NtRp2724
(dp2725
g68
(dp2726
g76
I3
ssg77
g2720
sg70
(lp2727
g950
asbasbasbag63
(g79
g65
NtRp2728
(dp2729
g68
(dp2730
sg77
g2619
sg70
(lp2731
g63
(g84
g65
NtRp2732
(dp2733
g68
(dp2734
g88
g89
ssg77
g2728
sg70
(lp2735
S'HTTP_COOKIE'
p2736
asbag63
(g84
g65
NtRp2737
(dp2738
g68
(dp2739
g95
g96
ssg77
g2728
sg70
(lp2740
S':'
asbag63
(g84
g65
NtRp2741
(dp2742
g68
(dp2743
sg77
g2728
sg70
(lp2744
g63
(g64
g65
NtRp2745
(dp2746
g68
(dp2747
g76
I3
ssg77
g2741
sg70
(lp2748
g972
asbasbasbag63
(g79
g65
NtRp2749
(dp2750
g68
(dp2751
sg77
g2619
sg70
(lp2752
g63
(g84
g65
NtRp2753
(dp2754
g68
(dp2755
g88
g89
ssg77
g2749
sg70
(lp2756
S'HTTP_HOST'
p2757
asbag63
(g84
g65
NtRp2758
(dp2759
g68
(dp2760
g95
g96
ssg77
g2749
sg70
(lp2761
S':'
asbag63
(g84
g65
NtRp2762
(dp2763
g68
(dp2764
sg77
g2749
sg70
(lp2765
g63
(g64
g65
NtRp2766
(dp2767
g68
(dp2768
g76
I3
ssg77
g2762
sg70
(lp2769
g994
asbasbasbag63
(g79
g65
NtRp2770
(dp2771
g68
(dp2772
sg77
g2619
sg70
(lp2773
g63
(g84
g65
NtRp2774
(dp2775
g68
(dp2776
g88
g89
ssg77
g2770
sg70
(lp2777
S'HTTP_REFERER'
p2778
asbag63
(g84
g65
NtRp2779
(dp2780
g68
(dp2781
g95
g96
ssg77
g2770
sg70
(lp2782
S':'
asbag63
(g84
g65
NtRp2783
(dp2784
g68
(dp2785
sg77
g2770
sg70
(lp2786
g63
(g64
g65
NtRp2787
(dp2788
g68
(dp2789
g76
I3
ssg77
g2783
sg70
(lp2790
g1016
asbasbasbag63
(g79
g65
NtRp2791
(dp2792
g68
(dp2793
sg77
g2619
sg70
(lp2794
g63
(g84
g65
NtRp2795
(dp2796
g68
(dp2797
g88
g89
ssg77
g2791
sg70
(lp2798
S'HTTP_USER_AGENT'
p2799
asbag63
(g84
g65
NtRp2800
(dp2801
g68
(dp2802
g95
g96
ssg77
g2791
sg70
(lp2803
S':'
asbag63
(g84
g65
NtRp2804
(dp2805
g68
(dp2806
sg77
g2791
sg70
(lp2807
g63
(g64
g65
NtRp2808
(dp2809
g68
(dp2810
g76
I3
ssg77
g2804
sg70
(lp2811
g1038
asbasbasbag63
(g79
g65
NtRp2812
(dp2813
g68
(dp2814
sg77
g2619
sg70
(lp2815
g63
(g84
g65
NtRp2816
(dp2817
g68
(dp2818
g88
g89
ssg77
g2812
sg70
(lp2819
S'HTTP_X_REQUESTED_WITH'
p2820
asbag63
(g84
g65
NtRp2821
(dp2822
g68
(dp2823
g95
g96
ssg77
g2812
sg70
(lp2824
S':'
asbag63
(g84
g65
NtRp2825
(dp2826
g68
(dp2827
sg77
g2812
sg70
(lp2828
g63
(g64
g65
NtRp2829
(dp2830
g68
(dp2831
g76
I3
ssg77
g2825
sg70
(lp2832
g1060
asbasbasbag63
(g79
g65
NtRp2833
(dp2834
g68
(dp2835
sg77
g2619
sg70
(lp2836
g63
(g84
g65
NtRp2837
(dp2838
g68
(dp2839
g88
g89
ssg77
g2833
sg70
(lp2840
S'PATH_INFO'
p2841
asbag63
(g84
g65
NtRp2842
(dp2843
g68
(dp2844
g95
g96
ssg77
g2833
sg70
(lp2845
S':'
asbag63
(g84
g65
NtRp2846
(dp2847
g68
(dp2848
sg77
g2833
sg70
(lp2849
g63
(g64
g65
NtRp2850
(dp2851
g68
(dp2852
g76
I3
ssg77
g2846
sg70
(lp2853
g1253
asbasbasbag63
(g79
g65
NtRp2854
(dp2855
g68
(dp2856
sg77
g2619
sg70
(lp2857
g63
(g84
g65
NtRp2858
(dp2859
g68
(dp2860
g88
g89
ssg77
g2854
sg70
(lp2861
S'QUERY_STRING'
p2862
asbag63
(g84
g65
NtRp2863
(dp2864
g68
(dp2865
g95
g96
ssg77
g2854
sg70
(lp2866
S':'
asbag63
(g84
g65
NtRp2867
(dp2868
g68
(dp2869
sg77
g2854
sg70
(lp2870
g63
(g64
g65
NtRp2871
(dp2872
g68
(dp2873
g76
I3
ssg77
g2867
sg70
(lp2874
g1275
asbasbasbag63
(g79
g65
NtRp2875
(dp2876
g68
(dp2877
sg77
g2619
sg70
(lp2878
g63
(g84
g65
NtRp2879
(dp2880
g68
(dp2881
g88
g89
ssg77
g2875
sg70
(lp2882
S'REMOTE_ADDR'
p2883
asbag63
(g84
g65
NtRp2884
(dp2885
g68
(dp2886
g95
g96
ssg77
g2875
sg70
(lp2887
S':'
asbag63
(g84
g65
NtRp2888
(dp2889
g68
(dp2890
sg77
g2875
sg70
(lp2891
g63
(g64
g65
NtRp2892
(dp2893
g68
(dp2894
g76
I3
ssg77
g2888
sg70
(lp2895
g231
asbasbasbag63
(g79
g65
NtRp2896
(dp2897
g68
(dp2898
sg77
g2619
sg70
(lp2899
g63
(g84
g65
NtRp2900
(dp2901
g68
(dp2902
g88
g89
ssg77
g2896
sg70
(lp2903
S'REMOTE_PORT'
p2904
asbag63
(g84
g65
NtRp2905
(dp2906
g68
(dp2907
g95
g96
ssg77
g2896
sg70
(lp2908
S':'
asbag63
(g84
g65
NtRp2909
(dp2910
g68
(dp2911
sg77
g2896
sg70
(lp2912
g63
(g64
g65
NtRp2913
(dp2914
g68
(dp2915
g76
I3
ssg77
g2909
sg70
(lp2916
g1318
asbasbasbag63
(g79
g65
NtRp2917
(dp2918
g68
(dp2919
sg77
g2619
sg70
(lp2920
g63
(g84
g65
NtRp2921
(dp2922
g68
(dp2923
g88
g89
ssg77
g2917
sg70
(lp2924
S'REQUEST_METHOD'
p2925
asbag63
(g84
g65
NtRp2926
(dp2927
g68
(dp2928
g95
g96
ssg77
g2917
sg70
(lp2929
S':'
asbag63
(g84
g65
NtRp2930
(dp2931
g68
(dp2932
sg77
g2917
sg70
(lp2933
g63
(g64
g65
NtRp2934
(dp2935
g68
(dp2936
g76
I3
ssg77
g2930
sg70
(lp2937
g1340
asbasbasbag63
(g79
g65
NtRp2938
(dp2939
g68
(dp2940
sg77
g2619
sg70
(lp2941
g63
(g84
g65
NtRp2942
(dp2943
g68
(dp2944
g88
g89
ssg77
g2938
sg70
(lp2945
S'REQUEST_URI'
p2946
asbag63
(g84
g65
NtRp2947
(dp2948
g68
(dp2949
g95
g96
ssg77
g2938
sg70
(lp2950
S':'
asbag63
(g84
g65
NtRp2951
(dp2952
g68
(dp2953
sg77
g2938
sg70
(lp2954
g63
(g64
g65
NtRp2955
(dp2956
g68
(dp2957
g76
I3
ssg77
g2951
sg70
(lp2958
g1362
asbasbasbag63
(g79
g65
NtRp2959
(dp2960
g68
(dp2961
sg77
g2619
sg70
(lp2962
g63
(g84
g65
NtRp2963
(dp2964
g68
(dp2965
g88
g89
ssg77
g2959
sg70
(lp2966
S'SCRIPT_NAME'
p2967
asbag63
(g84
g65
NtRp2968
(dp2969
g68
(dp2970
g95
g96
ssg77
g2959
sg70
(lp2971
S':'
asbag63
(g84
g65
NtRp2972
(dp2973
g68
(dp2974
sg77
g2959
sg70
(lp2975
g63
(g64
g65
NtRp2976
(dp2977
g68
(dp2978
g76
I3
ssg77
g2972
sg70
(lp2979
S''
asbasbasbag63
(g79
g65
NtRp2980
(dp2981
g68
(dp2982
sg77
g2619
sg70
(lp2983
g63
(g84
g65
NtRp2984
(dp2985
g68
(dp2986
g88
g89
ssg77
g2980
sg70
(lp2987
S'SERVER_NAME'
p2988
asbag63
(g84
g65
NtRp2989
(dp2990
g68
(dp2991
g95
g96
ssg77
g2980
sg70
(lp2992
S':'
asbag63
(g84
g65
NtRp2993
(dp2994
g68
(dp2995
sg77
g2980
sg70
(lp2996
g63
(g64
g65
NtRp2997
(dp2998
g68
(dp2999
g76
I3
ssg77
g2993
sg70
(lp3000
g1405
asbasbasbag63
(g79
g65
NtRp3001
(dp3002
g68
(dp3003
sg77
g2619
sg70
(lp3004
g63
(g84
g65
NtRp3005
(dp3006
g68
(dp3007
g88
g89
ssg77
g3001
sg70
(lp3008
S'SERVER_PORT'
p3009
asbag63
(g84
g65
NtRp3010
(dp3011
g68
(dp3012
g95
g96
ssg77
g3001
sg70
(lp3013
S':'
asbag63
(g84
g65
NtRp3014
(dp3015
g68
(dp3016
sg77
g3001
sg70
(lp3017
g63
(g64
g65
NtRp3018
(dp3019
g68
(dp3020
g76
I3
ssg77
g3014
sg70
(lp3021
g1427
asbasbasbag63
(g79
g65
NtRp3022
(dp3023
g68
(dp3024
sg77
g2619
sg70
(lp3025
g63
(g84
g65
NtRp3026
(dp3027
g68
(dp3028
g88
g89
ssg77
g3022
sg70
(lp3029
S'SERVER_PROTOCOL'
p3030
asbag63
(g84
g65
NtRp3031
(dp3032
g68
(dp3033
g95
g96
ssg77
g3022
sg70
(lp3034
S':'
asbag63
(g84
g65
NtRp3035
(dp3036
g68
(dp3037
sg77
g3022
sg70
(lp3038
g63
(g64
g65
NtRp3039
(dp3040
g68
(dp3041
g76
I3
ssg77
g3035
sg70
(lp3042
g1449
asbasbasbag63
(g79
g65
NtRp3043
(dp3044
g68
(dp3045
sg77
g2619
sg70
(lp3046
g63
(g84
g65
NtRp3047
(dp3048
g68
(dp3049
g88
g89
ssg77
g3043
sg70
(lp3050
S'SERVER_SOFTWARE'
p3051
asbag63
(g84
g65
NtRp3052
(dp3053
g68
(dp3054
g95
g96
ssg77
g3043
sg70
(lp3055
S':'
asbag63
(g84
g65
NtRp3056
(dp3057
g68
(dp3058
sg77
g3043
sg70
(lp3059
g63
(g64
g65
NtRp3060
(dp3061
g68
(dp3062
g76
I3
ssg77
g3056
sg70
(lp3063
g1471
asbasbasbag63
(g79
g65
NtRp3064
(dp3065
g68
(dp3066
sg77
g2619
sg70
(lp3067
g63
(g84
g65
NtRp3068
(dp3069
g68
(dp3070
g88
g89
ssg77
g3064
sg70
(lp3071
S'wsgi.errors'
p3072
asbag63
(g84
g65
NtRp3073
(dp3074
g68
(dp3075
g95
g96
ssg77
g3064
sg70
(lp3076
S':'
asbag63
(g84
g65
NtRp3077
(dp3078
g68
(dp3079
sg77
g3064
sg70
(lp3080
g63
(g64
g65
NtRp3081
(dp3082
g68
(dp3083
g76
I3
ssg77
g3077
sg70
(lp3084
S"<open file '<stderr>', mode 'w' at 0x0000000001C761E0>"
p3085
asbasbasbag63
(g79
g65
NtRp3086
(dp3087
g68
(dp3088
sg77
g2619
sg70
(lp3089
g63
(g84
g65
NtRp3090
(dp3091
g68
(dp3092
g88
g89
ssg77
g3086
sg70
(lp3093
S'wsgi.file_wrapper'
p3094
asbag63
(g84
g65
NtRp3095
(dp3096
g68
(dp3097
g95
g96
ssg77
g3086
sg70
(lp3098
S':'
asbag63
(g84
g65
NtRp3099
(dp3100
g68
(dp3101
sg77
g3086
sg70
(lp3102
g63
(g64
g65
NtRp3103
(dp3104
g68
(dp3105
g76
I3
ssg77
g3099
sg70
(lp3106
S'<class wsgiref.util.FileWrapper at 0x000000000369CEE8>'
p3107
asbasbasbag63
(g79
g65
NtRp3108
(dp3109
g68
(dp3110
sg77
g2619
sg70
(lp3111
g63
(g84
g65
NtRp3112
(dp3113
g68
(dp3114
g88
g89
ssg77
g3108
sg70
(lp3115
S'wsgi.input'
p3116
asbag63
(g84
g65
NtRp3117
(dp3118
g68
(dp3119
g95
g96
ssg77
g3108
sg70
(lp3120
S':'
asbag63
(g84
g65
NtRp3121
(dp3122
g68
(dp3123
sg77
g3108
sg70
(lp3124
g63
(g64
g65
NtRp3125
(dp3126
g68
(dp3127
g76
I3
ssg77
g3121
sg70
(lp3128
S'<cStringIO.StringO object at 0x000000000885BE30>'
p3129
asbasbasbag63
(g79
g65
NtRp3130
(dp3131
g68
(dp3132
sg77
g2619
sg70
(lp3133
g63
(g84
g65
NtRp3134
(dp3135
g68
(dp3136
g88
g89
ssg77
g3130
sg70
(lp3137
S'wsgi.multiprocess'
p3138
asbag63
(g84
g65
NtRp3139
(dp3140
g68
(dp3141
g95
g96
ssg77
g3130
sg70
(lp3142
S':'
asbag63
(g84
g65
NtRp3143
(dp3144
g68
(dp3145
sg77
g3130
sg70
(lp3146
g63
(g64
g65
NtRp3147
(dp3148
g68
(dp3149
g76
I3
ssg77
g3143
sg70
(lp3150
g818
asbasbasbag63
(g79
g65
NtRp3151
(dp3152
g68
(dp3153
sg77
g2619
sg70
(lp3154
g63
(g84
g65
NtRp3155
(dp3156
g68
(dp3157
g88
g89
ssg77
g3151
sg70
(lp3158
S'wsgi.multithread'
p3159
asbag63
(g84
g65
NtRp3160
(dp3161
g68
(dp3162
g95
g96
ssg77
g3151
sg70
(lp3163
S':'
asbag63
(g84
g65
NtRp3164
(dp3165
g68
(dp3166
sg77
g3151
sg70
(lp3167
g63
(g64
g65
NtRp3168
(dp3169
g68
(dp3170
g76
I3
ssg77
g3164
sg70
(lp3171
g106
asbasbasbag63
(g79
g65
NtRp3172
(dp3173
g68
(dp3174
sg77
g2619
sg70
(lp3175
g63
(g84
g65
NtRp3176
(dp3177
g68
(dp3178
g88
g89
ssg77
g3172
sg70
(lp3179
S'wsgi.run_once'
p3180
asbag63
(g84
g65
NtRp3181
(dp3182
g68
(dp3183
g95
g96
ssg77
g3172
sg70
(lp3184
S':'
asbag63
(g84
g65
NtRp3185
(dp3186
g68
(dp3187
sg77
g3172
sg70
(lp3188
g63
(g64
g65
NtRp3189
(dp3190
g68
(dp3191
g76
I3
ssg77
g3185
sg70
(lp3192
g818
asbasbasbag63
(g79
g65
NtRp3193
(dp3194
g68
(dp3195
sg77
g2619
sg70
(lp3196
g63
(g84
g65
NtRp3197
(dp3198
g68
(dp3199
g88
g89
ssg77
g3193
sg70
(lp3200
S'wsgi.url_scheme'
p3201
asbag63
(g84
g65
NtRp3202
(dp3203
g68
(dp3204
g95
g96
ssg77
g3193
sg70
(lp3205
S':'
asbag63
(g84
g65
NtRp3206
(dp3207
g68
(dp3208
sg77
g3193
sg70
(lp3209
g63
(g64
g65
NtRp3210
(dp3211
g68
(dp3212
g76
I3
ssg77
g3206
sg70
(lp3213
g1730
asbasbasbag63
(g79
g65
NtRp3214
(dp3215
g68
(dp3216
sg77
g2619
sg70
(lp3217
g63
(g84
g65
NtRp3218
(dp3219
g68
(dp3220
g88
g89
ssg77
g3214
sg70
(lp3221
S'wsgi.version'
p3222
asbag63
(g84
g65
NtRp3223
(dp3224
g68
(dp3225
g95
g96
ssg77
g3214
sg70
(lp3226
S':'
asbag63
(g84
g65
NtRp3227
(dp3228
g68
(dp3229
sg77
g3214
sg70
(lp3230
g63
(g64
g65
NtRp3231
(dp3232
g68
(dp3233
g76
I3
ssg77
g3227
sg70
(lp3234
S'1'
asbasbasbasbasbasbasbasbasbasbasbasbasbsS'frames'
p3235
(lp3236
(dp3237
S'file'
p3238
S'D:\\Work\\webRTC\\web2py\\gluon\\restricted.py'
p3239
sS'dump'
p3240
(dp3241
S'environment'
p3242
S"{'A': <class 'gluon.html.A'>, 'Auth': <class 'gluon.tools.Auth'>, 'B': <class 'gluon.html.B'>, 'BEAUTIFY': <class 'gluon.html.BEAUTIFY'>, 'BODY': <class 'gluon.html.BODY'>, 'BR': <class 'gluon.html.BR'>, 'BUTTON': <class 'gluon.html.BUTTON'>, 'CAT': <class 'gluon.html.CAT'>, 'CENTER': <class 'gluon.html.CENTER'>, 'CLEANUP': <class 'gluon.validators.CLEANUP'>, ...}"
p3243
sS'ccode'
p3244
S'<code object <module> at 0000000008BAA0B0, file ...lications\\welcome\\controllers/webrtc.py", line 3>'
p3245
ssS'lnum'
p3246
I212
sS'lines'
p3247
(dp3248
I207
S'    try:'
p3249
sI208
S'        if isinstance(code, types.CodeType):'
p3250
sI209
S'            ccode = code'
p3251
sI210
S'        else:'
p3252
sI211
S'            ccode = compile2(code, layer)'
p3253
sI212
S'        exec ccode in environment'
p3254
sI213
S'    except HTTP:'
p3255
sI214
S'        raise'
p3256
sI215
S'    except RestrictedError:'
p3257
sI216
S'        # do not encapsulate (obfuscate) the original RestrictedError'
p3258
ssS'call'
p3259
S"(code='# coding: utf8\\n# try something like\\nhost_name = ...dict()\\n\\nresponse._vars=response._caller(connect)\\n', environment={'A': <class 'gluon.html.A'>, 'Auth': <class 'gluon.tools.Auth'>, 'B': <class 'gluon.html.B'>, 'BEAUTIFY': <class 'gluon.html.BEAUTIFY'>, 'BODY': <class 'gluon.html.BODY'>, 'BR': <class 'gluon.html.BR'>, 'BUTTON': <class 'gluon.html.BUTTON'>, 'CAT': <class 'gluon.html.CAT'>, 'CENTER': <class 'gluon.html.CENTER'>, 'CLEANUP': <class 'gluon.validators.CLEANUP'>, ...}, layer=r'D:\\Work\\webRTC\\web2py\\applications\\welcome\\controllers/webrtc.py')"
p3260
sS'func'
p3261
S'restricted'
p3262
sa(dp3263
g3238
S'D:\\Work\\webRTC\\web2py\\applications\\welcome\\controllers\\webrtc.py'
p3264
sg3240
(dp3265
sg3246
I24
sg3247
(dp3266
I13
S'    id = db.rtc.insert(access_token = key_gen)'
p3267
sI14
S'    relate_keys_db = db(db.rtc.id < id).select(db.rtc.access_token,limitby=(0, 2))'
p3268
sI15
S'    relate_keys = [str(item.access_token) for item in relate_keys_db]'
p3269
sI16
S'    return dict(host = host_name,access_token = key_gen,class_name=request.args[0],relate_keys= XML(relate_keys))'
p3270
sI17
S'def connect():'
p3271
sI18
S'   from gluon.contrib.websocket_messaging import websocket_send'
p3272
sI19
S"   websocket_send('http://'+host_name+':8888',request.vars.msg,'rtc',request.args[0])"
p3273
sI20
S'def demo():'
p3274
sI21
S"    response.files.append(URL('static','js/adapter.js'))"
p3275
sI22
S'    return dict()'
p3276
ssg3259
S'()'
p3277
sg3261
S'<module>'
p3278
sa(dp3279
g3238
S'D:\\Work\\webRTC\\web2py\\gluon\\globals.py'
p3280
sg3240
(dp3281
S'self'
p3282
S'undefined'
p3283
sS'f'
S'<function connect>'
p3284
ssg3246
I193
sg3247
(dp3285
I192
S'        self._vars = None'
p3286
sI193
S'        self._caller = lambda f: f()'
p3287
sI194
S'        self._view_environment = None'
p3288
sI195
S'        self._custom_commit = None'
p3289
sI196
S'        self._custom_rollback = None'
p3290
sI197
S''
sI188
S'        self.menu = []             # used by the default view layout'
p3291
sI189
S'        self.files = []            # used by web2py_ajax.html'
p3292
sI190
S'        self.generic_patterns = []  # patterns to allow generic views'
p3293
sI191
S"        self.delimiters = ('{{', '}}')"
p3294
ssg3259
S'(f=<function connect>)'
p3295
sg3261
S'<lambda>'
p3296
sa(dp3297
g3238
S'D:\\Work\\webRTC\\web2py\\applications\\welcome\\controllers\\webrtc.py'
p3298
sg3240
(dp3299
S'websocket_send'
p3300
S'<function websocket_send>'
p3301
sS'gluon'
p3302
g3283
ssg3246
I19
sg3247
(dp3303
I13
S'    id = db.rtc.insert(access_token = key_gen)'
p3304
sI14
S'    relate_keys_db = db(db.rtc.id < id).select(db.rtc.access_token,limitby=(0, 2))'
p3305
sI15
S'    relate_keys = [str(item.access_token) for item in relate_keys_db]'
p3306
sI16
S'    return dict(host = host_name,access_token = key_gen,class_name=request.args[0],relate_keys= XML(relate_keys))'
p3307
sI17
S'def connect():'
p3308
sI18
S'   from gluon.contrib.websocket_messaging import websocket_send'
p3309
sI19
S"   websocket_send('http://'+host_name+':8888',request.vars.msg,'rtc',request.args[0])"
p3310
sI20
S'def demo():'
p3311
sI21
S"    response.files.append(URL('static','js/adapter.js'))"
p3312
sI22
S'    return dict()'
p3313
ssg3259
S'()'
p3314
sg3261
S'connect'
p3315
sa(dp3316
g3238
S'D:\\Work\\webRTC\\web2py\\gluon\\contrib\\websocket_messaging.py'
p3317
sg3240
(dp3318
S'url'
p3319
S"'http://127.0.0.1:8888'"
p3320
sS'global urllib'
p3321
S"<module 'urllib' from 'd:\\python27\\lib\\urllib.pyc'>"
p3322
sS'urllib.urlopen'
p3323
S'<function urlopen>'
p3324
sS'params'
p3325
S"'message=%7B%22dest_key%22%3A%22a%22%2C%22access_...se0566&signature=b71dcbdf4736de8fab72c2293448997d'"
p3326
sS'f'
g3283
ssg3246
I92
sg3247
(dp3327
I96
S''
sI87
S''
sI88
S"def websocket_send(url, message, hmac_key=None, group='default'):"
p3328
sI89
S"    sig = hmac_key and hmac.new(hmac_key, message).hexdigest() or ''"
p3329
sI90
S'    params = urllib.urlencode('
p3330
sI91
S"        {'message': message, 'signature': sig, 'group': group})"
p3331
sI92
S'    f = urllib.urlopen(url, params)'
p3332
sI93
S'    data = f.read()'
p3333
sI94
S'    f.close()'
p3334
sI95
S'    return data'
p3335
ssg3259
S'(url=\'http://127.0.0.1:8888\', message=r\'{"dest_key":"a","access_token":"NTYyZjk3","type"...5 192.168.0.112 53611 typ host generation 0\\r\\n"}\', hmac_key=\'rtc\', group=\'se0566\')'
p3336
sg3261
S'websocket_send'
p3337
sa(dp3338
g3238
S'd:\\python27\\lib\\urllib.py'
p3339
sg3240
(dp3340
S'url'
p3341
S"'http://127.0.0.1:8888'"
p3342
sS'opener'
p3343
S'<gluon.contrib.autolinks.VimeoURLOpener instance>'
p3344
sS'data'
p3345
S"'message=%7B%22dest_key%22%3A%22a%22%2C%22access_...se0566&signature=b71dcbdf4736de8fab72c2293448997d'"
p3346
sS'opener.open'
p3347
S'<bound method VimeoURLOpener.open of <gluon.contrib.autolinks.VimeoURLOpener instance>>'
p3348
ssg3246
I88
sg3247
(dp3349
I83
S'    else:'
p3350
sI84
S'        opener = _urlopener'
p3351
sI85
S'    if data is None:'
p3352
sI86
S'        return opener.open(url)'
p3353
sI87
S'    else:'
p3354
sI88
S'        return opener.open(url, data)'
p3355
sI89
S'def urlretrieve(url, filename=None, reporthook=None, data=None):'
p3356
sI90
S'    global _urlopener'
p3357
sI91
S'    if not _urlopener:'
p3358
sI92
S'        _urlopener = FancyURLopener()'
p3359
ssg3259
S"(url='http://127.0.0.1:8888', data='message=%7B%22dest_key%22%3A%22a%22%2C%22access_...se0566&signature=b71dcbdf4736de8fab72c2293448997d', proxies=None)"
p3360
sg3261
S'urlopen'
p3361
sa(dp3362
g3238
S'd:\\python27\\lib\\urllib.py'
p3363
sg3240
(dp3364
S'url'
p3365
S"'//127.0.0.1:8888'"
p3366
sS'data'
p3367
S"'message=%7B%22dest_key%22%3A%22a%22%2C%22access_...se0566&signature=b71dcbdf4736de8fab72c2293448997d'"
p3368
sS'self'
p3369
S'<gluon.contrib.autolinks.VimeoURLOpener instance>'
p3370
sS'builtingetattr'
p3371
S'<built-in function getattr>'
p3372
sS'name'
p3373
S"'open_http'"
p3374
ssg3246
I209
sg3247
(dp3375
I204
S'                return self.open_unknown(fullurl, data)'
p3376
sI205
S'        try:'
p3377
sI206
S'            if data is None:'
p3378
sI207
S'                return getattr(self, name)(url)'
p3379
sI208
S'            else:'
p3380
sI209
S'                return getattr(self, name)(url, data)'
p3381
sI210
S'        except socket.error, msg:'
p3382
sI211
S"            raise IOError, ('socket error', msg), sys.exc_info()[2]"
p3383
sI212
S''
sI213
S'    def open_unknown(self, fullurl, data=None):'
p3384
ssg3259
S"(self=<gluon.contrib.autolinks.VimeoURLOpener instance>, fullurl='http://127.0.0.1:8888', data='message=%7B%22dest_key%22%3A%22a%22%2C%22access_...se0566&signature=b71dcbdf4736de8fab72c2293448997d')"
p3385
sg3261
S'open'
p3386
sa(dp3387
g3238
S'd:\\python27\\lib\\urllib.py'
p3388
sg3240
(dp3389
S'h'
S'<httplib.HTTP instance>'
p3390
sS'data'
p3391
S"'message=%7B%22dest_key%22%3A%22a%22%2C%22access_...se0566&signature=b71dcbdf4736de8fab72c2293448997d'"
p3392
sS'h.endheaders'
p3393
S'<bound method HTTPConnection.endheaders of <httplib.HTTPConnection instance>>'
p3394
ssg3246
I344
sg3247
(dp3395
I339
S"            h.putrequest('GET', selector)"
p3396
sI340
S"        if proxy_auth: h.putheader('Proxy-Authorization', 'Basic %s' % proxy_auth)"
p3397
sI341
S"        if auth: h.putheader('Authorization', 'Basic %s' % auth)"
p3398
sI342
S"        if realhost: h.putheader('Host', realhost)"
p3399
sI343
S'        for args in self.addheaders: h.putheader(*args)'
p3400
sI344
S'        h.endheaders(data)'
p3401
sI345
S'        errcode, errmsg, headers = h.getreply()'
p3402
sI346
S'        fp = h.getfile()'
p3403
sI347
S'        if errcode == -1:'
p3404
sI348
S'            if fp: fp.close()'
p3405
ssg3259
S"(self=<gluon.contrib.autolinks.VimeoURLOpener instance>, url='//127.0.0.1:8888', data='message=%7B%22dest_key%22%3A%22a%22%2C%22access_...se0566&signature=b71dcbdf4736de8fab72c2293448997d')"
p3406
sg3261
S'open_http'
p3407
sa(dp3408
g3238
S'd:\\python27\\lib\\httplib.py'
p3409
sg3240
(dp3410
S'message_body'
p3411
S"'message=%7B%22dest_key%22%3A%22a%22%2C%22access_...se0566&signature=b71dcbdf4736de8fab72c2293448997d'"
p3412
sS'self'
p3413
S'<httplib.HTTPConnection instance>'
p3414
sS'self._send_output'
p3415
S'<bound method HTTPConnection._send_output of <httplib.HTTPConnection instance>>'
p3416
ssg3246
I954
sg3247
(dp3417
I949
S'        """'
p3418
sI950
S'        if self.__state == _CS_REQ_STARTED:'
p3419
sI951
S'            self.__state = _CS_REQ_SENT'
p3420
sI952
S'        else:'
p3421
sI953
S'            raise CannotSendHeader()'
p3422
sI954
S'        self._send_output(message_body)'
p3423
sI955
S''
sI956
S'    def request(self, method, url, body=None, headers={}):'
p3424
sI957
S'        """Send a complete request to the server."""'
p3425
sI958
S'        self._send_request(method, url, body, headers)'
p3426
ssg3259
S"(self=<httplib.HTTPConnection instance>, message_body='message=%7B%22dest_key%22%3A%22a%22%2C%22access_...se0566&signature=b71dcbdf4736de8fab72c2293448997d')"
p3427
sg3261
S'endheaders'
p3428
sa(dp3429
g3238
S'd:\\python27\\lib\\httplib.py'
p3430
sg3240
(dp3431
S'msg'
p3432
S"'POST / HTTP/1.0\\r\\nContent-Type: application/x-www...se0566&signature=b71dcbdf4736de8fab72c2293448997d'"
p3433
sS'self'
p3434
S'<httplib.HTTPConnection instance>'
p3435
sS'self.send'
p3436
S'<bound method HTTPConnection.send of <httplib.HTTPConnection instance>>'
p3437
ssg3246
I814
sg3247
(dp3438
I809
S'        # it will avoid performance problems caused by the interaction'
p3439
sI810
S'        # between delayed ack and the Nagle algorithm.'
p3440
sI811
S'        if isinstance(message_body, str):'
p3441
sI812
S'            msg += message_body'
p3442
sI813
S'            message_body = None'
p3443
sI814
S'        self.send(msg)'
p3444
sI815
S'        if message_body is not None:'
p3445
sI816
S'            #message_body was not a string (i.e. it is a file) and'
p3446
sI817
S'            #we must run the risk of Nagle'
p3447
sI818
S'            self.send(message_body)'
p3448
ssg3259
S'(self=<httplib.HTTPConnection instance>, message_body=None)'
p3449
sg3261
S'_send_output'
p3450
sa(dp3451
g3238
S'd:\\python27\\lib\\httplib.py'
p3452
sg3240
(dp3453
S'self'
p3454
S'<httplib.HTTPConnection instance>'
p3455
sS'self.connect'
p3456
S'<bound method HTTPConnection.connect of <httplib.HTTPConnection instance>>'
p3457
ssg3246
I776
sg3247
(dp3458
I771
S''
sI772
S'    def send(self, data):'
p3459
sI773
S'        """Send `data\' to the server."""'
p3460
sI774
S'        if self.sock is None:'
p3461
sI775
S'            if self.auto_open:'
p3462
sI776
S'                self.connect()'
p3463
sI777
S'            else:'
p3464
sI778
S'                raise NotConnected()'
p3465
sI779
S''
sI780
S'        if self.debuglevel > 0:'
p3466
ssg3259
S"(self=<httplib.HTTPConnection instance>, data='POST / HTTP/1.0\\r\\nContent-Type: application/x-www...se0566&signature=b71dcbdf4736de8fab72c2293448997d')"
p3467
sg3261
S'send'
p3468
sa(dp3469
g3238
S'd:\\python27\\lib\\httplib.py'
p3470
sg3240
(dp3471
S'self.timeout'
p3472
S'<object object>'
p3473
sS'self'
p3474
S'<httplib.HTTPConnection instance>'
p3475
sS'self.source_address'
p3476
S'None'
p3477
ssg3246
I757
sg3247
(dp3478
I752
S''
sI753
S''
sI754
S'    def connect(self):'
p3479
sI755
S'        """Connect to the host and port specified in __init__."""'
p3480
sI756
S'        self.sock = socket.create_connection((self.host,self.port),'
p3481
sI757
S'                                             self.timeout, self.source_address)'
p3482
sI758
S''
sI759
S'        if self._tunnel_host:'
p3483
sI760
S'            self._tunnel()'
p3484
sI761
S''
ssg3259
S'(self=<httplib.HTTPConnection instance>)'
p3485
sg3261
g3315
sa(dp3486
g3238
S'd:\\python27\\lib\\socket.py'
p3487
sg3240
(dp3488
S'err'
p3489
S"error(10061, 'No connection could be made because the target machine actively refused it')"
p3490
ssg3246
I571
sg3247
(dp3491
I564
S''
sI565
S'        except error as _:'
p3492
sI566
S'            err = _'
p3493
sI567
S'            if sock is not None:'
p3494
sI568
S'                sock.close()'
p3495
sI569
S''
sI570
S'    if err is not None:'
p3496
sI571
S'        raise err'
p3497
sI572
S'    else:'
p3498
sI573
S'        raise error("getaddrinfo returns an empty list")'
p3499
ssg3259
S"(address=('127.0.0.1', 8888), timeout=<object object>, source_address=None)"
p3500
sg3261
S'create_connection'
p3501
sasS'pyver'
p3502
S'Python 2.7.3: d:\\python27\\python.exe\xa0'
p3503
sS'session'
p3504
g63
(g64
g65
NtRp3505
(dp3506
g68
(dp3507
sg70
(lp3508
g63
(g72
g65
NtRp3509
(dp3510
g68
(dp3511
g76
I5
ssg77
Nsg70
(lp3512
g63
(g79
g65
NtRp3513
(dp3514
g68
(dp3515
sg77
g3509
sg70
(lp3516
g63
(g84
g65
NtRp3517
(dp3518
g68
(dp3519
g88
g89
ssg77
g3513
sg70
(lp3520
S'flash'
p3521
asbag63
(g84
g65
NtRp3522
(dp3523
g68
(dp3524
g95
g96
ssg77
g3513
sg70
(lp3525
S':'
asbag63
(g84
g65
NtRp3526
(dp3527
g68
(dp3528
sg77
g3513
sg70
(lp3529
g63
(g64
g65
NtRp3530
(dp3531
g68
(dp3532
g76
I5
ssg77
g3526
sg70
(lp3533
S'None'
p3534
asbasbasbag63
(g79
g65
NtRp3535
(dp3536
g68
(dp3537
sg77
g3509
sg70
(lp3538
g63
(g84
g65
NtRp3539
(dp3540
g68
(dp3541
g88
g89
ssg77
g3535
sg70
(lp3542
S'last_orderby'
p3543
asbag63
(g84
g65
NtRp3544
(dp3545
g68
(dp3546
g95
g96
ssg77
g3535
sg70
(lp3547
S':'
asbag63
(g84
g65
NtRp3548
(dp3549
g68
(dp3550
sg77
g3535
sg70
(lp3551
g63
(g64
g65
NtRp3552
(dp3553
g68
(dp3554
g76
I5
ssg77
g3548
sg70
(lp3555
S'None'
p3556
asbasbasbag63
(g79
g65
NtRp3557
(dp3558
g68
(dp3559
sg77
g3509
sg70
(lp3560
g63
(g84
g65
NtRp3561
(dp3562
g68
(dp3563
g88
g89
ssg77
g3557
sg70
(lp3564
S'last_query'
p3565
asbag63
(g84
g65
NtRp3566
(dp3567
g68
(dp3568
g95
g96
ssg77
g3557
sg70
(lp3569
S':'
asbag63
(g84
g65
NtRp3570
(dp3571
g68
(dp3572
sg77
g3557
sg70
(lp3573
g63
(g64
g65
NtRp3574
(dp3575
g68
(dp3576
g76
I5
ssg77
g3570
sg70
(lp3577
S'db.rtc.id>0'
p3578
asbasbasbasbasbsS'etype'
p3579
S"<type 'exceptions.IOError'>"
p3580
sS'date'
p3581
S'Tue Jan 29 12:49:08 2013'
p3582
sS'response'
p3583
g63
(g64
g65
NtRp3584
(dp3585
g68
(dp3586
sg70
(lp3587
g63
(g72
g65
NtRp3588
(dp3589
g68
(dp3590
g76
I5
ssg77
Nsg70
(lp3591
g63
(g79
g65
NtRp3592
(dp3593
g68
(dp3594
sg77
g3588
sg70
(lp3595
g63
(g84
g65
NtRp3596
(dp3597
g68
(dp3598
g88
g89
ssg77
g3592
sg70
(lp3599
g174
asbag63
(g84
g65
NtRp3600
(dp3601
g68
(dp3602
g95
g96
ssg77
g3592
sg70
(lp3603
S':'
asbag63
(g84
g65
NtRp3604
(dp3605
g68
(dp3606
sg77
g3592
sg70
(lp3607
g63
(g64
g65
NtRp3608
(dp3609
g68
(dp3610
g76
I5
ssg77
g3604
sg70
(lp3611
S'<cStringIO.StringO object at 0x00000000055744C8>'
p3612
asbasbasbag63
(g79
g65
NtRp3613
(dp3614
g68
(dp3615
sg77
g3588
sg70
(lp3616
g63
(g84
g65
NtRp3617
(dp3618
g68
(dp3619
g88
g89
ssg77
g3613
sg70
(lp3620
g262
asbag63
(g84
g65
NtRp3621
(dp3622
g68
(dp3623
g95
g96
ssg77
g3613
sg70
(lp3624
S':'
asbag63
(g84
g65
NtRp3625
(dp3626
g68
(dp3627
sg77
g3613
sg70
(lp3628
g63
(g64
g65
NtRp3629
(dp3630
g68
(dp3631
g76
I5
ssg77
g3625
sg70
(lp3632
g63
(g72
g65
NtRp3633
(dp3634
g68
(dp3635
g76
I4
ssg77
Nsg70
(lp3636
g63
(g79
g65
NtRp3637
(dp3638
g68
(dp3639
sg77
g3633
sg70
(lp3640
g63
(g84
g65
NtRp3641
(dp3642
g68
(dp3643
g88
g89
ssg77
g3637
sg70
(lp3644
S'session_id_welcome'
p3645
asbag63
(g84
g65
NtRp3646
(dp3647
g68
(dp3648
g95
g96
ssg77
g3637
sg70
(lp3649
S':'
asbag63
(g84
g65
NtRp3650
(dp3651
g68
(dp3652
sg77
g3637
sg70
(lp3653
g63
(g64
g65
NtRp3654
(dp3655
g68
(dp3656
g76
I4
ssg77
g3650
sg70
(lp3657
g494
ag63
(g72
g65
NtRp3658
(dp3659
g68
(dp3660
g76
I3
ssg77
Nsg70
(lp3661
g63
(g79
g65
NtRp3662
(dp3663
g68
(dp3664
sg77
g3658
sg70
(lp3665
g63
(g84
g65
NtRp3666
(dp3667
g68
(dp3668
g88
g89
ssg77
g3662
sg70
(lp3669
g313
asbag63
(g84
g65
NtRp3670
(dp3671
g68
(dp3672
g95
g96
ssg77
g3662
sg70
(lp3673
S':'
asbag63
(g84
g65
NtRp3674
(dp3675
g68
(dp3676
sg77
g3662
sg70
(lp3677
g63
(g64
g65
NtRp3678
(dp3679
g68
(dp3680
g76
I3
ssg77
g3674
sg70
(lp3681
S''
asbasbasbag63
(g79
g65
NtRp3682
(dp3683
g68
(dp3684
sg77
g3658
sg70
(lp3685
g63
(g84
g65
NtRp3686
(dp3687
g68
(dp3688
g88
g89
ssg77
g3682
sg70
(lp3689
g334
asbag63
(g84
g65
NtRp3690
(dp3691
g68
(dp3692
g95
g96
ssg77
g3682
sg70
(lp3693
S':'
asbag63
(g84
g65
NtRp3694
(dp3695
g68
(dp3696
sg77
g3682
sg70
(lp3697
g63
(g64
g65
NtRp3698
(dp3699
g68
(dp3700
g76
I3
ssg77
g3694
sg70
(lp3701
S''
asbasbasbag63
(g79
g65
NtRp3702
(dp3703
g68
(dp3704
sg77
g3658
sg70
(lp3705
g63
(g84
g65
NtRp3706
(dp3707
g68
(dp3708
g88
g89
ssg77
g3702
sg70
(lp3709
g355
asbag63
(g84
g65
NtRp3710
(dp3711
g68
(dp3712
g95
g96
ssg77
g3702
sg70
(lp3713
S':'
asbag63
(g84
g65
NtRp3714
(dp3715
g68
(dp3716
sg77
g3702
sg70
(lp3717
g63
(g64
g65
NtRp3718
(dp3719
g68
(dp3720
g76
I3
ssg77
g3714
sg70
(lp3721
S''
asbasbasbag63
(g79
g65
NtRp3722
(dp3723
g68
(dp3724
sg77
g3658
sg70
(lp3725
g63
(g84
g65
NtRp3726
(dp3727
g68
(dp3728
g88
g89
ssg77
g3722
sg70
(lp3729
g376
asbag63
(g84
g65
NtRp3730
(dp3731
g68
(dp3732
g95
g96
ssg77
g3722
sg70
(lp3733
S':'
asbag63
(g84
g65
NtRp3734
(dp3735
g68
(dp3736
sg77
g3722
sg70
(lp3737
g63
(g64
g65
NtRp3738
(dp3739
g68
(dp3740
g76
I3
ssg77
g3734
sg70
(lp3741
S''
asbasbasbag63
(g79
g65
NtRp3742
(dp3743
g68
(dp3744
sg77
g3658
sg70
(lp3745
g63
(g84
g65
NtRp3746
(dp3747
g68
(dp3748
g88
g89
ssg77
g3742
sg70
(lp3749
g397
asbag63
(g84
g65
NtRp3750
(dp3751
g68
(dp3752
g95
g96
ssg77
g3742
sg70
(lp3753
S':'
asbag63
(g84
g65
NtRp3754
(dp3755
g68
(dp3756
sg77
g3742
sg70
(lp3757
g63
(g64
g65
NtRp3758
(dp3759
g68
(dp3760
g76
I3
ssg77
g3754
sg70
(lp3761
S''
asbasbasbag63
(g79
g65
NtRp3762
(dp3763
g68
(dp3764
sg77
g3658
sg70
(lp3765
g63
(g84
g65
NtRp3766
(dp3767
g68
(dp3768
g88
g89
ssg77
g3762
sg70
(lp3769
g418
asbag63
(g84
g65
NtRp3770
(dp3771
g68
(dp3772
g95
g96
ssg77
g3762
sg70
(lp3773
S':'
asbag63
(g84
g65
NtRp3774
(dp3775
g68
(dp3776
sg77
g3762
sg70
(lp3777
g63
(g64
g65
NtRp3778
(dp3779
g68
(dp3780
g76
I3
ssg77
g3774
sg70
(lp3781
S'/'
asbasbasbag63
(g79
g65
NtRp3782
(dp3783
g68
(dp3784
sg77
g3658
sg70
(lp3785
g63
(g84
g65
NtRp3786
(dp3787
g68
(dp3788
g88
g89
ssg77
g3782
sg70
(lp3789
g439
asbag63
(g84
g65
NtRp3790
(dp3791
g68
(dp3792
g95
g96
ssg77
g3782
sg70
(lp3793
S':'
asbag63
(g84
g65
NtRp3794
(dp3795
g68
(dp3796
sg77
g3782
sg70
(lp3797
g63
(g64
g65
NtRp3798
(dp3799
g68
(dp3800
g76
I3
ssg77
g3794
sg70
(lp3801
S''
asbasbasbag63
(g79
g65
NtRp3802
(dp3803
g68
(dp3804
sg77
g3658
sg70
(lp3805
g63
(g84
g65
NtRp3806
(dp3807
g68
(dp3808
g88
g89
ssg77
g3802
sg70
(lp3809
g460
asbag63
(g84
g65
NtRp3810
(dp3811
g68
(dp3812
g95
g96
ssg77
g3802
sg70
(lp3813
S':'
asbag63
(g84
g65
NtRp3814
(dp3815
g68
(dp3816
sg77
g3802
sg70
(lp3817
g63
(g64
g65
NtRp3818
(dp3819
g68
(dp3820
g76
I3
ssg77
g3814
sg70
(lp3821
S''
asbasbasbasbasbasbasbasbasbasbasbag63
(g79
g65
NtRp3822
(dp3823
g68
(dp3824
sg77
g3588
sg70
(lp3825
g63
(g84
g65
NtRp3826
(dp3827
g68
(dp3828
g88
g89
ssg77
g3822
sg70
(lp3829
S'delimiters'
p3830
asbag63
(g84
g65
NtRp3831
(dp3832
g68
(dp3833
g95
g96
ssg77
g3822
sg70
(lp3834
S':'
asbag63
(g84
g65
NtRp3835
(dp3836
g68
(dp3837
sg77
g3822
sg70
(lp3838
g63
(g64
g65
NtRp3839
(dp3840
g68
(dp3841
g76
I5
ssg77
g3835
sg70
(lp3842
g63
(g72
g65
NtRp3843
(dp3844
g68
(dp3845
g76
I4
ssg77
Nsg70
(lp3846
g63
(g79
g65
NtRp3847
(dp3848
g68
(dp3849
sg77
g3843
sg70
(lp3850
g63
(g84
g65
NtRp3851
(dp3852
g68
(dp3853
sg77
g3847
sg70
(lp3854
g63
(g64
g65
NtRp3855
(dp3856
g68
(dp3857
g76
I4
ssg77
g3851
sg70
(lp3858
S'{{'
p3859
asbasbasbag63
(g79
g65
NtRp3860
(dp3861
g68
(dp3862
sg77
g3843
sg70
(lp3863
g63
(g84
g65
NtRp3864
(dp3865
g68
(dp3866
sg77
g3860
sg70
(lp3867
g63
(g64
g65
NtRp3868
(dp3869
g68
(dp3870
g76
I4
ssg77
g3864
sg70
(lp3871
S'}}'
p3872
asbasbasbasbasbasbasbag63
(g79
g65
NtRp3873
(dp3874
g68
(dp3875
sg77
g3588
sg70
(lp3876
g63
(g84
g65
NtRp3877
(dp3878
g68
(dp3879
g88
g89
ssg77
g3873
sg70
(lp3880
S'files'
p3881
asbag63
(g84
g65
NtRp3882
(dp3883
g68
(dp3884
g95
g96
ssg77
g3873
sg70
(lp3885
S':'
asbag63
(g84
g65
NtRp3886
(dp3887
g68
(dp3888
sg77
g3873
sg70
(lp3889
g63
(g64
g65
NtRp3890
(dp3891
g68
(dp3892
g76
I5
ssg77
g3886
sg70
(lp3893
g63
(g72
g65
NtRp3894
(dp3895
g68
(dp3896
g76
I4
ssg77
Nsg70
(lp3897
sbasbasbasbag63
(g79
g65
NtRp3898
(dp3899
g68
(dp3900
sg77
g3588
sg70
(lp3901
g63
(g84
g65
NtRp3902
(dp3903
g68
(dp3904
g88
g89
ssg77
g3898
sg70
(lp3905
S'flash'
p3906
asbag63
(g84
g65
NtRp3907
(dp3908
g68
(dp3909
g95
g96
ssg77
g3898
sg70
(lp3910
S':'
asbag63
(g84
g65
NtRp3911
(dp3912
g68
(dp3913
sg77
g3898
sg70
(lp3914
g63
(g64
g65
NtRp3915
(dp3916
g68
(dp3917
g76
I5
ssg77
g3911
sg70
(lp3918
S''
asbasbasbag63
(g79
g65
NtRp3919
(dp3920
g68
(dp3921
sg77
g3588
sg70
(lp3922
g63
(g84
g65
NtRp3923
(dp3924
g68
(dp3925
g88
g89
ssg77
g3919
sg70
(lp3926
S'generic_patterns'
p3927
asbag63
(g84
g65
NtRp3928
(dp3929
g68
(dp3930
g95
g96
ssg77
g3919
sg70
(lp3931
S':'
asbag63
(g84
g65
NtRp3932
(dp3933
g68
(dp3934
sg77
g3919
sg70
(lp3935
g63
(g64
g65
NtRp3936
(dp3937
g68
(dp3938
g76
I5
ssg77
g3932
sg70
(lp3939
g63
(g72
g65
NtRp3940
(dp3941
g68
(dp3942
g76
I4
ssg77
Nsg70
(lp3943
g63
(g79
g65
NtRp3944
(dp3945
g68
(dp3946
sg77
g3940
sg70
(lp3947
g63
(g84
g65
NtRp3948
(dp3949
g68
(dp3950
sg77
g3944
sg70
(lp3951
g63
(g64
g65
NtRp3952
(dp3953
g68
(dp3954
g76
I4
ssg77
g3948
sg70
(lp3955
S'*'
asbasbasbasbasbasbasbag63
(g79
g65
NtRp3956
(dp3957
g68
(dp3958
sg77
g3588
sg70
(lp3959
g63
(g84
g65
NtRp3960
(dp3961
g68
(dp3962
g88
g89
ssg77
g3956
sg70
(lp3963
S'google_analytics_id'
p3964
asbag63
(g84
g65
NtRp3965
(dp3966
g68
(dp3967
g95
g96
ssg77
g3956
sg70
(lp3968
S':'
asbag63
(g84
g65
NtRp3969
(dp3970
g68
(dp3971
sg77
g3956
sg70
(lp3972
g63
(g64
g65
NtRp3973
(dp3974
g68
(dp3975
g76
I5
ssg77
g3969
sg70
(lp3976
S'None'
p3977
asbasbasbag63
(g79
g65
NtRp3978
(dp3979
g68
(dp3980
sg77
g3588
sg70
(lp3981
g63
(g84
g65
NtRp3982
(dp3983
g68
(dp3984
g88
g89
ssg77
g3978
sg70
(lp3985
S'headers'
p3986
asbag63
(g84
g65
NtRp3987
(dp3988
g68
(dp3989
g95
g96
ssg77
g3978
sg70
(lp3990
S':'
asbag63
(g84
g65
NtRp3991
(dp3992
g68
(dp3993
sg77
g3978
sg70
(lp3994
g63
(g64
g65
NtRp3995
(dp3996
g68
(dp3997
g76
I5
ssg77
g3991
sg70
(lp3998
g63
(g72
g65
NtRp3999
(dp4000
g68
(dp4001
g76
I4
ssg77
Nsg70
(lp4002
g63
(g79
g65
NtRp4003
(dp4004
g68
(dp4005
sg77
g3999
sg70
(lp4006
g63
(g84
g65
NtRp4007
(dp4008
g68
(dp4009
g88
g89
ssg77
g4003
sg70
(lp4010
S'X-Powered-By'
p4011
asbag63
(g84
g65
NtRp4012
(dp4013
g68
(dp4014
g95
g96
ssg77
g4003
sg70
(lp4015
S':'
asbag63
(g84
g65
NtRp4016
(dp4017
g68
(dp4018
sg77
g4003
sg70
(lp4019
g63
(g64
g65
NtRp4020
(dp4021
g68
(dp4022
g76
I4
ssg77
g4016
sg70
(lp4023
S'web2py'
p4024
asbasbasbasbasbasbasbag63
(g79
g65
NtRp4025
(dp4026
g68
(dp4027
sg77
g3588
sg70
(lp4028
g63
(g84
g65
NtRp4029
(dp4030
g68
(dp4031
g88
g89
ssg77
g4025
sg70
(lp4032
S'logo'
p4033
asbag63
(g84
g65
NtRp4034
(dp4035
g68
(dp4036
g95
g96
ssg77
g4025
sg70
(lp4037
S':'
asbag63
(g84
g65
NtRp4038
(dp4039
g68
(dp4040
sg77
g4025
sg70
(lp4041
g63
(g64
g65
NtRp4042
(dp4043
g68
(dp4044
g76
I5
ssg77
g4038
sg70
(lp4045
g63
(cgluon.html
A
p4046
g65
NtRp4047
(dp4048
g68
(dp4049
S'_class'
p4050
S'brand'
p4051
sS'_href'
p4052
S'http://www.web2py.com/'
p4053
ssg77
Nsg70
(lp4054
g63
(cgluon.html
B
p4055
g65
NtRp4056
(dp4057
g68
(dp4058
sg77
g4047
sg70
(lp4059
S'web'
p4060
ag63
(cgluon.html
SPAN
p4061
g65
NtRp4062
(dp4063
g68
(dp4064
sg77
g4056
sg70
(lp4065
I2
asbaS'py'
p4066
asbacgluon.html
XML_unpickle
p4067
(S's\r\x00\x00\x00&trade;&nbsp;'
tRp4068
asbasbasbasbag63
(g79
g65
NtRp4069
(dp4070
g68
(dp4071
sg77
g3588
sg70
(lp4072
g63
(g84
g65
NtRp4073
(dp4074
g68
(dp4075
g88
g89
ssg77
g4069
sg70
(lp4076
S'menu'
p4077
asbag63
(g84
g65
NtRp4078
(dp4079
g68
(dp4080
g95
g96
ssg77
g4069
sg70
(lp4081
S':'
asbag63
(g84
g65
NtRp4082
(dp4083
g68
(dp4084
sg77
g4069
sg70
(lp4085
g63
(g64
g65
NtRp4086
(dp4087
g68
(dp4088
g76
I5
ssg77
g4082
sg70
(lp4089
g63
(g72
g65
NtRp4090
(dp4091
g68
(dp4092
g76
I4
ssg77
Nsg70
(lp4093
g63
(g79
g65
NtRp4094
(dp4095
g68
(dp4096
sg77
g4090
sg70
(lp4097
g63
(g84
g65
NtRp4098
(dp4099
g68
(dp4100
sg77
g4094
sg70
(lp4101
g63
(g64
g65
NtRp4102
(dp4103
g68
(dp4104
g76
I4
ssg77
g4098
sg70
(lp4105
g63
(g72
g65
NtRp4106
(dp4107
g68
(dp4108
g76
I3
ssg77
Nsg70
(lp4109
g63
(g79
g65
NtRp4110
(dp4111
g68
(dp4112
sg77
g4106
sg70
(lp4113
g63
(g84
g65
NtRp4114
(dp4115
g68
(dp4116
sg77
g4110
sg70
(lp4117
g63
(g64
g65
NtRp4118
(dp4119
g68
(dp4120
g76
I3
ssg77
g4114
sg70
(lp4121
cgluon.languages
lazyT_unpickle
p4122
(S's\x04\x00\x00\x00Home'
tRp4123
asbasbasbag63
(g79
g65
NtRp4124
(dp4125
g68
(dp4126
sg77
g4106
sg70
(lp4127
g63
(g84
g65
NtRp4128
(dp4129
g68
(dp4130
sg77
g4124
sg70
(lp4131
g63
(g64
g65
NtRp4132
(dp4133
g68
(dp4134
g76
I3
ssg77
g4128
sg70
(lp4135
g818
asbasbasbag63
(g79
g65
NtRp4136
(dp4137
g68
(dp4138
sg77
g4106
sg70
(lp4139
g63
(g84
g65
NtRp4140
(dp4141
g68
(dp4142
sg77
g4136
sg70
(lp4143
g63
(g64
g65
NtRp4144
(dp4145
g68
(dp4146
g76
I3
ssg77
g4140
sg70
(lp4147
S'/welcome/default/index'
p4148
asbasbasbag63
(g79
g65
NtRp4149
(dp4150
g68
(dp4151
sg77
g4106
sg70
(lp4152
g63
(g84
g65
NtRp4153
(dp4154
g68
(dp4155
sg77
g4149
sg70
(lp4156
g63
(g64
g65
NtRp4157
(dp4158
g68
(dp4159
g76
I3
ssg77
g4153
sg70
(lp4160
g63
(g72
g65
NtRp4161
(dp4162
g68
(dp4163
g76
I2
ssg77
Nsg70
(lp4164
sbasbasbasbasbasbasbasbag63
(g79
g65
NtRp4165
(dp4166
g68
(dp4167
sg77
g4090
sg70
(lp4168
g63
(g84
g65
NtRp4169
(dp4170
g68
(dp4171
sg77
g4165
sg70
(lp4172
g63
(g64
g65
NtRp4173
(dp4174
g68
(dp4175
g76
I4
ssg77
g4169
sg70
(lp4176
g63
(g72
g65
NtRp4177
(dp4178
g68
(dp4179
g76
I3
ssg77
Nsg70
(lp4180
g63
(g79
g65
NtRp4181
(dp4182
g68
(dp4183
sg77
g4177
sg70
(lp4184
g63
(g84
g65
NtRp4185
(dp4186
g68
(dp4187
sg77
g4181
sg70
(lp4188
g63
(g64
g65
NtRp4189
(dp4190
g68
(dp4191
g76
I3
ssg77
g4185
sg70
(lp4192
g63
(g4061
g65
NtRp4193
(dp4194
g68
(dp4195
g4050
S'highlighted'
p4196
ssg77
Nsg70
(lp4197
g4024
asbasbasbasbag63
(g79
g65
NtRp4198
(dp4199
g68
(dp4200
sg77
g4177
sg70
(lp4201
g63
(g84
g65
NtRp4202
(dp4203
g68
(dp4204
sg77
g4198
sg70
(lp4205
g63
(g64
g65
NtRp4206
(dp4207
g68
(dp4208
g76
I3
ssg77
g4202
sg70
(lp4209
g818
asbasbasbag63
(g79
g65
NtRp4210
(dp4211
g68
(dp4212
sg77
g4177
sg70
(lp4213
g63
(g84
g65
NtRp4214
(dp4215
g68
(dp4216
sg77
g4210
sg70
(lp4217
g63
(g64
g65
NtRp4218
(dp4219
g68
(dp4220
g76
I3
ssg77
g4214
sg70
(lp4221
S'http://web2py.com'
p4222
asbasbasbag63
(g79
g65
NtRp4223
(dp4224
g68
(dp4225
sg77
g4177
sg70
(lp4226
g63
(g84
g65
NtRp4227
(dp4228
g68
(dp4229
sg77
g4223
sg70
(lp4230
g63
(g64
g65
NtRp4231
(dp4232
g68
(dp4233
g76
I3
ssg77
g4227
sg70
(lp4234
g63
(g72
g65
NtRp4235
(dp4236
g68
(dp4237
g76
I2
ssg77
Nsg70
(lp4238
g63
(g79
g65
NtRp4239
(dp4240
g68
(dp4241
sg77
g4235
sg70
(lp4242
g63
(g84
g65
NtRp4243
(dp4244
g68
(dp4245
sg77
g4239
sg70
(lp4246
g63
(g64
g65
NtRp4247
(dp4248
g68
(dp4249
g76
I2
ssg77
g4243
sg70
(lp4250
g63
(g72
g65
NtRp4251
(dp4252
g68
(dp4253
g76
I1
ssg77
Nsg70
(lp4254
g63
(g79
g65
NtRp4255
(dp4256
g68
(dp4257
sg77
g4251
sg70
(lp4258
g63
(g84
g65
NtRp4259
(dp4260
g68
(dp4261
sg77
g4255
sg70
(lp4262
g63
(g64
g65
NtRp4263
(dp4264
g68
(dp4265
g76
I1
ssg77
g4259
sg70
(lp4266
g4122
(S's\x08\x00\x00\x00My Sites'
tRp4267
asbasbasbag63
(g79
g65
NtRp4268
(dp4269
g68
(dp4270
sg77
g4251
sg70
(lp4271
g63
(g84
g65
NtRp4272
(dp4273
g68
(dp4274
sg77
g4268
sg70
(lp4275
g63
(g64
g65
NtRp4276
(dp4277
g68
(dp4278
g76
I1
ssg77
g4272
sg70
(lp4279
I00
asbasbasbag63
(g79
g65
NtRp4280
(dp4281
g68
(dp4282
sg77
g4251
sg70
(lp4283
g63
(g84
g65
NtRp4284
(dp4285
g68
(dp4286
sg77
g4280
sg70
(lp4287
g63
(g64
g65
NtRp4288
(dp4289
g68
(dp4290
g76
I1
ssg77
g4284
sg70
(lp4291
S'/admin/default/site'
p4292
asbasbasbasbasbasbasbag63
(g79
g65
NtRp4293
(dp4294
g68
(dp4295
sg77
g4235
sg70
(lp4296
g63
(g84
g65
NtRp4297
(dp4298
g68
(dp4299
sg77
g4293
sg70
(lp4300
g63
(g64
g65
NtRp4301
(dp4302
g68
(dp4303
g76
I2
ssg77
g4297
sg70
(lp4304
g63
(g72
g65
NtRp4305
(dp4306
g68
(dp4307
g76
I1
ssg77
Nsg70
(lp4308
g63
(g79
g65
NtRp4309
(dp4310
g68
(dp4311
sg77
g4305
sg70
(lp4312
g63
(g84
g65
NtRp4313
(dp4314
g68
(dp4315
sg77
g4309
sg70
(lp4316
g63
(g64
g65
NtRp4317
(dp4318
g68
(dp4319
g76
I1
ssg77
g4313
sg70
(lp4320
g4122
(S's\x08\x00\x00\x00This App'
tRp4321
asbasbasbag63
(g79
g65
NtRp4322
(dp4323
g68
(dp4324
sg77
g4305
sg70
(lp4325
g63
(g84
g65
NtRp4326
(dp4327
g68
(dp4328
sg77
g4322
sg70
(lp4329
g63
(g64
g65
NtRp4330
(dp4331
g68
(dp4332
g76
I1
ssg77
g4326
sg70
(lp4333
I00
asbasbasbag63
(g79
g65
NtRp4334
(dp4335
g68
(dp4336
sg77
g4305
sg70
(lp4337
g63
(g84
g65
NtRp4338
(dp4339
g68
(dp4340
sg77
g4334
sg70
(lp4341
g63
(g64
g65
NtRp4342
(dp4343
g68
(dp4344
g76
I1
ssg77
g4338
sg70
(lp4345
S'/admin/default/design/welcome'
p4346
asbasbasbag63
(g79
g65
NtRp4347
(dp4348
g68
(dp4349
sg77
g4305
sg70
(lp4350
g63
(g84
g65
NtRp4351
(dp4352
g68
(dp4353
sg77
g4347
sg70
(lp4354
g63
(g64
g65
NtRp4355
(dp4356
g68
(dp4357
g76
I1
ssg77
g4351
sg70
(lp4358
(lp4359
(g4122
(S's\n\x00\x00\x00Controller'
tRp4360
I00
S'/admin/default/edit/welcome/controllers/webrtc.py'
tp4361
a(g4122
(S's\x04\x00\x00\x00View'
tRp4362
I00
S'/admin/default/edit/welcome/views/webrtc/connect.html'
tp4363
a(g4122
(S's\x06\x00\x00\x00Layout'
tRp4364
I00
S'/admin/default/edit/welcome/views/layout.html'
tp4365
a(g4122
(S's\n\x00\x00\x00Stylesheet'
tRp4366
I00
S'/admin/default/edit/welcome/static/css/web2py.css'
tp4367
a(g4122
(S's\x08\x00\x00\x00DB Model'
tRp4368
I00
S'/admin/default/edit/welcome/models/db.py'
tp4369
a(g4122
(S's\n\x00\x00\x00Menu Model'
tRp4370
I00
S'/admin/default/edit/welcome/models/menu.py'
tp4371
a(g4122
(S's\x08\x00\x00\x00Database'
tRp4372
I00
S'/welcome/appadmin/index'
tp4373
a(g4122
(S's\x06\x00\x00\x00Errors'
tRp4374
I00
S'/admin/default/errors/welcome'
tp4375
a(g4122
(S's\x05\x00\x00\x00About'
tRp4376
I00
S'/admin/default/about/welcome'
tp4377
aasbasbasbasbasbasbasbag63
(g79
g65
NtRp4378
(dp4379
g68
(dp4380
sg77
g4235
sg70
(lp4381
g63
(g84
g65
NtRp4382
(dp4383
g68
(dp4384
sg77
g4378
sg70
(lp4385
g63
(g64
g65
NtRp4386
(dp4387
g68
(dp4388
g76
I2
ssg77
g4382
sg70
(lp4389
g63
(g72
g65
NtRp4390
(dp4391
g68
(dp4392
g76
I1
ssg77
Nsg70
(lp4393
g63
(g79
g65
NtRp4394
(dp4395
g68
(dp4396
sg77
g4390
sg70
(lp4397
g63
(g84
g65
NtRp4398
(dp4399
g68
(dp4400
sg77
g4394
sg70
(lp4401
g63
(g64
g65
NtRp4402
(dp4403
g68
(dp4404
g76
I1
ssg77
g4398
sg70
(lp4405
S'web2py.com'
p4406
asbasbasbag63
(g79
g65
NtRp4407
(dp4408
g68
(dp4409
sg77
g4390
sg70
(lp4410
g63
(g84
g65
NtRp4411
(dp4412
g68
(dp4413
sg77
g4407
sg70
(lp4414
g63
(g64
g65
NtRp4415
(dp4416
g68
(dp4417
g76
I1
ssg77
g4411
sg70
(lp4418
I00
asbasbasbag63
(g79
g65
NtRp4419
(dp4420
g68
(dp4421
sg77
g4390
sg70
(lp4422
g63
(g84
g65
NtRp4423
(dp4424
g68
(dp4425
sg77
g4419
sg70
(lp4426
g63
(g64
g65
NtRp4427
(dp4428
g68
(dp4429
g76
I1
ssg77
g4423
sg70
(lp4430
S'http://www.web2py.com'
p4431
asbasbasbag63
(g79
g65
NtRp4432
(dp4433
g68
(dp4434
sg77
g4390
sg70
(lp4435
g63
(g84
g65
NtRp4436
(dp4437
g68
(dp4438
sg77
g4432
sg70
(lp4439
g63
(g64
g65
NtRp4440
(dp4441
g68
(dp4442
g76
I1
ssg77
g4436
sg70
(lp4443
(lp4444
(g4122
(S's\x08\x00\x00\x00Download'
tRp4445
I00
S'http://www.web2py.com/examples/default/download'
p4446
tp4447
a(g4122
(S's\x07\x00\x00\x00Support'
tRp4448
I00
S'http://www.web2py.com/examples/default/support'
p4449
tp4450
a(g4122
(S's\x04\x00\x00\x00Demo'
tRp4451
I00
S'http://web2py.com/demo_admin'
p4452
tp4453
a(g4122
(S's\x0e\x00\x00\x00Quick Examples'
tRp4454
I00
S'http://web2py.com/examples/default/examples'
p4455
tp4456
a(g4122
(S's\x03\x00\x00\x00FAQ'
tRp4457
I00
S'http://web2py.com/AlterEgo'
p4458
tp4459
a(g4122
(S's\x06\x00\x00\x00Videos'
tRp4460
I00
S'http://www.web2py.com/examples/default/videos/'
p4461
tp4462
a(g4122
(S's\x11\x00\x00\x00Free Applications'
tRp4463
I00
S'http://web2py.com/appliances'
p4464
tp4465
a(g4122
(S's\x07\x00\x00\x00Plugins'
tRp4466
I00
S'http://web2py.com/plugins'
p4467
tp4468
a(g4122
(S's\x07\x00\x00\x00Layouts'
tRp4469
I00
S'http://web2py.com/layouts'
p4470
tp4471
a(g4122
(S's\x07\x00\x00\x00Recipes'
tRp4472
I00
S'http://web2pyslices.com/'
p4473
tp4474
a(g4122
(S's\x08\x00\x00\x00Semantic'
tRp4475
I00
S'http://web2py.com/semantic'
p4476
tp4477
aasbasbasbasbasbasbasbag63
(g79
g65
NtRp4478
(dp4479
g68
(dp4480
sg77
g4235
sg70
(lp4481
g63
(g84
g65
NtRp4482
(dp4483
g68
(dp4484
sg77
g4478
sg70
(lp4485
g63
(g64
g65
NtRp4486
(dp4487
g68
(dp4488
g76
I2
ssg77
g4482
sg70
(lp4489
g63
(g72
g65
NtRp4490
(dp4491
g68
(dp4492
g76
I1
ssg77
Nsg70
(lp4493
g63
(g79
g65
NtRp4494
(dp4495
g68
(dp4496
sg77
g4490
sg70
(lp4497
g63
(g84
g65
NtRp4498
(dp4499
g68
(dp4500
sg77
g4494
sg70
(lp4501
g63
(g64
g65
NtRp4502
(dp4503
g68
(dp4504
g76
I1
ssg77
g4498
sg70
(lp4505
g4122
(S's\r\x00\x00\x00Documentation'
tRp4506
asbasbasbag63
(g79
g65
NtRp4507
(dp4508
g68
(dp4509
sg77
g4490
sg70
(lp4510
g63
(g84
g65
NtRp4511
(dp4512
g68
(dp4513
sg77
g4507
sg70
(lp4514
g63
(g64
g65
NtRp4515
(dp4516
g68
(dp4517
g76
I1
ssg77
g4511
sg70
(lp4518
I00
asbasbasbag63
(g79
g65
NtRp4519
(dp4520
g68
(dp4521
sg77
g4490
sg70
(lp4522
g63
(g84
g65
NtRp4523
(dp4524
g68
(dp4525
sg77
g4519
sg70
(lp4526
g63
(g64
g65
NtRp4527
(dp4528
g68
(dp4529
g76
I1
ssg77
g4523
sg70
(lp4530
S'http://www.web2py.com/book'
p4531
asbasbasbag63
(g79
g65
NtRp4532
(dp4533
g68
(dp4534
sg77
g4490
sg70
(lp4535
g63
(g84
g65
NtRp4536
(dp4537
g68
(dp4538
sg77
g4532
sg70
(lp4539
g63
(g64
g65
NtRp4540
(dp4541
g68
(dp4542
g76
I1
ssg77
g4536
sg70
(lp4543
(lp4544
(g4122
(S's\x07\x00\x00\x00Preface'
tRp4545
I00
S'http://www.web2py.com/book/default/chapter/00'
p4546
tp4547
a(g4122
(S's\x0c\x00\x00\x00Introduction'
tRp4548
I00
S'http://www.web2py.com/book/default/chapter/01'
p4549
tp4550
a(g4122
(S's\x06\x00\x00\x00Python'
tRp4551
I00
S'http://www.web2py.com/book/default/chapter/02'
p4552
tp4553
a(g4122
(S's\x08\x00\x00\x00Overview'
tRp4554
I00
S'http://www.web2py.com/book/default/chapter/03'
p4555
tp4556
a(g4122
(S's\x08\x00\x00\x00The Core'
tRp4557
I00
S'http://www.web2py.com/book/default/chapter/04'
p4558
tp4559
a(g4122
(S's\t\x00\x00\x00The Views'
tRp4560
I00
S'http://www.web2py.com/book/default/chapter/05'
p4561
tp4562
a(g4122
(S's\x08\x00\x00\x00Database'
tRp4563
I00
S'http://www.web2py.com/book/default/chapter/06'
p4564
tp4565
a(g4122
(S's\x14\x00\x00\x00Forms and Validators'
tRp4566
I00
S'http://www.web2py.com/book/default/chapter/07'
p4567
tp4568
a(g4122
(S's\r\x00\x00\x00Email and SMS'
tRp4569
I00
S'http://www.web2py.com/book/default/chapter/08'
p4570
tp4571
a(g4122
(S's\x0e\x00\x00\x00Access Control'
tRp4572
I00
S'http://www.web2py.com/book/default/chapter/09'
p4573
tp4574
a(g4122
(S's\x08\x00\x00\x00Services'
tRp4575
I00
S'http://www.web2py.com/book/default/chapter/10'
p4576
tp4577
a(g4122
(S's\x0c\x00\x00\x00Ajax Recipes'
tRp4578
I00
S'http://www.web2py.com/book/default/chapter/11'
p4579
tp4580
a(g4122
(S's\x16\x00\x00\x00Components and Plugins'
tRp4581
I00
S'http://www.web2py.com/book/default/chapter/12'
p4582
tp4583
a(g4122
(S's\x12\x00\x00\x00Deployment Recipes'
tRp4584
I00
S'http://www.web2py.com/book/default/chapter/13'
p4585
tp4586
a(g4122
(S's\r\x00\x00\x00Other Recipes'
tRp4587
I00
S'http://www.web2py.com/book/default/chapter/14'
p4588
tp4589
a(g4122
(S's\r\x00\x00\x00Buy this book'
tRp4590
I00
S'http://stores.lulu.com/web2py'
p4591
tp4592
aasbasbasbasbasbasbasbag63
(g79
g65
NtRp4593
(dp4594
g68
(dp4595
sg77
g4235
sg70
(lp4596
g63
(g84
g65
NtRp4597
(dp4598
g68
(dp4599
sg77
g4593
sg70
(lp4600
g63
(g64
g65
NtRp4601
(dp4602
g68
(dp4603
g76
I2
ssg77
g4597
sg70
(lp4604
g63
(g72
g65
NtRp4605
(dp4606
g68
(dp4607
g76
I1
ssg77
Nsg70
(lp4608
g63
(g79
g65
NtRp4609
(dp4610
g68
(dp4611
sg77
g4605
sg70
(lp4612
g63
(g84
g65
NtRp4613
(dp4614
g68
(dp4615
sg77
g4609
sg70
(lp4616
g63
(g64
g65
NtRp4617
(dp4618
g68
(dp4619
g76
I1
ssg77
g4613
sg70
(lp4620
g4122
(S's\t\x00\x00\x00Community'
tRp4621
asbasbasbag63
(g79
g65
NtRp4622
(dp4623
g68
(dp4624
sg77
g4605
sg70
(lp4625
g63
(g84
g65
NtRp4626
(dp4627
g68
(dp4628
sg77
g4622
sg70
(lp4629
g63
(g64
g65
NtRp4630
(dp4631
g68
(dp4632
g76
I1
ssg77
g4626
sg70
(lp4633
I00
asbasbasbag63
(g79
g65
NtRp4634
(dp4635
g68
(dp4636
sg77
g4605
sg70
(lp4637
g63
(g84
g65
NtRp4638
(dp4639
g68
(dp4640
sg77
g4634
sg70
(lp4641
g63
(g64
g65
NtRp4642
(dp4643
g68
(dp4644
g76
I1
ssg77
g4638
sg70
(lp4645
Nasbasbasbag63
(g79
g65
NtRp4646
(dp4647
g68
(dp4648
sg77
g4605
sg70
(lp4649
g63
(g84
g65
NtRp4650
(dp4651
g68
(dp4652
sg77
g4646
sg70
(lp4653
g63
(g64
g65
NtRp4654
(dp4655
g68
(dp4656
g76
I1
ssg77
g4650
sg70
(lp4657
(lp4658
(g4122
(S's\x06\x00\x00\x00Groups'
tRp4659
I00
S'http://www.web2py.com/examples/default/usergroups'
p4660
tp4661
a(g4122
(S's\x07\x00\x00\x00Twitter'
tRp4662
I00
S'http://twitter.com/web2py'
p4663
tp4664
a(g4122
(S's\t\x00\x00\x00Live Chat'
tRp4665
I00
S'http://webchat.freenode.net/?channels=web2py'
p4666
tp4667
aasbasbasbasbasbasbasbag63
(g79
g65
NtRp4668
(dp4669
g68
(dp4670
sg77
g4235
sg70
(lp4671
g63
(g84
g65
NtRp4672
(dp4673
g68
(dp4674
sg77
g4668
sg70
(lp4675
g63
(g64
g65
NtRp4676
(dp4677
g68
(dp4678
g76
I2
ssg77
g4672
sg70
(lp4679
g63
(g72
g65
NtRp4680
(dp4681
g68
(dp4682
g76
I1
ssg77
Nsg70
(lp4683
g63
(g79
g65
NtRp4684
(dp4685
g68
(dp4686
sg77
g4680
sg70
(lp4687
g63
(g84
g65
NtRp4688
(dp4689
g68
(dp4690
sg77
g4684
sg70
(lp4691
g63
(g64
g65
NtRp4692
(dp4693
g68
(dp4694
g76
I1
ssg77
g4688
sg70
(lp4695
g4122
(S's\x07\x00\x00\x00Plugins'
tRp4696
asbasbasbag63
(g79
g65
NtRp4697
(dp4698
g68
(dp4699
sg77
g4680
sg70
(lp4700
g63
(g84
g65
NtRp4701
(dp4702
g68
(dp4703
sg77
g4697
sg70
(lp4704
g63
(g64
g65
NtRp4705
(dp4706
g68
(dp4707
g76
I1
ssg77
g4701
sg70
(lp4708
I00
asbasbasbag63
(g79
g65
NtRp4709
(dp4710
g68
(dp4711
sg77
g4680
sg70
(lp4712
g63
(g84
g65
NtRp4713
(dp4714
g68
(dp4715
sg77
g4709
sg70
(lp4716
g63
(g64
g65
NtRp4717
(dp4718
g68
(dp4719
g76
I1
ssg77
g4713
sg70
(lp4720
Nasbasbasbag63
(g79
g65
NtRp4721
(dp4722
g68
(dp4723
sg77
g4680
sg70
(lp4724
g63
(g84
g65
NtRp4725
(dp4726
g68
(dp4727
sg77
g4721
sg70
(lp4728
g63
(g64
g65
NtRp4729
(dp4730
g68
(dp4731
g76
I1
ssg77
g4725
sg70
(lp4732
(lp4733
(S'plugin_wiki'
p4734
I00
S'http://web2py.com/examples/default/download'
p4735
tp4736
a(g4122
(S's\r\x00\x00\x00Other Plugins'
tRp4737
I00
g4467
tp4738
a(g4122
(S's\x0e\x00\x00\x00Layout Plugins'
tRp4739
I00
g4470
tp4740
aasbasbasbasbasbasbasbasbasbasbasbasbasbasbasbasbasbasbasbag63
(g79
g65
NtRp4741
(dp4742
g68
(dp4743
sg77
g3588
sg70
(lp4744
g63
(g84
g65
NtRp4745
(dp4746
g68
(dp4747
g88
g89
ssg77
g4741
sg70
(lp4748
S'meta'
p4749
asbag63
(g84
g65
NtRp4750
(dp4751
g68
(dp4752
g95
g96
ssg77
g4741
sg70
(lp4753
S':'
asbag63
(g84
g65
NtRp4754
(dp4755
g68
(dp4756
sg77
g4741
sg70
(lp4757
g63
(g64
g65
NtRp4758
(dp4759
g68
(dp4760
g76
I5
ssg77
g4754
sg70
(lp4761
g63
(g72
g65
NtRp4762
(dp4763
g68
(dp4764
g76
I4
ssg77
Nsg70
(lp4765
g63
(g79
g65
NtRp4766
(dp4767
g68
(dp4768
sg77
g4762
sg70
(lp4769
g63
(g84
g65
NtRp4770
(dp4771
g68
(dp4772
g88
g89
ssg77
g4766
sg70
(lp4773
S'author'
p4774
asbag63
(g84
g65
NtRp4775
(dp4776
g68
(dp4777
g95
g96
ssg77
g4766
sg70
(lp4778
S':'
asbag63
(g84
g65
NtRp4779
(dp4780
g68
(dp4781
sg77
g4766
sg70
(lp4782
g63
(g64
g65
NtRp4783
(dp4784
g68
(dp4785
g76
I4
ssg77
g4779
sg70
(lp4786
S'Your Name <you@example.com>'
p4787
asbasbasbag63
(g79
g65
NtRp4788
(dp4789
g68
(dp4790
sg77
g4762
sg70
(lp4791
g63
(g84
g65
NtRp4792
(dp4793
g68
(dp4794
g88
g89
ssg77
g4788
sg70
(lp4795
S'description'
p4796
asbag63
(g84
g65
NtRp4797
(dp4798
g68
(dp4799
g95
g96
ssg77
g4788
sg70
(lp4800
S':'
asbag63
(g84
g65
NtRp4801
(dp4802
g68
(dp4803
sg77
g4788
sg70
(lp4804
g63
(g64
g65
NtRp4805
(dp4806
g68
(dp4807
g76
I4
ssg77
g4801
sg70
(lp4808
S'a cool new app'
p4809
asbasbasbag63
(g79
g65
NtRp4810
(dp4811
g68
(dp4812
sg77
g4762
sg70
(lp4813
g63
(g84
g65
NtRp4814
(dp4815
g68
(dp4816
g88
g89
ssg77
g4810
sg70
(lp4817
S'generator'
p4818
asbag63
(g84
g65
NtRp4819
(dp4820
g68
(dp4821
g95
g96
ssg77
g4810
sg70
(lp4822
S':'
asbag63
(g84
g65
NtRp4823
(dp4824
g68
(dp4825
sg77
g4810
sg70
(lp4826
g63
(g64
g65
NtRp4827
(dp4828
g68
(dp4829
g76
I4
ssg77
g4823
sg70
(lp4830
S'Web2py Web Framework'
p4831
asbasbasbag63
(g79
g65
NtRp4832
(dp4833
g68
(dp4834
sg77
g4762
sg70
(lp4835
g63
(g84
g65
NtRp4836
(dp4837
g68
(dp4838
g88
g89
ssg77
g4832
sg70
(lp4839
S'keywords'
p4840
asbag63
(g84
g65
NtRp4841
(dp4842
g68
(dp4843
g95
g96
ssg77
g4832
sg70
(lp4844
S':'
asbag63
(g84
g65
NtRp4845
(dp4846
g68
(dp4847
sg77
g4832
sg70
(lp4848
g63
(g64
g65
NtRp4849
(dp4850
g68
(dp4851
g76
I4
ssg77
g4845
sg70
(lp4852
S'web2py, python, framework'
p4853
asbasbasbasbasbasbasbag63
(g79
g65
NtRp4854
(dp4855
g68
(dp4856
sg77
g3588
sg70
(lp4857
g63
(g84
g65
NtRp4858
(dp4859
g68
(dp4860
g88
g89
ssg77
g4854
sg70
(lp4861
S'models_to_run'
p4862
asbag63
(g84
g65
NtRp4863
(dp4864
g68
(dp4865
g95
g96
ssg77
g4854
sg70
(lp4866
S':'
asbag63
(g84
g65
NtRp4867
(dp4868
g68
(dp4869
sg77
g4854
sg70
(lp4870
g63
(g64
g65
NtRp4871
(dp4872
g68
(dp4873
g76
I5
ssg77
g4867
sg70
(lp4874
g63
(g72
g65
NtRp4875
(dp4876
g68
(dp4877
g76
I4
ssg77
Nsg70
(lp4878
g63
(g79
g65
NtRp4879
(dp4880
g68
(dp4881
sg77
g4875
sg70
(lp4882
g63
(g84
g65
NtRp4883
(dp4884
g68
(dp4885
sg77
g4879
sg70
(lp4886
g63
(g64
g65
NtRp4887
(dp4888
g68
(dp4889
g76
I4
ssg77
g4883
sg70
(lp4890
S'^\\w+\\.py$'
p4891
asbasbasbag63
(g79
g65
NtRp4892
(dp4893
g68
(dp4894
sg77
g4875
sg70
(lp4895
g63
(g84
g65
NtRp4896
(dp4897
g68
(dp4898
sg77
g4892
sg70
(lp4899
g63
(g64
g65
NtRp4900
(dp4901
g68
(dp4902
g76
I4
ssg77
g4896
sg70
(lp4903
S'^webrtc/\\w+\\.py$'
p4904
asbasbasbag63
(g79
g65
NtRp4905
(dp4906
g68
(dp4907
sg77
g4875
sg70
(lp4908
g63
(g84
g65
NtRp4909
(dp4910
g68
(dp4911
sg77
g4905
sg70
(lp4912
g63
(g64
g65
NtRp4913
(dp4914
g68
(dp4915
g76
I4
ssg77
g4909
sg70
(lp4916
S'^webrtc/connect/\\w+\\.py$'
p4917
asbasbasbasbasbasbasbag63
(g79
g65
NtRp4918
(dp4919
g68
(dp4920
sg77
g3588
sg70
(lp4921
g63
(g84
g65
NtRp4922
(dp4923
g68
(dp4924
g88
g89
ssg77
g4918
sg70
(lp4925
S'postprocessing'
p4926
asbag63
(g84
g65
NtRp4927
(dp4928
g68
(dp4929
g95
g96
ssg77
g4918
sg70
(lp4930
S':'
asbag63
(g84
g65
NtRp4931
(dp4932
g68
(dp4933
sg77
g4918
sg70
(lp4934
g63
(g64
g65
NtRp4935
(dp4936
g68
(dp4937
g76
I5
ssg77
g4931
sg70
(lp4938
g63
(g72
g65
NtRp4939
(dp4940
g68
(dp4941
g76
I4
ssg77
Nsg70
(lp4942
sbasbasbasbag63
(g79
g65
NtRp4943
(dp4944
g68
(dp4945
sg77
g3588
sg70
(lp4946
g63
(g84
g65
NtRp4947
(dp4948
g68
(dp4949
g88
g89
ssg77
g4943
sg70
(lp4950
S'session_cookie_expires'
p4951
asbag63
(g84
g65
NtRp4952
(dp4953
g68
(dp4954
g95
g96
ssg77
g4943
sg70
(lp4955
S':'
asbag63
(g84
g65
NtRp4956
(dp4957
g68
(dp4958
sg77
g4943
sg70
(lp4959
g63
(g64
g65
NtRp4960
(dp4961
g68
(dp4962
g76
I5
ssg77
g4956
sg70
(lp4963
S'None'
p4964
asbasbasbag63
(g79
g65
NtRp4965
(dp4966
g68
(dp4967
sg77
g3588
sg70
(lp4968
g63
(g84
g65
NtRp4969
(dp4970
g68
(dp4971
g88
g89
ssg77
g4965
sg70
(lp4972
S'session_data_name'
p4973
asbag63
(g84
g65
NtRp4974
(dp4975
g68
(dp4976
g95
g96
ssg77
g4965
sg70
(lp4977
S':'
asbag63
(g84
g65
NtRp4978
(dp4979
g68
(dp4980
sg77
g4965
sg70
(lp4981
g63
(g64
g65
NtRp4982
(dp4983
g68
(dp4984
g76
I5
ssg77
g4978
sg70
(lp4985
S'session_data_welcome'
p4986
asbasbasbag63
(g79
g65
NtRp4987
(dp4988
g68
(dp4989
sg77
g3588
sg70
(lp4990
g63
(g84
g65
NtRp4991
(dp4992
g68
(dp4993
g88
g89
ssg77
g4987
sg70
(lp4994
S'session_file'
p4995
asbag63
(g84
g65
NtRp4996
(dp4997
g68
(dp4998
g95
g96
ssg77
g4987
sg70
(lp4999
S':'
asbag63
(g84
g65
NtRp5000
(dp5001
g68
(dp5002
sg77
g4987
sg70
(lp5003
g63
(g64
g65
NtRp5004
(dp5005
g68
(dp5006
g76
I5
ssg77
g5000
sg70
(lp5007
S"<open file 'D:\\Work\\webRTC\\web2py\\applications\\welcome\\sessions\\127.0.0.1-e6406ed3-36fc-4bf4-81da-8304a3548287', mode 'rb+' at 0x00000000094D7DB0>"
p5008
asbasbasbag63
(g79
g65
NtRp5009
(dp5010
g68
(dp5011
sg77
g3588
sg70
(lp5012
g63
(g84
g65
NtRp5013
(dp5014
g68
(dp5015
g88
g89
ssg77
g5009
sg70
(lp5016
S'session_filename'
p5017
asbag63
(g84
g65
NtRp5018
(dp5019
g68
(dp5020
g95
g96
ssg77
g5009
sg70
(lp5021
S':'
asbag63
(g84
g65
NtRp5022
(dp5023
g68
(dp5024
sg77
g5009
sg70
(lp5025
g63
(g64
g65
NtRp5026
(dp5027
g68
(dp5028
g76
I5
ssg77
g5022
sg70
(lp5029
S'D:\\Work\\webRTC\\web2py\\applications\\welcome\\sessions\\127.0.0.1-e6406ed3-36fc-4bf4-81da-8304a3548287'
p5030
asbasbasbag63
(g79
g65
NtRp5031
(dp5032
g68
(dp5033
sg77
g3588
sg70
(lp5034
g63
(g84
g65
NtRp5035
(dp5036
g68
(dp5037
g88
g89
ssg77
g5031
sg70
(lp5038
S'session_id'
p5039
asbag63
(g84
g65
NtRp5040
(dp5041
g68
(dp5042
g95
g96
ssg77
g5031
sg70
(lp5043
S':'
asbag63
(g84
g65
NtRp5044
(dp5045
g68
(dp5046
sg77
g5031
sg70
(lp5047
g63
(g64
g65
NtRp5048
(dp5049
g68
(dp5050
g76
I5
ssg77
g5044
sg70
(lp5051
g494
asbasbasbag63
(g79
g65
NtRp5052
(dp5053
g68
(dp5054
sg77
g3588
sg70
(lp5055
g63
(g84
g65
NtRp5056
(dp5057
g68
(dp5058
g88
g89
ssg77
g5052
sg70
(lp5059
S'session_id_name'
p5060
asbag63
(g84
g65
NtRp5061
(dp5062
g68
(dp5063
g95
g96
ssg77
g5052
sg70
(lp5064
S':'
asbag63
(g84
g65
NtRp5065
(dp5066
g68
(dp5067
sg77
g5052
sg70
(lp5068
g63
(g64
g65
NtRp5069
(dp5070
g68
(dp5071
g76
I5
ssg77
g5065
sg70
(lp5072
g3645
asbasbasbag63
(g79
g65
NtRp5073
(dp5074
g68
(dp5075
sg77
g3588
sg70
(lp5076
g63
(g84
g65
NtRp5077
(dp5078
g68
(dp5079
g88
g89
ssg77
g5073
sg70
(lp5080
S'session_locked'
p5081
asbag63
(g84
g65
NtRp5082
(dp5083
g68
(dp5084
g95
g96
ssg77
g5073
sg70
(lp5085
S':'
asbag63
(g84
g65
NtRp5086
(dp5087
g68
(dp5088
sg77
g5073
sg70
(lp5089
g63
(g64
g65
NtRp5090
(dp5091
g68
(dp5092
g76
I5
ssg77
g5086
sg70
(lp5093
g106
asbasbasbag63
(g79
g65
NtRp5094
(dp5095
g68
(dp5096
sg77
g3588
sg70
(lp5097
g63
(g84
g65
NtRp5098
(dp5099
g68
(dp5100
g88
g89
ssg77
g5094
sg70
(lp5101
S'session_new'
p5102
asbag63
(g84
g65
NtRp5103
(dp5104
g68
(dp5105
g95
g96
ssg77
g5094
sg70
(lp5106
S':'
asbag63
(g84
g65
NtRp5107
(dp5108
g68
(dp5109
sg77
g5094
sg70
(lp5110
g63
(g64
g65
NtRp5111
(dp5112
g68
(dp5113
g76
I5
ssg77
g5107
sg70
(lp5114
g818
asbasbasbag63
(g79
g65
NtRp5115
(dp5116
g68
(dp5117
sg77
g3588
sg70
(lp5118
g63
(g84
g65
NtRp5119
(dp5120
g68
(dp5121
g88
g89
ssg77
g5115
sg70
(lp5122
S'session_storage_type'
p5123
asbag63
(g84
g65
NtRp5124
(dp5125
g68
(dp5126
g95
g96
ssg77
g5115
sg70
(lp5127
S':'
asbag63
(g84
g65
NtRp5128
(dp5129
g68
(dp5130
sg77
g5115
sg70
(lp5131
g63
(g64
g65
NtRp5132
(dp5133
g68
(dp5134
g76
I5
ssg77
g5128
sg70
(lp5135
g3238
asbasbasbag63
(g79
g65
NtRp5136
(dp5137
g68
(dp5138
sg77
g3588
sg70
(lp5139
g63
(g84
g65
NtRp5140
(dp5141
g68
(dp5142
g88
g89
ssg77
g5136
sg70
(lp5143
S'status'
p5144
asbag63
(g84
g65
NtRp5145
(dp5146
g68
(dp5147
g95
g96
ssg77
g5136
sg70
(lp5148
S':'
asbag63
(g84
g65
NtRp5149
(dp5150
g68
(dp5151
sg77
g5136
sg70
(lp5152
g63
(g64
g65
NtRp5153
(dp5154
g68
(dp5155
g76
I5
ssg77
g5149
sg70
(lp5156
S'200'
p5157
asbasbasbag63
(g79
g65
NtRp5158
(dp5159
g68
(dp5160
sg77
g3588
sg70
(lp5161
g63
(g84
g65
NtRp5162
(dp5163
g68
(dp5164
g88
g89
ssg77
g5158
sg70
(lp5165
S'subtitle'
p5166
asbag63
(g84
g65
NtRp5167
(dp5168
g68
(dp5169
g95
g96
ssg77
g5158
sg70
(lp5170
S':'
asbag63
(g84
g65
NtRp5171
(dp5172
g68
(dp5173
sg77
g5158
sg70
(lp5174
g63
(g64
g65
NtRp5175
(dp5176
g68
(dp5177
g76
I5
ssg77
g5171
sg70
(lp5178
g4122
(S's\r\x00\x00\x00customize me!'
tRp5179
asbasbasbag63
(g79
g65
NtRp5180
(dp5181
g68
(dp5182
sg77
g3588
sg70
(lp5183
g63
(g84
g65
NtRp5184
(dp5185
g68
(dp5186
g88
g89
ssg77
g5180
sg70
(lp5187
S'title'
p5188
asbag63
(g84
g65
NtRp5189
(dp5190
g68
(dp5191
g95
g96
ssg77
g5180
sg70
(lp5192
S':'
asbag63
(g84
g65
NtRp5193
(dp5194
g68
(dp5195
sg77
g5180
sg70
(lp5196
g63
(g64
g65
NtRp5197
(dp5198
g68
(dp5199
g76
I5
ssg77
g5193
sg70
(lp5200
S'Welcome'
p5201
asbasbasbag63
(g79
g65
NtRp5202
(dp5203
g68
(dp5204
sg77
g3588
sg70
(lp5205
g63
(g84
g65
NtRp5206
(dp5207
g68
(dp5208
g88
g89
ssg77
g5202
sg70
(lp5209
S'view'
p5210
asbag63
(g84
g65
NtRp5211
(dp5212
g68
(dp5213
g95
g96
ssg77
g5202
sg70
(lp5214
S':'
asbag63
(g84
g65
NtRp5215
(dp5216
g68
(dp5217
sg77
g5202
sg70
(lp5218
g63
(g64
g65
NtRp5219
(dp5220
g68
(dp5221
g76
I5
ssg77
g5215
sg70
(lp5222
S'webrtc/connect.html'
p5223
asbasbasbasbasbsS'locals'
p5224
(dp5225
S'err'
p5226
S"error(10061, 'No connection could be made because the target machine actively refused it')"
p5227
sS'af'
p5228
S'2'
sS'canonname'
p5229
S"''"
p5230
sS'proto'
p5231
S'0'
sS'sock'
p5232
S'<socket._socketobject object>'
p5233
sS'host'
p5234
S"'127.0.0.1'"
p5235
sS'_'
S"error(10061, 'No connection could be made because the target machine actively refused it')"
p5236
sS'timeout'
p5237
S'<object object>'
p5238
sS'res'
p5239
S"(2, 1, 0, '', ('127.0.0.1', 8888))"
p5240
sS'socktype'
p5241
S'1'
sS'sa'
p5242
S"('127.0.0.1', 8888)"
p5243
sS'source_address'
p5244
S'None'
p5245
sS'port'
p5246
S'8888'
p5247
sS'address'
p5248
S"('127.0.0.1', 8888)"
p5249
sssS'traceback'
p5250
S'Traceback (most recent call last):\n  File "D:\\Work\\webRTC\\web2py\\gluon\\restricted.py", line 212, in restricted\n    exec ccode in environment\n  File "D:\\Work\\webRTC\\web2py\\applications\\welcome\\controllers/webrtc.py", line 24, in <module>\n  File "D:\\Work\\webRTC\\web2py\\gluon\\globals.py", line 193, in <lambda>\n    self._caller = lambda f: f()\n  File "D:\\Work\\webRTC\\web2py\\applications\\welcome\\controllers/webrtc.py", line 19, in connect\n    websocket_send(\'http://\'+host_name+\':8888\',request.vars.msg,\'rtc\',request.args[0])\n  File "D:\\Work\\webRTC\\web2py\\gluon\\contrib\\websocket_messaging.py", line 92, in websocket_send\n    f = urllib.urlopen(url, params)\n  File "d:\\python27\\lib\\urllib.py", line 88, in urlopen\n    return opener.open(url, data)\n  File "d:\\python27\\lib\\urllib.py", line 209, in open\n    return getattr(self, name)(url, data)\n  File "d:\\python27\\lib\\urllib.py", line 344, in open_http\n    h.endheaders(data)\n  File "d:\\python27\\lib\\httplib.py", line 954, in endheaders\n    self._send_output(message_body)\n  File "d:\\python27\\lib\\httplib.py", line 814, in _send_output\n    self.send(msg)\n  File "d:\\python27\\lib\\httplib.py", line 776, in send\n    self.connect()\n  File "d:\\python27\\lib\\httplib.py", line 757, in connect\n    self.timeout, self.source_address)\n  File "d:\\python27\\lib\\socket.py", line 571, in create_connection\n    raise err\nIOError: [Errno socket error] [Errno 10061] No connection could be made because the target machine actively refused it\n'
p5251
s.